EXPORTS
    V8_Fatal @1
    _Z17CheckEqualsHelperPKciS0_N2v86HandleINS1_5ValueEEES0_S4_ @2
    _Z20CheckNonEqualsHelperPKciS0_N2v86HandleINS1_5ValueEEES0_S4_ @3
    _Z9API_FatalPKcS0_z @4
    _ZGVZN2v88internal11HStatistics8InstanceEvE8instance @5 DATA
    _ZGVZN2v88internal6Parser14EmptyStatementEvE5empty @6 DATA
    _ZGVZN2v88internal7HTracer8InstanceEvE8instance @7 DATA
    _ZN2v810ScriptData10PreCompileENS_6HandleINS_6StringEEE @8
    _ZN2v810ScriptData10PreCompileEPKci @9
    _ZN2v810ScriptData3NewEPKci @10
    _ZN2v810ScriptDataD0Ev @11
    _ZN2v810ScriptDataD1Ev @12
    _ZN2v810StackTrace17CurrentStackTraceEiNS0_17StackTraceOptionsE @13
    _ZN2v810StackTrace7AsArrayEv @14
    _ZN2v810TypeSwitch3NewENS_6HandleINS_16FunctionTemplateEEE @15
    _ZN2v810TypeSwitch3NewEiPNS_6HandleINS_16FunctionTemplateEEE @16
    _ZN2v810TypeSwitch5matchENS_6HandleINS_5ValueEEE @17
    _ZN2v811CpuProfiler10GetProfileEiNS_6HandleINS_5ValueEEE @18
    _ZN2v811CpuProfiler11FindProfileEjNS_6HandleINS_5ValueEEE @19
    _ZN2v811CpuProfiler13StopProfilingENS_6HandleINS_6StringEEENS1_INS_5ValueEEE @20
    _ZN2v811CpuProfiler14StartProfilingENS_6HandleINS_6StringEEE @21
    _ZN2v811CpuProfiler16GetProfilesCountEv @22
    _ZN2v811HandleScope12CreateHandleEPNS_8internal6ObjectE @23
    _ZN2v811HandleScope15NumberOfHandlesEv @24
    _ZN2v811HandleScope5LeaveEv @25
    _ZN2v811HandleScope8RawCloseEPPNS_8internal6ObjectE @26
    _ZN2v811HandleScopeC1Ev @27
    _ZN2v811HandleScopeC2Ev @28
    _ZN2v811HandleScopeD1Ev @29
    _ZN2v811HandleScopeD2Ev @30
    _ZN2v812HeapProfiler11GetSnapshotEi @31
    _ZN2v812HeapProfiler12FindSnapshotEj @32
    _ZN2v812HeapProfiler12TakeSnapshotENS_6HandleINS_6StringEEENS_12HeapSnapshot4TypeEPNS_15ActivityControlE @33
    _ZN2v812HeapProfiler17GetSnapshotsCountEv @34
    _ZN2v812NeanderArray3addENS_8internal6HandleINS1_6ObjectEEE @35
    _ZN2v812NeanderArray3getEi @36
    _ZN2v812NeanderArray3setEiPNS_8internal6ObjectE @37
    _ZN2v812NeanderArray6lengthEv @38
    _ZN2v812NeanderArrayC1Ev @39
    _ZN2v812NeanderArrayC2Ev @40
    _ZN2v813NeanderObject4sizeEv @41
    _ZN2v813NeanderObjectC1Ei @42
    _ZN2v813NeanderObjectC2Ei @43
    _ZN2v814HeapStatisticsC1Ev @44
    _ZN2v814HeapStatisticsC2Ev @45
    _ZN2v814ObjectTemplate11NewInstanceEv @46
    _ZN2v814ObjectTemplate11SetAccessorENS_6HandleINS_6StringEEEPFNS1_INS_5ValueEEENS_5LocalIS2_EERKNS_12AccessorInfoEEPFvS7_NS6_IS4_EESA_ES5_NS_13AccessControlENS_17PropertyAttributeE @47
    _ZN2v814ObjectTemplate18InternalFieldCountEv @48
    _ZN2v814ObjectTemplate18MarkAsUndetectableEv @49
    _ZN2v814ObjectTemplate21SetInternalFieldCountEi @50
    _ZN2v814ObjectTemplate23SetAccessCheckCallbacksEPFbNS_5LocalINS_6ObjectEEENS1_INS_5ValueEEENS_10AccessTypeES5_EPFbS3_jS6_S5_ENS_6HandleIS4_EEb @51
    _ZN2v814ObjectTemplate23SetNamedPropertyHandlerEPFNS_6HandleINS_5ValueEEENS_5LocalINS_6StringEEERKNS_12AccessorInfoEEPFS3_S6_NS4_IS2_EES9_EPFNS1_INS_7IntegerEEES6_S9_EPFNS1_INS_7BooleanEEES6_S9_EPFNS1_INS_5ArrayEEES9_ES3_ @52
    _ZN2v814ObjectTemplate24SetCallAsFunctionHandlerEPFNS_6HandleINS_5ValueEEERKNS_9ArgumentsEES3_ @53
    _ZN2v814ObjectTemplate25SetIndexedPropertyHandlerEPFNS_6HandleINS_5ValueEEEjRKNS_12AccessorInfoEEPFS3_jNS_5LocalIS2_EES6_EPFNS1_INS_7IntegerEEEjS6_EPFNS1_INS_7BooleanEEEjS6_EPFNS1_INS_5ArrayEEES6_ES3_ @54
    _ZN2v814ObjectTemplate3NewENS_6HandleINS_16FunctionTemplateEEE @55
    _ZN2v814ObjectTemplate3NewEv @56
    _ZN2v814ThrowExceptionENS_6HandleINS_5ValueEEE @57
    _ZN2v816FunctionTemplate11GetFunctionEv @58
    _ZN2v816FunctionTemplate11HasInstanceENS_6HandleINS_5ValueEEE @59
    _ZN2v816FunctionTemplate12SetClassNameENS_6HandleINS_6StringEEE @60
    _ZN2v816FunctionTemplate14SetCallHandlerEPFNS_6HandleINS_5ValueEEERKNS_9ArgumentsEES3_ @61
    _ZN2v816FunctionTemplate16InstanceTemplateEv @62
    _ZN2v816FunctionTemplate17PrototypeTemplateEv @63
    _ZN2v816FunctionTemplate18SetHiddenPrototypeEb @64
    _ZN2v816FunctionTemplate27AddInstancePropertyAccessorENS_6HandleINS_6StringEEEPFNS1_INS_5ValueEEENS_5LocalIS2_EERKNS_12AccessorInfoEEPFvS7_NS6_IS4_EESA_ES5_NS_13AccessControlENS_17PropertyAttributeE @65
    _ZN2v816FunctionTemplate31SetNamedInstancePropertyHandlerEPFNS_6HandleINS_5ValueEEENS_5LocalINS_6StringEEERKNS_12AccessorInfoEEPFS3_S6_NS4_IS2_EES9_EPFNS1_INS_7IntegerEEES6_S9_EPFNS1_INS_7BooleanEEES6_S9_EPFNS1_INS_5ArrayEEES9_ES3_ @66
    _ZN2v816FunctionTemplate32SetInstanceCallAsFunctionHandlerEPFNS_6HandleINS_5ValueEEERKNS_9ArgumentsEES3_ @67
    _ZN2v816FunctionTemplate33SetIndexedInstancePropertyHandlerEPFNS_6HandleINS_5ValueEEEjRKNS_12AccessorInfoEEPFS3_jNS_5LocalIS2_EES6_EPFNS1_INS_7IntegerEEEjS6_EPFNS1_INS_7BooleanEEEjS6_EPFNS1_INS_5ArrayEEES6_ES3_ @68
    _ZN2v816FunctionTemplate3NewEPFNS_6HandleINS_5ValueEEERKNS_9ArgumentsEES3_NS1_INS_9SignatureEEE @69
    _ZN2v816FunctionTemplate7InheritENS_6HandleIS0_EE @70
    _ZN2v817RegisterExtensionEPNS_9ExtensionE @71
    _ZN2v819RegisteredExtension16first_extension_E @72 DATA
    _ZN2v819RegisteredExtension8RegisterEPS0_ @73
    _ZN2v819RegisteredExtensionC1EPNS_9ExtensionE @74
    _ZN2v819RegisteredExtensionC2EPNS_9ExtensionE @75
    _ZN2v819ResourceConstraintsC1Ev @76
    _ZN2v819ResourceConstraintsC2Ev @77
    _ZN2v822SetResourceConstraintsEPNS_19ResourceConstraintsE @78
    _ZN2v823ImplementationUtilities18CurrentHandleScopeEv @79
    _ZN2v823ImplementationUtilities4NullEv @80
    _ZN2v823ImplementationUtilities4TrueEv @81
    _ZN2v823ImplementationUtilities5FalseEv @82
    _ZN2v823ImplementationUtilities9UndefinedEv @83
    _ZN2v823NewExternalStringHandleEPNS_6String22ExternalStringResourceE @84
    _ZN2v828NewExternalAsciiStringHandleEPNS_6String27ExternalAsciiStringResourceE @85
    _ZN2v82V810GetVersionEv @86
    _ZN2v82V810InitializeEv @87
    _ZN2v82V811GetLogLinesEiPci @88
    _ZN2v82V812IsGlobalWeakEPPNS_8internal6ObjectE @89
    _ZN2v82V813DisposeGlobalEPPNS_8internal6ObjectE @90
    _ZN2v82V813PauseProfilerEv @91
    _ZN2v82V814AddObjectGroupEPNS_10PersistentINS_5ValueEEEj @92
    _ZN2v82V814ResumeProfilerEv @93
    _ZN2v82V815PauseProfilerExEii @94
    _ZN2v82V816IdleNotificationEv @95
    _ZN2v82V816IsProfilerPausedEv @96
    _ZN2v82V816ResumeProfilerExEii @97
    _ZN2v82V817GetHeapStatisticsEPNS_14HeapStatisticsE @98
    _ZN2v82V817IsGlobalNearDeathEPPNS_8internal6ObjectE @99
    _ZN2v82V818AddMessageListenerEPFvNS_6HandleINS_7MessageEEENS1_INS_5ValueEEEES5_ @100
    _ZN2v82V818GetCurrentThreadIdEv @101
    _ZN2v82V818GlobalizeReferenceEPPNS_8internal6ObjectE @102
    _ZN2v82V818SetCounterFunctionEPFPiPKcE @103
    _ZN2v82V818SetFlagsFromStringEPKci @104
    _ZN2v82V818TerminateExecutionEi @105
    _ZN2v82V818TerminateExecutionEv @106
    _ZN2v82V820SetFatalErrorHandlerEPFvPKcS2_E @107
    _ZN2v82V821AddGCEpilogueCallbackEPFvNS_6GCTypeENS_15GCCallbackFlagsEES1_ @108
    _ZN2v82V821AddGCPrologueCallbackEPFvNS_6GCTypeENS_15GCCallbackFlagsEES1_ @109
    _ZN2v82V821LowMemoryNotificationEv @110
    _ZN2v82V822IsExecutionTerminatingEv @111
    _ZN2v82V822RemoveMessageListenersEPFvNS_6HandleINS_7MessageEEENS1_INS_5ValueEEEE @112
    _ZN2v82V823SetFlagsFromCommandLineEPiPPcb @113
    _ZN2v82V824EnableSlidingStateWindowEv @114
    _ZN2v82V824GetActiveProfilerModulesEv @115
    _ZN2v82V824RemoveGCEpilogueCallbackEPFvNS_6GCTypeENS_15GCCallbackFlagsEE @116
    _ZN2v82V824RemoveGCPrologueCallbackEPFvNS_6GCTypeENS_15GCCallbackFlagsEE @117
    _ZN2v82V826IgnoreOutOfMemoryExceptionEv @118
    _ZN2v82V826SetCreateHistogramFunctionEPFPvPKciijE @119
    _ZN2v82V827AddMemoryAllocationCallbackEPFvNS_11ObjectSpaceENS_16AllocationActionEiES1_S2_ @120
    _ZN2v82V827ContextDisposedNotificationEv @121
    _ZN2v82V827SetGlobalGCEpilogueCallbackEPFvvE @122
    _ZN2v82V827SetGlobalGCPrologueCallbackEPFvvE @123
    _ZN2v82V829SetAddHistogramSampleFunctionEPFvPviE @124
    _ZN2v82V830RemoveMemoryAllocationCallbackEPFvNS_11ObjectSpaceENS_16AllocationActionEiE @125
    _ZN2v82V836SetFailedAccessCheckCallbackFunctionEPFvNS_5LocalINS_6ObjectEEENS_10AccessTypeENS1_INS_5ValueEEEE @126
    _ZN2v82V837AdjustAmountOfExternalAllocatedMemoryEi @127
    _ZN2v82V841SetCaptureStackTraceForUncaughtExceptionsEbiNS_10StackTrace17StackTraceOptionsE @128
    _ZN2v82V86IsDeadEv @129
    _ZN2v82V87DisposeEv @130
    _ZN2v82V88MakeWeakEPPNS_8internal6ObjectEPvPFvNS_10PersistentINS_5ValueEEES5_E @131
    _ZN2v82V89ClearWeakEPPNS_8internal6ObjectE @132
    _ZN2v84Date39DateTimeConfigurationChangeNotificationEv @133
    _ZN2v84Date3NewEd @134
    _ZN2v84Date9CheckCastEPNS_5ValueE @135
    _ZN2v84NullEv @136
    _ZN2v84TrueEv @137
    _ZN2v85Array14CloneElementAtEj @138
    _ZN2v85Array3NewEi @139
    _ZN2v85Array9CheckCastEPNS_5ValueE @140
    _ZN2v85Debug10DebugBreakEv @141
    _ZN2v85Debug11EnableAgentEPKcib @142
    _ZN2v85Debug11SendCommandEPKtiPNS0_10ClientDataE @143
    _ZN2v85Debug12EventDetailsD0Ev @144
    _ZN2v85Debug12EventDetailsD1Ev @145
    _ZN2v85Debug15GetDebugContextEv @146
    _ZN2v85Debug16CancelDebugBreakEv @147
    _ZN2v85Debug17SetMessageHandlerEPFvPKtiPNS0_10ClientDataEEb @148
    _ZN2v85Debug18SetMessageHandler2EPFvRKNS0_7MessageEE @149
    _ZN2v85Debug20DebugBreakForCommandEPNS0_10ClientDataE @150
    _ZN2v85Debug20ProcessDebugMessagesEv @151
    _ZN2v85Debug21SetDebugEventListenerENS_6HandleINS_6ObjectEEENS1_INS_5ValueEEE @152
    _ZN2v85Debug21SetDebugEventListenerEPFvNS_10DebugEventENS_6HandleINS_6ObjectEEES4_NS2_INS_5ValueEEEES6_ @153
    _ZN2v85Debug22SetDebugEventListener2EPFvRKNS0_12EventDetailsEENS_6HandleINS_5ValueEEE @154
    _ZN2v85Debug22SetHostDispatchHandlerEPFvvEi @155
    _ZN2v85Debug30SetDebugMessageDispatchHandlerEPFvvEb @156
    _ZN2v85Debug4CallENS_6HandleINS_8FunctionEEENS1_INS_5ValueEEE @157
    _ZN2v85Debug7MessageD0Ev @158
    _ZN2v85Debug7MessageD1Ev @159
    _ZN2v85Debug9GetMirrorENS_6HandleINS_5ValueEEE @160
    _ZN2v85FalseEv @161
    _ZN2v85Utils16ReportApiFailureEPKcS2_ @162
    _ZN2v86Locker14StopPreemptionEv @163
    _ZN2v86Locker15StartPreemptionEi @164
    _ZN2v86Locker7active_E @165 DATA
    _ZN2v86Locker8IsLockedEv @166
    _ZN2v86LockerC1Ev @167
    _ZN2v86LockerC2Ev @168
    _ZN2v86LockerD1Ev @169
    _ZN2v86LockerD2Ev @170
    _ZN2v86Number3NewEd @171
    _ZN2v86Number9CheckCastEPNS_5ValueE @172
    _ZN2v86Object11ForceDeleteENS_6HandleINS_5ValueEEE @173
    _ZN2v86Object11SetAccessorENS_6HandleINS_6StringEEEPFNS1_INS_5ValueEEENS_5LocalIS2_EERKNS_12AccessorInfoEEPFvS7_NS6_IS4_EESA_ES5_NS_13AccessControlENS_17PropertyAttributeE @174
    _ZN2v86Object12GetPrototypeEv @175
    _ZN2v86Object12SetPrototypeENS_6HandleINS_5ValueEEE @176
    _ZN2v86Object14GetHiddenValueENS_6HandleINS_6StringEEE @177
    _ZN2v86Object14SetHiddenValueENS_6HandleINS_6StringEEENS1_INS_5ValueEEE @178
    _ZN2v86Object15GetIdentityHashEv @179
    _ZN2v86Object16GetPropertyNamesEv @180
    _ZN2v86Object16SetInternalFieldEiNS_6HandleINS_5ValueEEE @181
    _ZN2v86Object17DeleteHiddenValueENS_6HandleINS_6StringEEE @182
    _ZN2v86Object17TurnOnAccessCheckEv @183
    _ZN2v86Object18GetConstructorNameEv @184
    _ZN2v86Object18InternalFieldCountEv @185
    _ZN2v86Object19ObjectProtoToStringEv @186
    _ZN2v86Object20GetRealNamedPropertyENS_6HandleINS_6StringEEE @187
    _ZN2v86Object20HasRealNamedPropertyENS_6HandleINS_6StringEEE @188
    _ZN2v86Object22HasRealIndexedPropertyEj @189
    _ZN2v86Object23CheckedGetInternalFieldEi @190
    _ZN2v86Object25HasNamedLookupInterceptorEv @191
    _ZN2v86Object25SetPointerInInternalFieldEiPv @192
    _ZN2v86Object27HasIndexedLookupInterceptorEv @193
    _ZN2v86Object28FindInstanceInPrototypeChainENS_6HandleINS_16FunctionTemplateEEE @194
    _ZN2v86Object28HasRealNamedCallbackPropertyENS_6HandleINS_6StringEEE @195
    _ZN2v86Object29GetIndexedPropertiesPixelDataEv @196
    _ZN2v86Object31HasIndexedPropertiesInPixelDataEv @197
    _ZN2v86Object31SetIndexedPropertiesToPixelDataEPhi @198
    _ZN2v86Object31SlowGetPointerFromInternalFieldEi @199
    _ZN2v86Object35GetIndexedPropertiesPixelDataLengthEv @200
    _ZN2v86Object36GetRealNamedPropertyInPrototypeChainENS_6HandleINS_6StringEEE @201
    _ZN2v86Object37GetIndexedPropertiesExternalArrayDataEv @202
    _ZN2v86Object39HasIndexedPropertiesInExternalArrayDataEv @203
    _ZN2v86Object39SetIndexedPropertiesToExternalArrayDataEPvNS_17ExternalArrayTypeEi @204
    _ZN2v86Object3GetENS_6HandleINS_5ValueEEE @205
    _ZN2v86Object3GetEj @206
    _ZN2v86Object3HasENS_6HandleINS_6StringEEE @207
    _ZN2v86Object3HasEj @208
    _ZN2v86Object3NewEv @209
    _ZN2v86Object3SetENS_6HandleINS_5ValueEEES3_NS_17PropertyAttributeE @210
    _ZN2v86Object3SetEjNS_6HandleINS_5ValueEEE @211
    _ZN2v86Object41GetIndexedPropertiesExternalArrayDataTypeEv @212
    _ZN2v86Object43GetIndexedPropertiesExternalArrayDataLengthEv @213
    _ZN2v86Object5CloneEv @214
    _ZN2v86Object6DeleteENS_6HandleINS_6StringEEE @215
    _ZN2v86Object6DeleteEj @216
    _ZN2v86Object7IsDirtyEv @217
    _ZN2v86Object8ForceSetENS_6HandleINS_5ValueEEES3_NS_17PropertyAttributeE @218
    _ZN2v86Object9CheckCastEPNS_5ValueE @219
    _ZN2v86RegExp3NewENS_6HandleINS_6StringEEENS0_5FlagsE @220
    _ZN2v86RegExp9CheckCastEPNS_5ValueE @221
    _ZN2v86Script2IdEv @222
    _ZN2v86Script3NewENS_6HandleINS_6StringEEENS1_INS_5ValueEEE @223
    _ZN2v86Script3NewENS_6HandleINS_6StringEEEPNS_12ScriptOriginEPNS_10ScriptDataES3_ @224
    _ZN2v86Script3RunEv @225
    _ZN2v86Script7CompileENS_6HandleINS_6StringEEENS1_INS_5ValueEEES3_ @226
    _ZN2v86Script7CompileENS_6HandleINS_6StringEEEPNS_12ScriptOriginEPNS_10ScriptDataES3_ @227
    _ZN2v86Script7SetDataENS_6HandleINS_6StringEEE @228
    _ZN2v86String10AsciiValueC1ENS_6HandleINS_5ValueEEE @229
    _ZN2v86String10AsciiValueC2ENS_6HandleINS_5ValueEEE @230
    _ZN2v86String10AsciiValueD1Ev @231
    _ZN2v86String10AsciiValueD2Ev @232
    _ZN2v86String11NewExternalEPNS0_22ExternalStringResourceE @233
    _ZN2v86String11NewExternalEPNS0_27ExternalAsciiStringResourceE @234
    _ZN2v86String12MakeExternalEPNS0_22ExternalStringResourceE @235
    _ZN2v86String12MakeExternalEPNS0_27ExternalAsciiStringResourceE @236
    _ZN2v86String15CanMakeExternalEv @237
    _ZN2v86String15NewUndetectableEPKci @238
    _ZN2v86String15NewUndetectableEPKti @239
    _ZN2v86String22ExternalStringResourceD0Ev @240
    _ZN2v86String22ExternalStringResourceD1Ev @241
    _ZN2v86String26ExternalStringResourceBase7DisposeEv @242
    _ZN2v86String26ExternalStringResourceBaseD0Ev @243
    _ZN2v86String26ExternalStringResourceBaseD1Ev @244
    _ZN2v86String27ExternalAsciiStringResourceD0Ev @245
    _ZN2v86String27ExternalAsciiStringResourceD1Ev @246
    _ZN2v86String3NewEPKci @247
    _ZN2v86String3NewEPKti @248
    _ZN2v86String5EmptyEv @249
    _ZN2v86String5ValueC1ENS_6HandleINS_5ValueEEE @250
    _ZN2v86String5ValueC2ENS_6HandleINS_5ValueEEE @251
    _ZN2v86String5ValueD1Ev @252
    _ZN2v86String5ValueD2Ev @253
    _ZN2v86String6ConcatENS_6HandleIS0_EES2_ @254
    _ZN2v86String9CheckCastEPNS_5ValueE @255
    _ZN2v86String9NewSymbolEPKci @256
    _ZN2v86String9Utf8ValueC1ENS_6HandleINS_5ValueEEE @257
    _ZN2v86String9Utf8ValueC2ENS_6HandleINS_5ValueEEE @258
    _ZN2v86String9Utf8ValueD1Ev @259
    _ZN2v86String9Utf8ValueD2Ev @260
    _ZN2v87Context10GetCallingEv @261
    _ZN2v87Context10GetCurrentEv @262
    _ZN2v87Context10GetEnteredEv @263
    _ZN2v87Context12DetachGlobalEv @264
    _ZN2v87Context14ReattachGlobalENS_6HandleINS_6ObjectEEE @265
    _ZN2v87Context16GetSecurityTokenEv @266
    _ZN2v87Context16SetSecurityTokenENS_6HandleINS_5ValueEEE @267
    _ZN2v87Context23HasOutOfMemoryExceptionEv @268
    _ZN2v87Context23UseDefaultSecurityTokenEv @269
    _ZN2v87Context3NewEPNS_22ExtensionConfigurationENS_6HandleINS_14ObjectTemplateEEENS3_INS_5ValueEEE @270
    _ZN2v87Context4ExitEv @271
    _ZN2v87Context5EnterEv @272
    _ZN2v87Context6GlobalEv @273
    _ZN2v87Context7GetDataEv @274
    _ZN2v87Context7SetDataENS_6HandleINS_6StringEEE @275
    _ZN2v87Context9InContextEv @276
    _ZN2v87Integer15NewFromUnsignedEj @277
    _ZN2v87Integer3NewEi @278
    _ZN2v87Integer9CheckCastEPNS_5ValueE @279
    _ZN2v87Message22PrintCurrentStackTraceEP9__sFILE64 @280
    _ZN2v87Testing13GetStressRunsEv @281
    _ZN2v87Testing16PrepareStressRunEi @282
    _ZN2v87Testing16SetStressRunTypeENS0_10StressTypeE @283
    _ZN2v88External10FullUnwrapENS_6HandleINS_5ValueEEE @284
    _ZN2v88External3NewEPv @285
    _ZN2v88External4WrapEPv @286
    _ZN2v88External9CheckCastEPNS_5ValueE @287
    _ZN2v88Function19kLineOffsetNotFoundE @288 DATA
    _ZN2v88Function4CallENS_6HandleINS_6ObjectEEEiPNS1_INS_5ValueEEE @289
    _ZN2v88Function7SetNameENS_6HandleINS_6StringEEE @290
    _ZN2v88Function9CheckCastEPNS_5ValueE @291
    _ZN2v88Template3SetENS_6HandleINS_6StringEEENS1_INS_4DataEEENS_17PropertyAttributeE @292
    _ZN2v88TryCatch10SetVerboseEb @293
    _ZN2v88TryCatch17SetCaptureMessageEb @294
    _ZN2v88TryCatch5ResetEv @295
    _ZN2v88TryCatch7ReThrowEv @296
    _ZN2v88TryCatchC1Ev @297
    _ZN2v88TryCatchC2Ev @298
    _ZN2v88TryCatchD1Ev @299
    _ZN2v88TryCatchD2Ev @300
    _ZN2v88UnlockerC1Ev @301
    _ZN2v88UnlockerC2Ev @302
    _ZN2v88UnlockerD1Ev @303
    _ZN2v88UnlockerD2Ev @304
    _ZN2v88internal10ActionNode11EatsAtLeastEiib @305
    _ZN2v88internal10ActionNode11SetRegisterEiiPNS0_10RegExpNodeE @306
    _ZN2v88internal10ActionNode13BeginSubmatchEiiPNS0_10RegExpNodeE @307
    _ZN2v88internal10ActionNode13ClearCapturesENS0_8IntervalEPNS0_10RegExpNodeE @308
    _ZN2v88internal10ActionNode13StorePositionEibPNS0_10RegExpNodeE @309
    _ZN2v88internal10ActionNode15EmptyMatchCheckEiiiPNS0_10RegExpNodeE @310
    _ZN2v88internal10ActionNode17IncrementRegisterEiPNS0_10RegExpNodeE @311
    _ZN2v88internal10ActionNode20GetQuickCheckDetailsEPNS0_17QuickCheckDetailsEPNS0_14RegExpCompilerEib @312
    _ZN2v88internal10ActionNode20GreedyLoopTextLengthEv @313
    _ZN2v88internal10ActionNode23PositiveSubmatchSuccessEiiiiPNS0_10RegExpNodeE @314
    _ZN2v88internal10ActionNode24ComputeFirstCharacterSetEi @315
    _ZN2v88internal10ActionNode4EmitEPNS0_14RegExpCompilerEPNS0_5TraceE @316
    _ZN2v88internal10ActionNode5CloneEv @317
    _ZN2v88internal10ActionNode6AcceptEPNS0_11NodeVisitorE @318
    _ZN2v88internal10ActionNodeD0Ev @319
    _ZN2v88internal10ActionNodeD1Ev @320
    _ZN2v88internal10Assignment12AsAssignmentEv @321
    _ZN2v88internal10Assignment13IsMonomorphicEv @322
    _ZN2v88internal10Assignment16GetReceiverTypesEv @323
    _ZN2v88internal10Assignment18RecordTypeFeedbackEPNS0_18TypeFeedbackOracleE @324
    _ZN2v88internal10Assignment26GetMonomorphicReceiverTypeEv @325
    _ZN2v88internal10Assignment6AcceptEPNS0_10AstVisitorE @326
    _ZN2v88internal10AssignmentC1ENS0_5Token5ValueEPNS0_10ExpressionES5_i @327
    _ZN2v88internal10AssignmentC2ENS0_5Token5ValueEPNS0_10ExpressionES5_i @328
    _ZN2v88internal10AssignmentD0Ev @329
    _ZN2v88internal10AssignmentD1Ev @330
    _ZN2v88internal10AstContextC1EPNS0_13HGraphBuilderENS0_10Expression7ContextE @331
    _ZN2v88internal10AstContextC2EPNS0_13HGraphBuilderENS0_10Expression7ContextE @332
    _ZN2v88internal10AstContextD0Ev @333
    _ZN2v88internal10AstContextD1Ev @334
    _ZN2v88internal10AstContextD2Ev @335
    _ZN2v88internal10AstVisitor15VisitStatementsEPNS0_8ZoneListIPNS0_9StatementEEE @336
    _ZN2v88internal10AstVisitor16VisitExpressionsEPNS0_8ZoneListIPNS0_10ExpressionEEE @337
    _ZN2v88internal10AstVisitor17VisitDeclarationsEPNS0_8ZoneListIPNS0_11DeclarationEEE @338
    _ZN2v88internal10AstVisitor18CheckStackOverflowEv @339
    _ZN2v88internal10AstVisitor9VisitSlotEPNS0_4SlotE @340
    _ZN2v88internal10AstVisitorD0Ev @341
    _ZN2v88internal10AstVisitorD1Ev @342
    _ZN2v88internal10BignumDtoaEdNS0_14BignumDtoaModeEiNS0_6VectorIcEEPiS4_ @343
    _ZN2v88internal10BinaryOpIC11GetTypeInfoEPNS0_6ObjectES3_ @344
    _ZN2v88internal10BinaryOpIC5patchEPNS0_4CodeE @345
    _ZN2v88internal10BinaryOpIC7GetNameENS1_8TypeInfoE @346
    _ZN2v88internal10BinaryOpIC7ToStateENS1_8TypeInfoE @347
    _ZN2v88internal10CEntryStub12GenerateCoreEPNS0_14MacroAssemblerEPNS0_5LabelES5_S5_bb @348
    _ZN2v88internal10CEntryStub16GenerateThrowTOSEPNS0_14MacroAssemblerE @349
    _ZN2v88internal10CEntryStub24GenerateThrowUncatchableEPNS0_14MacroAssemblerE24UncatchableExceptionType @350
    _ZN2v88internal10CEntryStub7GetNameEv @351
    _ZN2v88internal10CEntryStub8GenerateEPNS0_14MacroAssemblerE @352
    _ZN2v88internal10CEntryStub8MajorKeyEv @353
    _ZN2v88internal10CEntryStub8MinorKeyEv @354
    _ZN2v88internal10CEntryStubD0Ev @355
    _ZN2v88internal10CEntryStubD1Ev @356
    _ZN2v88internal10CStrVectorEPKc @357
    _ZN2v88internal10CallICBase12LoadFunctionENS0_16InlineCacheStateEiNS0_6HandleINS0_6ObjectEEENS3_INS0_6StringEEE @358
    _ZN2v88internal10CallICBase12UpdateCachesEPNS0_12LookupResultENS0_16InlineCacheStateEiNS0_6HandleINS0_6ObjectEEENS5_INS0_6StringEEE @359
    _ZN2v88internal10CallICBase17TryCallAsFunctionEPNS0_6ObjectE @360
    _ZN2v88internal10CallICBase21TryUpdateExtraICStateEPNS0_12LookupResultENS0_6HandleINS0_6ObjectEEEPi @361
    _ZN2v88internal10CallICBase22ComputeMonomorphicStubEPNS0_12LookupResultENS0_16InlineCacheStateEiNS0_6HandleINS0_6ObjectEEENS5_INS0_6StringEEE @362
    _ZN2v88internal10CallICBase26ReceiverToObjectIfRequiredENS0_6HandleINS0_6ObjectEEES4_ @363
    _ZN2v88internal10CallICBase5ClearEPhPNS0_4CodeE @364
    _ZN2v88internal10CaseClause18RecordTypeFeedbackEPNS0_18TypeFeedbackOracleE @365
    _ZN2v88internal10CaseClauseC1EPNS0_10ExpressionEPNS0_8ZoneListIPNS0_9StatementEEEi @366
    _ZN2v88internal10CaseClauseC2EPNS0_10ExpressionEPNS0_8ZoneListIPNS0_9StatementEEEi @367
    _ZN2v88internal10ChoiceNode11EatsAtLeastEiib @368
    _ZN2v88internal10ChoiceNode13GenerateGuardEPNS0_20RegExpMacroAssemblerEPNS0_5GuardEPNS0_5TraceE @369
    _ZN2v88internal10ChoiceNode17EatsAtLeastHelperEiiPNS0_10RegExpNodeEb @370
    _ZN2v88internal10ChoiceNode20GetQuickCheckDetailsEPNS0_17QuickCheckDetailsEPNS0_14RegExpCompilerEib @371
    _ZN2v88internal10ChoiceNode20GreedyLoopTextLengthEPNS0_18GuardedAlternativeE @372
    _ZN2v88internal10ChoiceNode25EmitOutOfLineContinuationEPNS0_14RegExpCompilerEPNS0_5TraceENS0_18GuardedAlternativeEPNS0_21AlternativeGenerationEib @373
    _ZN2v88internal10ChoiceNode26CalculatePreloadCharactersEPNS0_14RegExpCompilerEb @374
    _ZN2v88internal10ChoiceNode39try_to_emit_quick_check_for_alternativeEi @375
    _ZN2v88internal10ChoiceNode4EmitEPNS0_14RegExpCompilerEPNS0_5TraceE @376
    _ZN2v88internal10ChoiceNode5CloneEv @377
    _ZN2v88internal10ChoiceNode6AcceptEPNS0_11NodeVisitorE @378
    _ZN2v88internal10ChoiceNode8GetTableEb @379
    _ZN2v88internal10ChoiceNodeD0Ev @380
    _ZN2v88internal10ChoiceNodeD1Ev @381
    _ZN2v88internal10Comparator19CalculateDifferenceEPNS1_5InputEPNS1_6OutputE @382
    _ZN2v88internal10Comparator5InputD0Ev @383
    _ZN2v88internal10Comparator5InputD1Ev @384
    _ZN2v88internal10Comparator6OutputD0Ev @385
    _ZN2v88internal10Comparator6OutputD1Ev @386
    _ZN2v88internal10ConsString13ConsStringGetEi @387
    _ZN2v88internal10ConsString19ConsStringReadBlockEPNS0_6String15ReadBlockBufferEPjj @388
    _ZN2v88internal10ConsString29ConsStringReadBlockIntoBufferEPNS0_6String15ReadBlockBufferEPjj @389
    _ZN2v88internal10CpuProfile10ShortPrintEv @390
    _ZN2v88internal10CpuProfile13FilteredCloneEi @391
    _ZN2v88internal10CpuProfile19CalculateTotalTicksEv @392
    _ZN2v88internal10CpuProfile21SetActualSamplingRateEd @393
    _ZN2v88internal10CpuProfile5PrintEv @394
    _ZN2v88internal10CpuProfile7AddPathERKNS0_6VectorIPNS0_9CodeEntryEEE @395
    _ZN2v88internal10DateParser11DayComposer5WriteEPNS0_10FixedArrayE @396
    _ZN2v88internal10DateParser12KeywordTable5arrayE @397 DATA
    _ZN2v88internal10DateParser12KeywordTable6LookupEPKji @398
    _ZN2v88internal10DateParser12TimeComposer5WriteEPNS0_10FixedArrayE @399
    _ZN2v88internal10DateParser16TimeZoneComposer5WriteEPNS0_10FixedArrayE @400
    _ZN2v88internal10DateParser5ParseIKcEEbNS0_6VectorIT_EEPNS0_10FixedArrayE @401
    _ZN2v88internal10DateParser5ParseIKtEEbNS0_6VectorIT_EEPNS0_10FixedArrayE @402
    _ZN2v88internal10DictionaryINS0_21NumberDictionaryShapeEjE10CopyKeysToEPNS0_10FixedArrayE18PropertyAttributes @403
    _ZN2v88internal10DictionaryINS0_21NumberDictionaryShapeEjE10ValueAtPutEiPNS0_6ObjectE @404
    _ZN2v88internal10DictionaryINS0_21NumberDictionaryShapeEjE12CopyValuesToEPNS0_10FixedArrayE @405
    _ZN2v88internal10DictionaryINS0_21NumberDictionaryShapeEjE12DetailsAtPutEiNS0_15PropertyDetailsE @406
    _ZN2v88internal10DictionaryINS0_21NumberDictionaryShapeEjE14DeletePropertyEiNS0_8JSObject10DeleteModeE @407
    _ZN2v88internal10DictionaryINS0_21NumberDictionaryShapeEjE14EnsureCapacityEij @408
    _ZN2v88internal10DictionaryINS0_21NumberDictionaryShapeEjE17SlowReverseLookupEPNS0_6ObjectE @409
    _ZN2v88internal10DictionaryINS0_21NumberDictionaryShapeEjE20NextEnumerationIndexEv @410
    _ZN2v88internal10DictionaryINS0_21NumberDictionaryShapeEjE20NumberOfEnumElementsEv @411
    _ZN2v88internal10DictionaryINS0_21NumberDictionaryShapeEjE23SetNextEnumerationIndexEi @412
    _ZN2v88internal10DictionaryINS0_21NumberDictionaryShapeEjE32NumberOfElementsFilterAttributesE18PropertyAttributes @413
    _ZN2v88internal10DictionaryINS0_21NumberDictionaryShapeEjE3AddEjPNS0_6ObjectENS0_15PropertyDetailsE @414
    _ZN2v88internal10DictionaryINS0_21NumberDictionaryShapeEjE4castEPNS0_6ObjectE @415
    _ZN2v88internal10DictionaryINS0_21NumberDictionaryShapeEjE5AtPutEjPNS0_6ObjectE @416
    _ZN2v88internal10DictionaryINS0_21NumberDictionaryShapeEjE7ValueAtEi @417
    _ZN2v88internal10DictionaryINS0_21NumberDictionaryShapeEjE8AddEntryEjPNS0_6ObjectENS0_15PropertyDetailsEj @418
    _ZN2v88internal10DictionaryINS0_21NumberDictionaryShapeEjE8AllocateEi @419
    _ZN2v88internal10DictionaryINS0_21NumberDictionaryShapeEjE8SetEntryEiPNS0_6ObjectES5_NS0_15PropertyDetailsE @420
    _ZN2v88internal10DictionaryINS0_21NumberDictionaryShapeEjE9DetailsAtEi @421
    _ZN2v88internal10DictionaryINS0_21StringDictionaryShapeEPNS0_6StringEE10CopyKeysToEPNS0_10FixedArrayE @422
    _ZN2v88internal10DictionaryINS0_21StringDictionaryShapeEPNS0_6StringEE10ValueAtPutEiPNS0_6ObjectE @423
    _ZN2v88internal10DictionaryINS0_21StringDictionaryShapeEPNS0_6StringEE12CopyValuesToEPNS0_10FixedArrayE @424
    _ZN2v88internal10DictionaryINS0_21StringDictionaryShapeEPNS0_6StringEE12DetailsAtPutEiNS0_15PropertyDetailsE @425
    _ZN2v88internal10DictionaryINS0_21StringDictionaryShapeEPNS0_6StringEE14DeletePropertyEiNS0_8JSObject10DeleteModeE @426
    _ZN2v88internal10DictionaryINS0_21StringDictionaryShapeEPNS0_6StringEE14EnsureCapacityEiS4_ @427
    _ZN2v88internal10DictionaryINS0_21StringDictionaryShapeEPNS0_6StringEE17SlowReverseLookupEPNS0_6ObjectE @428
    _ZN2v88internal10DictionaryINS0_21StringDictionaryShapeEPNS0_6StringEE20NextEnumerationIndexEv @429
    _ZN2v88internal10DictionaryINS0_21StringDictionaryShapeEPNS0_6StringEE20NumberOfEnumElementsEv @430
    _ZN2v88internal10DictionaryINS0_21StringDictionaryShapeEPNS0_6StringEE23SetNextEnumerationIndexEi @431
    _ZN2v88internal10DictionaryINS0_21StringDictionaryShapeEPNS0_6StringEE29GenerateNewEnumerationIndicesEv @432
    _ZN2v88internal10DictionaryINS0_21StringDictionaryShapeEPNS0_6StringEE32NumberOfElementsFilterAttributesE18PropertyAttributes @433
    _ZN2v88internal10DictionaryINS0_21StringDictionaryShapeEPNS0_6StringEE3AddES4_PNS0_6ObjectENS0_15PropertyDetailsE @434
    _ZN2v88internal10DictionaryINS0_21StringDictionaryShapeEPNS0_6StringEE4castEPNS0_6ObjectE @435
    _ZN2v88internal10DictionaryINS0_21StringDictionaryShapeEPNS0_6StringEE7ValueAtEi @436
    _ZN2v88internal10DictionaryINS0_21StringDictionaryShapeEPNS0_6StringEE8AddEntryES4_PNS0_6ObjectENS0_15PropertyDetailsEj @437
    _ZN2v88internal10DictionaryINS0_21StringDictionaryShapeEPNS0_6StringEE8AllocateEi @438
    _ZN2v88internal10DictionaryINS0_21StringDictionaryShapeEPNS0_6StringEE8SetEntryEiPNS0_6ObjectES7_NS0_15PropertyDetailsE @439
    _ZN2v88internal10DictionaryINS0_21StringDictionaryShapeEPNS0_6StringEE9DetailsAtEi @440
    _ZN2v88internal10EntryFrame11SetCallerFpEPh @441
    _ZN2v88internal10EntryFrameD0Ev @442
    _ZN2v88internal10EntryFrameD1Ev @443
    _ZN2v88internal10Expression12AsExpressionEv @444
    _ZN2v88internal10Expression12IsSmiLiteralEv @445
    _ZN2v88internal10Expression13IsArrayLengthEv @446
    _ZN2v88internal10Expression13IsMonomorphicEv @447
    _ZN2v88internal10Expression14IsPropertyNameEv @448
    _ZN2v88internal10Expression15MarkAsStatementEv @449
    _ZN2v88internal10Expression15ToBooleanIsTrueEv @450
    _ZN2v88internal10Expression16GetReceiverTypesEv @451
    _ZN2v88internal10Expression16ToBooleanIsFalseEv @452
    _ZN2v88internal10Expression19GuaranteedSmiResultEv @453
    _ZN2v88internal10Expression19IsValidLeftHandSideEv @454
    _ZN2v88internal10Expression22ResultOverwriteAllowedEv @455
    _ZN2v88internal10Expression23CopyAnalysisResultsFromEPS1_ @456
    _ZN2v88internal10Expression26GetMonomorphicReceiverTypeEv @457
    _ZN2v88internal10Expression9IsTrivialEv @458
    _ZN2v88internal10ExpressionD0Ev @459
    _ZN2v88internal10ExpressionD1Ev @460
    _ZN2v88internal10FLAG_deoptE @461 DATA
    _ZN2v88internal10FLAG_traceE @462 DATA
    _ZN2v88internal10FixedArray11UnionOfKeysEPS1_ @463
    _ZN2v88internal10FixedArray18AddKeysFromJSArrayEPNS0_7JSArrayE @464
    _ZN2v88internal10FixedArray3setEiPNS0_6ObjectE @465
    _ZN2v88internal10FixedArray6CopyToEiPS1_ii @466
    _ZN2v88internal10FixedArray8CopySizeEi @467
    _ZN2v88internal10FixedArray9SortPairsEPS1_j @468
    _ZN2v88internal10FixedArray9SwapPairsEPS1_ii @469
    _ZN2v88internal10FixedSpace15DeallocateBlockEPhib @470
    _ZN2v88internal10FixedSpace15SlowAllocateRawEi @471
    _ZN2v88internal10FixedSpace18AllocateInNextPageEPNS0_4PageEi @472
    _ZN2v88internal10FixedSpace19PageAllocationLimitEPNS0_4PageE @473
    _ZN2v88internal10FixedSpace21PrepareForMarkCompactEb @474
    _ZN2v88internal10FixedSpace22MCCommitRelocationInfoEv @475
    _ZN2v88internal10FixedSpace30PutRestOfCurrentPageOnFreeListEPNS0_4PageE @476
    _ZN2v88internal10FixedSpaceD0Ev @477
    _ZN2v88internal10FixedSpaceD1Ev @478
    _ZN2v88internal10GetElementENS0_6HandleINS0_6ObjectEEEj @479
    _ZN2v88internal10GetKeysForENS0_6HandleINS0_8JSObjectEEE @480
    _ZN2v88internal10HCallKeyed16CompileToLithiumEPNS0_13LChunkBuilderE @481
    _ZN2v88internal10HCallKeyedD0Ev @482
    _ZN2v88internal10HCallKeyedD1Ev @483
    _ZN2v88internal10HCallNamed11PrintDataToEPNS0_12StringStreamE @484
    _ZN2v88internal10HCallNamed16CompileToLithiumEPNS0_13LChunkBuilderE @485
    _ZN2v88internal10HCallNamedD0Ev @486
    _ZN2v88internal10HCallNamedD1Ev @487
    _ZN2v88internal10HParameter11PrintDataToEPNS0_12StringStreamE @488
    _ZN2v88internal10HParameter16CompileToLithiumEPNS0_13LChunkBuilderE @489
    _ZN2v88internal10HParameterD0Ev @490
    _ZN2v88internal10HParameterD1Ev @491
    _ZN2v88internal10HUnaryCall11PrintDataToEPNS0_12StringStreamE @492
    _ZN2v88internal10HUnaryCallC2EPNS0_6HValueEi @493
    _ZN2v88internal10HUnaryCallD0Ev @494
    _ZN2v88internal10HUnaryCallD1Ev @495
    _ZN2v88internal10HeapNumber15HeapNumberPrintEP9__sFILE64 @496
    _ZN2v88internal10HeapNumber15HeapNumberPrintEPNS0_12StringStreamE @497
    _ZN2v88internal10HeapNumber19HeapNumberToBooleanEv @498
    _ZN2v88internal10HeapObject11IterateBodyENS0_12InstanceTypeEiPNS0_13ObjectVisitorE @499
    _ZN2v88internal10HeapObject11SizeFromMapEPNS0_3MapE @500
    _ZN2v88internal10HeapObject20HeapObjectShortPrintEPNS0_12StringStreamE @501
    _ZN2v88internal10HeapObject7IterateEPNS0_13ObjectVisitorE @502
    _ZN2v88internal10JSFunction10SourceHashEv @503
    _ZN2v88internal10JSFunction11ReplaceCodeEPNS0_4CodeE @504
    _ZN2v88internal10JSFunction12IsInlineableEv @505
    _ZN2v88internal10JSFunction12SetPrototypeEPNS0_6ObjectE @506
    _ZN2v88internal10JSFunction15RemovePrototypeEv @507
    _ZN2v88internal10JSFunction20SetInstanceClassNameEPNS0_6StringE @508
    _ZN2v88internal10JSFunction20SetInstancePrototypeEPNS0_6ObjectE @509
    _ZN2v88internal10JSFunction21JSFunctionIterateBodyEiPNS0_13ObjectVisitorE @510
    _ZN2v88internal10JSFunction24MarkForLazyRecompilationEv @511
    _ZN2v88internal10JSFunction25GlobalContextFromLiteralsEPNS0_10FixedArrayE @512
    _ZN2v88internal10JSFunction9PrintNameEP9__sFILE64 @513
    _ZN2v88internal10JsonParser14ParseJsonArrayEv @514
    _ZN2v88internal10JsonParser14ParseJsonValueEv @515
    _ZN2v88internal10JsonParser15ParseJsonObjectEv @516
    _ZN2v88internal10JsonParser5ParseENS0_6HandleINS0_6StringEEE @517
    _ZN2v88internal10JsonParser9GetStringEv @518
    _ZN2v88internal10JsonParser9ParseJsonENS0_6HandleINS0_6StringEEEPNS0_19UC16CharacterStreamE @519
    _ZN2v88internal10JumpTarget13set_directionENS1_14DirectionalityE @520
    _ZN2v88internal10JumpTarget16AddReachingFrameEPNS0_12VirtualFrameE @521
    _ZN2v88internal10JumpTarget17ComputeEntryFrameEv @522
    _ZN2v88internal10JumpTarget24compiling_deferred_code_E @523 DATA
    _ZN2v88internal10JumpTarget4BindEPNS0_6ResultE @524
    _ZN2v88internal10JumpTarget4BindEPNS0_6ResultES3_ @525
    _ZN2v88internal10JumpTarget4BindEv @526
    _ZN2v88internal10JumpTarget4CallEv @527
    _ZN2v88internal10JumpTarget4JumpEPNS0_6ResultE @528
    _ZN2v88internal10JumpTarget4JumpEv @529
    _ZN2v88internal10JumpTarget5UnuseEv @530
    _ZN2v88internal10JumpTarget6BranchENS0_9ConditionENS0_4HintE @531
    _ZN2v88internal10JumpTarget6BranchENS0_9ConditionEPNS0_6ResultENS0_4HintE @532
    _ZN2v88internal10JumpTarget6BranchENS0_9ConditionEPNS0_6ResultES4_NS0_4HintE @533
    _ZN2v88internal10JumpTarget6DoBindEv @534
    _ZN2v88internal10JumpTarget6DoJumpEv @535
    _ZN2v88internal10JumpTarget8DoBranchENS0_9ConditionENS0_4HintE @536
    _ZN2v88internal10JumpTargetD0Ev @537
    _ZN2v88internal10JumpTargetD1Ev @538
    _ZN2v88internal10LAllocator10GetLastGapEPNS0_11HBasicBlockE @539
    _ZN2v88internal10LAllocator10SpillAfterEPNS0_9LiveRangeENS0_16LifetimePositionE @540
    _ZN2v88internal10LAllocator10TraceAllocEPKcz @541
    _ZN2v88internal10LAllocator11AddToActiveEPNS0_9LiveRangeE @542
    _ZN2v88internal10LAllocator11ResolvePhisEPNS0_11HBasicBlockE @543
    _ZN2v88internal10LAllocator11ResolvePhisEv @544
    _ZN2v88internal10LAllocator12LiveRangeForEPNS0_8LOperandE @545
    _ZN2v88internal10LAllocator12LiveRangeForEi @546
    _ZN2v88internal10LAllocator12RegisterNameEi @547
    _ZN2v88internal10LAllocator12SpillBetweenEPNS0_9LiveRangeENS0_16LifetimePositionES4_ @548
    _ZN2v88internal10LAllocator12SplitBetweenEPNS0_9LiveRangeENS0_16LifetimePositionES4_ @549
    _ZN2v88internal10LAllocator13AddToInactiveEPNS0_9LiveRangeE @550
    _ZN2v88internal10LAllocator13AllocateFixedEPNS0_12LUnallocatedEib @551
    _ZN2v88internal10LAllocator13ConnectRangesEv @552
    _ZN2v88internal10LAllocator13FreeSpillSlotEPNS0_9LiveRangeE @553
    _ZN2v88internal10LAllocator13SortUnhandledEv @554
    _ZN2v88internal10LAllocator14ComputeLiveOutEPNS0_11HBasicBlockE @555
    _ZN2v88internal10LAllocator15ActiveToHandledEPNS0_9LiveRangeE @556
    _ZN2v88internal10LAllocator15BuildLiveRangesEv @557
    _ZN2v88internal10LAllocator15IsBlockBoundaryENS0_16LifetimePositionE @558
    _ZN2v88internal10LAllocator15ProcessOsrEntryEv @559
    _ZN2v88internal10LAllocator15RecordTemporaryEPNS0_12LUnallocatedE @560
    _ZN2v88internal10LAllocator16ActiveToInactiveEPNS0_9LiveRangeE @561
    _ZN2v88internal10LAllocator16InactiveToActiveEPNS0_9LiveRangeE @562
    _ZN2v88internal10LAllocator16RecordDefinitionEPNS0_12HInstructionEPNS0_12LUnallocatedE @563
    _ZN2v88internal10LAllocator17AllocateRegistersEv @564
    _ZN2v88internal10LAllocator17FixedLiveRangeForEi @565
    _ZN2v88internal10LAllocator17InactiveToHandledEPNS0_9LiveRangeE @566
    _ZN2v88internal10LAllocator17TryReuseSpillSlotEPNS0_9LiveRangeE @567
    _ZN2v88internal10LAllocator17UnhandledIsSortedEv @568
    _ZN2v88internal10LAllocator18AllocateBlockedRegEPNS0_9LiveRangeE @569
    _ZN2v88internal10LAllocator18ResolveControlFlowEPNS0_9LiveRangeEPNS0_11HBasicBlockES5_ @570
    _ZN2v88internal10LAllocator18ResolveControlFlowEv @571
    _ZN2v88internal10LAllocator18TryAllocateFreeRegEPNS0_9LiveRangeE @572
    _ZN2v88internal10LAllocator19AddInitialIntervalsEPNS0_11HBasicBlockEPNS0_9BitVectorE @573
    _ZN2v88internal10LAllocator19FindOptimalSplitPosENS0_16LifetimePositionES2_ @574
    _ZN2v88internal10LAllocator19PopulatePointerMapsEv @575
    _ZN2v88internal10LAllocator19ProcessInstructionsEPNS0_11HBasicBlockEPNS0_9BitVectorE @576
    _ZN2v88internal10LAllocator20AddToUnhandledSortedEPNS0_9LiveRangeE @577
    _ZN2v88internal10LAllocator21AddConstraintsGapMoveEiPNS0_8LOperandES3_ @578
    _ZN2v88internal10LAllocator21max_initial_value_idsEv @579
    _ZN2v88internal10LAllocator22AddToUnhandledUnsortedEPNS0_9LiveRangeE @580
    _ZN2v88internal10LAllocator22FixedDoubleLiveRangeIDEi @581
    _ZN2v88internal10LAllocator22MeetConstraintsBetweenEPNS0_12LInstructionES3_i @582
    _ZN2v88internal10LAllocator23AllocateDoubleRegistersEv @583
    _ZN2v88internal10LAllocator23FixedDoubleLiveRangeForEi @584
    _ZN2v88internal10LAllocator23MeetRegisterConstraintsEPNS0_11HBasicBlockE @585
    _ZN2v88internal10LAllocator23MeetRegisterConstraintsEv @586
    _ZN2v88internal10LAllocator24AllocateGeneralRegistersEv @587
    _ZN2v88internal10LAllocator25GetConnectingParallelMoveENS0_16LifetimePositionE @588
    _ZN2v88internal10LAllocator25SplitAndSpillIntersectingEPNS0_9LiveRangeE @589
    _ZN2v88internal10LAllocator26InitializeLivenessAnalysisEv @590
    _ZN2v88internal10LAllocator3UseENS0_16LifetimePositionES2_PNS0_8LOperandES4_ @591
    _ZN2v88internal10LAllocator5SetupEv @592
    _ZN2v88internal10LAllocator5SpillEPNS0_9LiveRangeE @593
    _ZN2v88internal10LAllocator6DefineENS0_16LifetimePositionEPNS0_8LOperandES4_ @594
    _ZN2v88internal10LAllocator7SplitAtEPNS0_9LiveRangeENS0_16LifetimePositionE @595
    _ZN2v88internal10LAllocator8AllocateEPNS0_6LChunkE @596
    _ZN2v88internal10LAllocator8GetBlockENS0_16LifetimePositionE @597
    _ZN2v88internal10LAllocator9RecordUseEPNS0_6HValueEPNS0_12LUnallocatedE @598
    _ZN2v88internal10LCallKeyed11PrintDataToEPNS0_12StringStreamE @599
    _ZN2v88internal10LCallKeyed15CompileToNativeEPNS0_8LCodeGenE @600
    _ZN2v88internal10LCallKeyedD0Ev @601
    _ZN2v88internal10LCallKeyedD1Ev @602
    _ZN2v88internal10LCallNamed11PrintDataToEPNS0_12StringStreamE @603
    _ZN2v88internal10LCallNamed15CompileToNativeEPNS0_8LCodeGenE @604
    _ZN2v88internal10LCallNamedD0Ev @605
    _ZN2v88internal10LCallNamedD1Ev @606
    _ZN2v88internal10LConstantD15CompileToNativeEPNS0_8LCodeGenE @607
    _ZN2v88internal10LConstantDD0Ev @608
    _ZN2v88internal10LConstantDD1Ev @609
    _ZN2v88internal10LConstantI15CompileToNativeEPNS0_8LCodeGenE @610
    _ZN2v88internal10LConstantID0Ev @611
    _ZN2v88internal10LConstantID1Ev @612
    _ZN2v88internal10LConstantT15CompileToNativeEPNS0_8LCodeGenE @613
    _ZN2v88internal10LConstantTD0Ev @614
    _ZN2v88internal10LConstantTD1Ev @615
    _ZN2v88internal10LDoubleToI15CompileToNativeEPNS0_8LCodeGenE @616
    _ZN2v88internal10LDoubleToID0Ev @617
    _ZN2v88internal10LDoubleToID1Ev @618
    _ZN2v88internal10LParameter15CompileToNativeEPNS0_8LCodeGenE @619
    _ZN2v88internal10LParameterD0Ev @620
    _ZN2v88internal10LParameterD1Ev @621
    _ZN2v88internal10LStackSlot10SetupCacheEv @622
    _ZN2v88internal10LStackSlot5cacheE @623 DATA
    _ZN2v88internal10LTaggedToI15CompileToNativeEPNS0_8LCodeGenE @624
    _ZN2v88internal10LTaggedToID0Ev @625
    _ZN2v88internal10LTaggedToID1Ev @626
    _ZN2v88internal10MapCompact18MapUpdatingVisitor12VisitPointerEPPNS0_6ObjectE @627
    _ZN2v88internal10MapCompact18MapUpdatingVisitor13VisitPointersEPPNS0_6ObjectES5_ @628
    _ZN2v88internal10MapCompact18MapUpdatingVisitorD0Ev @629
    _ZN2v88internal10MapCompact18MapUpdatingVisitorD1Ev @630
    _ZN2v88internal10MapCompact21map_updating_visitor_E @631 DATA
    _ZN2v88internal10PagedSpace10FindObjectEPh @632
    _ZN2v88internal10PagedSpace12HasBeenSetupEv @633
    _ZN2v88internal10PagedSpace12ReserveSpaceEi @634
    _ZN2v88internal10PagedSpace14EnsureCapacityEi @635
    _ZN2v88internal10PagedSpace17MarkAllPagesCleanEv @636
    _ZN2v88internal10PagedSpace17SetAllocationInfoEPNS0_14AllocationInfoEPNS0_4PageE @637
    _ZN2v88internal10PagedSpace17SlowMCAllocateRawEi @638
    _ZN2v88internal10PagedSpace21MCResetRelocationInfoEv @639
    _ZN2v88internal10PagedSpace21PrepareForMarkCompactEb @640
    _ZN2v88internal10PagedSpace23MCSpaceOffsetForAddressEPh @641
    _ZN2v88internal10PagedSpace26RelinkPageListInChunkOrderEb @642
    _ZN2v88internal10PagedSpace4SizeEv @643
    _ZN2v88internal10PagedSpace5SetupEPhj @644
    _ZN2v88internal10PagedSpace6ExpandEPNS0_4PageE @645
    _ZN2v88internal10PagedSpace6IsUsedEPNS0_4PageE @646
    _ZN2v88internal10PagedSpace6ShrinkEv @647
    _ZN2v88internal10PagedSpace8ContainsEPh @648
    _ZN2v88internal10PagedSpace8TearDownEv @649
    _ZN2v88internal10PagedSpace9FreePagesEPNS0_4PageES3_ @650
    _ZN2v88internal10PagedSpaceC1EiNS0_15AllocationSpaceENS0_13ExecutabilityE @651
    _ZN2v88internal10PagedSpaceC2EiNS0_15AllocationSpaceENS0_13ExecutabilityE @652
    _ZN2v88internal10PagedSpaceD0Ev @653
    _ZN2v88internal10PagedSpaceD1Ev @654
    _ZN2v88internal10PixelArray8SetValueEjPNS0_6ObjectE @655
    _ZN2v88internal10RegExpAtom12AppendToTextEPNS0_10RegExpTextE @656
    _ZN2v88internal10RegExpAtom13IsTextElementEv @657
    _ZN2v88internal10RegExpAtom6AcceptEPNS0_13RegExpVisitorEPv @658
    _ZN2v88internal10RegExpAtom6AsAtomEv @659
    _ZN2v88internal10RegExpAtom6IsAtomEv @660
    _ZN2v88internal10RegExpAtom6ToNodeEPNS0_14RegExpCompilerEPNS0_10RegExpNodeE @661
    _ZN2v88internal10RegExpAtom9max_matchEv @662
    _ZN2v88internal10RegExpAtom9min_matchEv @663
    _ZN2v88internal10RegExpAtomD0Ev @664
    _ZN2v88internal10RegExpAtomD1Ev @665
    _ZN2v88internal10RegExpImpl11AtomCompileENS0_6HandleINS0_8JSRegExpEEENS2_INS0_6StringEEENS3_5FlagsES6_ @666
    _ZN2v88internal10RegExpImpl12IrregexpExecENS0_6HandleINS0_8JSRegExpEEENS2_INS0_6StringEEEiNS2_INS0_7JSArrayEEE @667
    _ZN2v88internal10RegExpImpl15CompileIrregexpENS0_6HandleINS0_8JSRegExpEEEb @668
    _ZN2v88internal10RegExpImpl15IrregexpPrepareENS0_6HandleINS0_8JSRegExpEEENS2_INS0_6StringEEE @669
    _ZN2v88internal10RegExpImpl16IrregexpByteCodeEPNS0_10FixedArrayEb @670
    _ZN2v88internal10RegExpImpl16IrregexpExecOnceENS0_6HandleINS0_8JSRegExpEEENS2_INS0_6StringEEEiNS0_6VectorIiEE @671
    _ZN2v88internal10RegExpImpl18IrregexpInitializeENS0_6HandleINS0_8JSRegExpEEENS2_INS0_6StringEEENS3_5FlagsEi @672
    _ZN2v88internal10RegExpImpl18IrregexpNativeCodeEPNS0_10FixedArrayEb @673
    _ZN2v88internal10RegExpImpl19CreateRegExpLiteralENS0_6HandleINS0_10JSFunctionEEENS2_INS0_6StringEEES6_Pb @674
    _ZN2v88internal10RegExpImpl24IrregexpMaxRegisterCountEPNS0_10FixedArrayE @675
    _ZN2v88internal10RegExpImpl24IrregexpNumberOfCapturesEPNS0_10FixedArrayE @676
    _ZN2v88internal10RegExpImpl25IrregexpNumberOfRegistersEPNS0_10FixedArrayE @677
    _ZN2v88internal10RegExpImpl27SetIrregexpMaxRegisterCountEPNS0_10FixedArrayEi @678
    _ZN2v88internal10RegExpImpl4ExecENS0_6HandleINS0_8JSRegExpEEENS2_INS0_6StringEEEiNS2_INS0_7JSArrayEEE @679
    _ZN2v88internal10RegExpImpl7CompileENS0_6HandleINS0_8JSRegExpEEENS2_INS0_6StringEEES6_ @680
    _ZN2v88internal10RegExpImpl8AtomExecENS0_6HandleINS0_8JSRegExpEEENS2_INS0_6StringEEEiNS2_INS0_7JSArrayEEE @681
    _ZN2v88internal10RegExpNode13EnsureSiblingEPNS0_8NodeInfoEPb @682
    _ZN2v88internal10RegExpNode13LimitVersionsEPNS0_14RegExpCompilerEPNS0_5TraceE @683
    _ZN2v88internal10RegExpNode13TryGetSiblingEPNS0_8NodeInfoE @684
    _ZN2v88internal10RegExpNode14EmitQuickCheckEPNS0_14RegExpCompilerEPNS0_5TraceEbPNS0_5LabelEPNS0_17QuickCheckDetailsEb @685
    _ZN2v88internal10RegExpNode17FirstCharacterSetEv @686
    _ZN2v88internal10RegExpNode20GreedyLoopTextLengthEv @687
    _ZN2v88internal10RegExpNode24ComputeFirstCharacterSetEi @688
    _ZN2v88internal10RegExpNodeD0Ev @689
    _ZN2v88internal10RegExpNodeD1Ev @690
    _ZN2v88internal10RegExpNodeD2Ev @691
    _ZN2v88internal10RegExpText12AppendToTextEPS1_ @692
    _ZN2v88internal10RegExpText13IsTextElementEv @693
    _ZN2v88internal10RegExpText6AcceptEPNS0_13RegExpVisitorEPv @694
    _ZN2v88internal10RegExpText6AsTextEv @695
    _ZN2v88internal10RegExpText6IsTextEv @696
    _ZN2v88internal10RegExpText6ToNodeEPNS0_14RegExpCompilerEPNS0_10RegExpNodeE @697
    _ZN2v88internal10RegExpText9max_matchEv @698
    _ZN2v88internal10RegExpText9min_matchEv @699
    _ZN2v88internal10RegExpTextD0Ev @700
    _ZN2v88internal10RegExpTextD1Ev @701
    _ZN2v88internal10RegExpTree11AsAssertionEv @702
    _ZN2v88internal10RegExpTree11AsLookaheadEv @703
    _ZN2v88internal10RegExpTree11IsAssertionEv @704
    _ZN2v88internal10RegExpTree11IsLookaheadEv @705
    _ZN2v88internal10RegExpTree12AppendToTextEPNS0_10RegExpTextE @706
    _ZN2v88internal10RegExpTree12AsQuantifierEv @707
    _ZN2v88internal10RegExpTree12IsQuantifierEv @708
    _ZN2v88internal10RegExpTree13AsAlternativeEv @709
    _ZN2v88internal10RegExpTree13AsDisjunctionEv @710
    _ZN2v88internal10RegExpTree13IsAlternativeEv @711
    _ZN2v88internal10RegExpTree13IsDisjunctionEv @712
    _ZN2v88internal10RegExpTree13IsTextElementEv @713
    _ZN2v88internal10RegExpTree15AsBackReferenceEv @714
    _ZN2v88internal10RegExpTree15IsAnchoredAtEndEv @715
    _ZN2v88internal10RegExpTree15IsBackReferenceEv @716
    _ZN2v88internal10RegExpTree16AsCharacterClassEv @717
    _ZN2v88internal10RegExpTree16CaptureRegistersEv @718
    _ZN2v88internal10RegExpTree16IsCharacterClassEv @719
    _ZN2v88internal10RegExpTree17IsAnchoredAtStartEv @720
    _ZN2v88internal10RegExpTree6AsAtomEv @721
    _ZN2v88internal10RegExpTree6AsTextEv @722
    _ZN2v88internal10RegExpTree6IsAtomEv @723
    _ZN2v88internal10RegExpTree6IsTextEv @724
    _ZN2v88internal10RegExpTree7AsEmptyEv @725
    _ZN2v88internal10RegExpTree7IsEmptyEv @726
    _ZN2v88internal10RegExpTree8ToStringEv @727
    _ZN2v88internal10RegExpTree9AsCaptureEv @728
    _ZN2v88internal10RegExpTree9IsCaptureEv @729
    _ZN2v88internal10RegExpTreeD0Ev @730
    _ZN2v88internal10RegExpTreeD1Ev @731
    _ZN2v88internal10Serializer13SpaceOfObjectEPNS0_10HeapObjectE @732
    _ZN2v88internal10Serializer13VisitPointersEPPNS0_6ObjectES4_ @733
    _ZN2v88internal10Serializer16ObjectSerializer13OutputRawDataEPh @734
    _ZN2v88internal10Serializer16ObjectSerializer13VisitPointersEPPNS0_6ObjectES5_ @735
    _ZN2v88internal10Serializer16ObjectSerializer14VisitCodeEntryEPh @736
    _ZN2v88internal10Serializer16ObjectSerializer15VisitCodeTargetEPNS0_9RelocInfoE @737
    _ZN2v88internal10Serializer16ObjectSerializer17VisitRuntimeEntryEPNS0_9RelocInfoE @738
    _ZN2v88internal10Serializer16ObjectSerializer23VisitExternalReferencesEPPhS4_ @739
    _ZN2v88internal10Serializer16ObjectSerializer23VisitGlobalPropertyCellEPNS0_9RelocInfoE @740
    _ZN2v88internal10Serializer16ObjectSerializer24VisitExternalAsciiStringEPPNS_6String27ExternalAsciiStringResourceE @741
    _ZN2v88internal10Serializer16ObjectSerializer26VisitExternalTwoByteStringEPPNS_6String22ExternalStringResourceE @742
    _ZN2v88internal10Serializer16ObjectSerializer9SerializeEv @743
    _ZN2v88internal10Serializer16ObjectSerializerD0Ev @744
    _ZN2v88internal10Serializer16ObjectSerializerD1Ev @745
    _ZN2v88internal10Serializer22serialization_enabled_E @746 DATA
    _ZN2v88internal10Serializer23too_late_to_enable_now_E @747 DATA
    _ZN2v88internal10Serializer30SpaceOfAlreadySerializedObjectEPNS0_10HeapObjectE @748
    _ZN2v88internal10Serializer34SerializeReferenceToPreviousObjectEiiNS0_22SerializerDeserializer9HowToCodeENS2_12WhereToPointE @749
    _ZN2v88internal10Serializer8AllocateEiiPb @750
    _ZN2v88internal10SerializerC1EPNS0_16SnapshotByteSinkE @751
    _ZN2v88internal10SerializerC2EPNS0_16SnapshotByteSinkE @752
    _ZN2v88internal10SerializerD0Ev @753
    _ZN2v88internal10SerializerD1Ev @754
    _ZN2v88internal10SerializerD2Ev @755
    _ZN2v88internal10SetElementENS0_6HandleINS0_8JSObjectEEEjNS1_INS0_6ObjectEEE @756
    _ZN2v88internal10StackFrame10PrintIndexEPNS0_12StringStreamENS1_9PrintModeEi @757
    _ZN2v88internal10StackFrame11ComputeTypeEPNS1_5StateE @758
    _ZN2v88internal10StackFrame16GetSafepointDataEPhPNS0_14SafepointEntryEPj @759
    _ZN2v88internal10StackFrame9IteratePcEPNS0_13ObjectVisitorEPPhPNS0_4CodeE @760
    _ZN2v88internal10StackFrameD0Ev @761
    _ZN2v88internal10StackFrameD1Ev @762
    _ZN2v88internal10StackGuard10DebugBreakEv @763
    _ZN2v88internal10StackGuard10InitThreadERKNS0_15ExecutionAccessE @764
    _ZN2v88internal10StackGuard11ClearThreadERKNS0_15ExecutionAccessE @765
    _ZN2v88internal10StackGuard11IsPreemptedEv @766
    _ZN2v88internal10StackGuard11ThreadLocal10InitializeEv @767
    _ZN2v88internal10StackGuard11ThreadLocal5ClearEv @768
    _ZN2v88internal10StackGuard12DebugCommandEv @769
    _ZN2v88internal10StackGuard12IsDebugBreakEv @770
    _ZN2v88internal10StackGuard13IsInterruptedEv @771
    _ZN2v88internal10StackGuard13SetStackLimitEj @772
    _ZN2v88internal10StackGuard13thread_local_E @773 DATA
    _ZN2v88internal10StackGuard14IsDebugCommandEv @774
    _ZN2v88internal10StackGuard15IsStackOverflowEv @775
    _ZN2v88internal10StackGuard16EnableInterruptsEv @776
    _ZN2v88internal10StackGuard17ArchiveStackGuardEPc @777
    _ZN2v88internal10StackGuard17DisableInterruptsEv @778
    _ZN2v88internal10StackGuard17RestoreStackGuardEPc @779
    _ZN2v88internal10StackGuard18TerminateExecutionEv @780
    _ZN2v88internal10StackGuard19FreeThreadResourcesEv @781
    _ZN2v88internal10StackGuard20IsTerminateExecutionEv @782
    _ZN2v88internal10StackGuard21ArchiveSpacePerThreadEv @783
    _ZN2v88internal10StackGuard21IsRuntimeProfilerTickEv @784
    _ZN2v88internal10StackGuard26RequestRuntimeProfilerTickEv @785
    _ZN2v88internal10StackGuard7PreemptEv @786
    _ZN2v88internal10StackGuard8ContinueENS0_13InterruptFlagE @787
    _ZN2v88internal10StackGuard9InterruptEv @788
    _ZN2v88internal10StaticType11Type2StringEPS1_ @789
    _ZN2v88internal10StatsTable16lookup_function_E @790 DATA
    _ZN2v88internal10StatsTable26create_histogram_function_E @791 DATA
    _ZN2v88internal10StatsTable30add_histogram_sample_function_E @792 DATA
    _ZN2v88internal10SymbolsKey13HashForObjectEPNS0_6ObjectE @793
    _ZN2v88internal10SymbolsKey4HashEv @794
    _ZN2v88internal10SymbolsKey7IsMatchEPNS0_6ObjectE @795
    _ZN2v88internal10SymbolsKey8AsObjectEv @796
    _ZN2v88internal10SymbolsKeyD0Ev @797
    _ZN2v88internal10SymbolsKeyD1Ev @798
    _ZN2v88internal10WriteBytesEPKcPKhib @799
    _ZN2v88internal10WriteCharsEPKcS2_ib @800
    _ZN2v88internal11AppendCharsEPKcS2_ib @801
    _ZN2v88internal11BreakTarget13set_directionENS0_10JumpTarget14DirectionalityE @802
    _ZN2v88internal11BreakTarget4BindEPNS0_6ResultE @803
    _ZN2v88internal11BreakTarget4BindEv @804
    _ZN2v88internal11BreakTarget4JumpEPNS0_6ResultE @805
    _ZN2v88internal11BreakTarget4JumpEv @806
    _ZN2v88internal11BreakTarget6BranchENS0_9ConditionENS0_4HintE @807
    _ZN2v88internal11BreakTarget6BranchENS0_9ConditionEPNS0_6ResultENS0_4HintE @808
    _ZN2v88internal11BreakTarget6CopyToEPS1_ @809
    _ZN2v88internal11BreakTargetD0Ev @810
    _ZN2v88internal11BreakTargetD1Ev @811
    _ZN2v88internal11CallIC_MissENS0_9ArgumentsE @812
    _ZN2v88internal11CallRuntime13AsCallRuntimeEv @813
    _ZN2v88internal11CallRuntime6AcceptEPNS0_10AstVisitorE @814
    _ZN2v88internal11CallRuntimeD0Ev @815
    _ZN2v88internal11CallRuntimeD1Ev @816
    _ZN2v88internal11CodePatcherC1EPhi @817
    _ZN2v88internal11CodePatcherC2EPhi @818
    _ZN2v88internal11CodePatcherD0Ev @819
    _ZN2v88internal11CodePatcherD1Ev @820
    _ZN2v88internal11CodePatcherD2Ev @821
    _ZN2v88internal11CompareStub10FinishCodeEPNS0_4CodeE @822
    _ZN2v88internal11CompareStub11GetCodeKindEv @823
    _ZN2v88internal11CompareStub17BranchIfNonSymbolEPNS0_14MacroAssemblerEPNS0_5LabelENS0_8RegisterES6_ @824
    _ZN2v88internal11CompareStub7GetNameEv @825
    _ZN2v88internal11CompareStub8GenerateEPNS0_14MacroAssemblerE @826
    _ZN2v88internal11CompareStub8MajorKeyEv @827
    _ZN2v88internal11CompareStub8MinorKeyEv @828
    _ZN2v88internal11CompareStubD0Ev @829
    _ZN2v88internal11CompareStubD1Ev @830
    _ZN2v88internal11CompileLazyENS0_6HandleINS0_10JSFunctionEEENS0_18ClearExceptionFlagE @831
    _ZN2v88internal11Conditional13AsConditionalEv @832
    _ZN2v88internal11Conditional6AcceptEPNS0_10AstVisitorE @833
    _ZN2v88internal11ConditionalD0Ev @834
    _ZN2v88internal11ConditionalD1Ev @835
    _ZN2v88internal11CpuFeatures10supported_E @836 DATA
    _ZN2v88internal11CpuFeatures25found_by_runtime_probing_E @837 DATA
    _ZN2v88internal11CpuFeatures5ProbeEb @838
    _ZN2v88internal11CpuFeatures8enabled_E @839 DATA
    _ZN2v88internal11CpuProfiler10GetProfileEPNS0_6ObjectEi @840
    _ZN2v88internal11CpuProfiler10singleton_E @841 DATA
    _ZN2v88internal11CpuProfiler11FindProfileEPNS0_6ObjectEj @842
    _ZN2v88internal11CpuProfiler12SFIMoveEventEPhS2_ @843
    _ZN2v88internal11CpuProfiler13CallbackEventEPNS0_6StringEPh @844
    _ZN2v88internal11CpuProfiler13CodeMoveEventEPhS2_ @845
    _ZN2v88internal11CpuProfiler13StopProfilingEPKc @846
    _ZN2v88internal11CpuProfiler13StopProfilingEPNS0_6ObjectEPNS0_6StringE @847
    _ZN2v88internal11CpuProfiler13is_profiling_E @848 DATA
    _ZN2v88internal11CpuProfiler14StartProfilingEPKc @849
    _ZN2v88internal11CpuProfiler14StartProfilingEPNS0_6StringE @850
    _ZN2v88internal11CpuProfiler15CodeCreateEventENS0_6Logger16LogEventsAndTagsEPNS0_4CodeEPKc @851
    _ZN2v88internal11CpuProfiler15CodeCreateEventENS0_6Logger16LogEventsAndTagsEPNS0_4CodeEPNS0_18SharedFunctionInfoEPNS0_6StringE @852
    _ZN2v88internal11CpuProfiler15CodeCreateEventENS0_6Logger16LogEventsAndTagsEPNS0_4CodeEPNS0_18SharedFunctionInfoEPNS0_6StringEi @853
    _ZN2v88internal11CpuProfiler15CodeCreateEventENS0_6Logger16LogEventsAndTagsEPNS0_4CodeEPNS0_6StringE @854
    _ZN2v88internal11CpuProfiler15CodeCreateEventENS0_6Logger16LogEventsAndTagsEPNS0_4CodeEi @855
    _ZN2v88internal11CpuProfiler15CodeDeleteEventEPh @856
    _ZN2v88internal11CpuProfiler15TickSampleEventEv @857
    _ZN2v88internal11CpuProfiler16GetProfilesCountEv @858
    _ZN2v88internal11CpuProfiler19GetterCallbackEventEPNS0_6StringEPh @859
    _ZN2v88internal11CpuProfiler19SetterCallbackEventEPNS0_6StringEPh @860
    _ZN2v88internal11CpuProfiler21RegExpCodeCreateEventEPNS0_4CodeEPNS0_6StringE @861
    _ZN2v88internal11CpuProfiler21StopCollectingProfileEPKc @862
    _ZN2v88internal11CpuProfiler21StopCollectingProfileEPNS0_6ObjectEPNS0_6StringE @863
    _ZN2v88internal11CpuProfiler22StartCollectingProfileEPKc @864
    _ZN2v88internal11CpuProfiler22StartCollectingProfileEPNS0_6StringE @865
    _ZN2v88internal11CpuProfiler26StartProcessorIfNotStartedEv @866
    _ZN2v88internal11CpuProfiler26StopProcessorIfLastProfileEPKc @867
    _ZN2v88internal11CpuProfiler5SetupEv @868
    _ZN2v88internal11CpuProfiler8TearDownEv @869
    _ZN2v88internal11CpuProfilerC1Ev @870
    _ZN2v88internal11CpuProfilerC2Ev @871
    _ZN2v88internal11CpuProfilerD1Ev @872
    _ZN2v88internal11CpuProfilerD2Ev @873
    _ZN2v88internal11CygwinMutex4LockEv @874
    _ZN2v88internal11CygwinMutex6UnlockEv @875
    _ZN2v88internal11CygwinMutex7TryLockEv @876
    _ZN2v88internal11CygwinMutexD0Ev @877
    _ZN2v88internal11CygwinMutexD1Ev @878
    _ZN2v88internal11Declaration13AsDeclarationEv @879
    _ZN2v88internal11Declaration6AcceptEPNS0_10AstVisitorE @880
    _ZN2v88internal11DeclarationD0Ev @881
    _ZN2v88internal11DeclarationD1Ev @882
    _ZN2v88internal11Deoptimizer10CreateCodeENS1_11BailoutTypeE @883
    _ZN2v88internal11Deoptimizer10patch_sizeEv @884
    _ZN2v88internal11Deoptimizer13DeoptimizeAllEv @885
    _ZN2v88internal11Deoptimizer13GetOutputInfoEPNS0_24DeoptimizationOutputDataEjPNS0_18SharedFunctionInfoE @886
    _ZN2v88internal11Deoptimizer14AddDoubleValueEid @887
    _ZN2v88internal11Deoptimizer14DoComputeFrameEPNS0_19TranslationIteratorEi @888
    _ZN2v88internal11Deoptimizer14EntryGenerator16GeneratePrologueEv @889
    _ZN2v88internal11Deoptimizer14EntryGenerator8GenerateEv @890
    _ZN2v88internal11Deoptimizer14EntryGeneratorD0Ev @891
    _ZN2v88internal11Deoptimizer14EntryGeneratorD1Ev @892
    _ZN2v88internal11Deoptimizer17table_entry_size_E @893 DATA
    _ZN2v88internal11Deoptimizer18DeoptimizeFunctionEPNS0_10JSFunctionE @894
    _ZN2v88internal11Deoptimizer18DoTranslateCommandEPNS0_19TranslationIteratorEij @895
    _ZN2v88internal11Deoptimizer19ComputeOutputFramesEPS1_ @896
    _ZN2v88internal11Deoptimizer19GetDeoptimizationIdEPhNS1_11BailoutTypeE @897
    _ZN2v88internal11Deoptimizer19PatchStackCheckCodeEPNS0_4CodeES3_S3_ @898
    _ZN2v88internal11Deoptimizer19TableEntryGenerator16GeneratePrologueEv @899
    _ZN2v88internal11Deoptimizer19TableEntryGeneratorD0Ev @900
    _ZN2v88internal11Deoptimizer19TableEntryGeneratorD1Ev @901
    _ZN2v88internal11Deoptimizer20RevertStackCheckCodeEPNS0_4CodeES3_S3_ @902
    _ZN2v88internal11Deoptimizer21DoComputeOutputFramesEv @903
    _ZN2v88internal11Deoptimizer21DoOsrTranslateCommandEPNS0_19TranslationIteratorEPi @904
    _ZN2v88internal11Deoptimizer21PatchStackCheckCodeAtEPhPNS0_4CodeES4_ @905
    _ZN2v88internal11Deoptimizer22DeoptimizeGlobalObjectEPNS0_8JSObjectE @906
    _ZN2v88internal11Deoptimizer22GetDeoptimizationEntryEiNS1_11BailoutTypeE @907
    _ZN2v88internal11Deoptimizer22MaterializeHeapNumbersEv @908
    _ZN2v88internal11Deoptimizer22RemoveDeoptimizingCodeEPNS0_4CodeE @909
    _ZN2v88internal11Deoptimizer22RevertStackCheckCodeAtEPhPNS0_4CodeES4_ @910
    _ZN2v88internal11Deoptimizer23DeleteFrameDescriptionsEv @911
    _ZN2v88internal11Deoptimizer23DoComputeOsrOutputFrameEv @912
    _ZN2v88internal11Deoptimizer23GetDeoptimizedCodeCountEv @913
    _ZN2v88internal11Deoptimizer23deoptimizing_code_list_E @914 DATA
    _ZN2v88internal11Deoptimizer25HandleWeakDeoptimizedCodeENS_10PersistentINS_5ValueEEEPv @915
    _ZN2v88internal11Deoptimizer26VisitAllOptimizedFunctionsEPNS0_24OptimizedFunctionVisitorE @916
    _ZN2v88internal11Deoptimizer29GenerateDeoptimizationEntriesEPNS0_14MacroAssemblerEiNS1_11BailoutTypeE @917
    _ZN2v88internal11Deoptimizer31FindDeoptimizingCodeFromAddressEPh @918
    _ZN2v88internal11Deoptimizer31lazy_deoptimization_entry_code_E @919 DATA
    _ZN2v88internal11Deoptimizer32eager_deoptimization_entry_code_E @920 DATA
    _ZN2v88internal11Deoptimizer36VisitAllOptimizedFunctionsForContextEPNS0_7ContextEPNS0_24OptimizedFunctionVisitorE @921
    _ZN2v88internal11Deoptimizer37EnsureRelocSpaceForLazyDeoptimizationENS0_6HandleINS0_4CodeEEE @922
    _ZN2v88internal11Deoptimizer3NewEPNS0_10JSFunctionENS1_11BailoutTypeEjPhi @923
    _ZN2v88internal11Deoptimizer41VisitAllOptimizedFunctionsForGlobalObjectEPNS0_8JSObjectEPNS0_24OptimizedFunctionVisitorE @924
    _ZN2v88internal11Deoptimizer4GrabEv @925
    _ZN2v88internal11Deoptimizer5SetupEv @926
    _ZN2v88internal11Deoptimizer8TearDownEv @927
    _ZN2v88internal11Deoptimizer8current_E @928 DATA
    _ZN2v88internal11DeoptimizerC1EPNS0_10JSFunctionENS1_11BailoutTypeEjPhi @929
    _ZN2v88internal11DeoptimizerC2EPNS0_10JSFunctionENS1_11BailoutTypeEjPhi @930
    _ZN2v88internal11DeoptimizerD1Ev @931
    _ZN2v88internal11DeoptimizerD2Ev @932
    _ZN2v88internal11Differencer15CompareUpToTailEii @933
    _ZN2v88internal11FLAG_gdbjitE @934 DATA
    _ZN2v88internal11FLAG_log_gcE @935 DATA
    _ZN2v88internal11FLAG_strictE @936 DATA
    _ZN2v88internal11FLAG_use_icE @937 DATA
    _ZN2v88internal11GCExtension17GetNativeFunctionENS_6HandleINS_6StringEEE @938
    _ZN2v88internal11GCExtension2GCERKNS_9ArgumentsE @939
    _ZN2v88internal11GCExtension7kSourceE @940 DATA
    _ZN2v88internal11GCExtension8RegisterEv @941
    _ZN2v88internal11GCExtensionD0Ev @942
    _ZN2v88internal11GCExtensionD1Ev @943
    _ZN2v88internal11GetPropertyENS0_6HandleINS0_6ObjectEEES3_ @944
    _ZN2v88internal11GetPropertyENS0_6HandleINS0_8JSObjectEEEPKc @945
    _ZN2v88internal11HBasicBlock10FinishExitEPNS0_19HControlInstructionE @946
    _ZN2v88internal11HBasicBlock14AddInstructionEPNS0_12HInstructionE @947
    _ZN2v88internal11HBasicBlock14CreateSimulateEi @948
    _ZN2v88internal11HBasicBlock15AddLeaveInlinedEPNS0_6HValueEPS1_ @949
    _ZN2v88internal11HBasicBlock16CreateDeoptimizeEv @950
    _ZN2v88internal11HBasicBlock17AddDominatedBlockEPS1_ @951
    _ZN2v88internal11HBasicBlock19RegisterPredecessorEPS1_ @952
    _ZN2v88internal11HBasicBlock21AssignCommonDominatorEPS1_ @953
    _ZN2v88internal11HBasicBlock21AttachLoopInformationEv @954
    _ZN2v88internal11HBasicBlock21DetachLoopInformationEv @955
    _ZN2v88internal11HBasicBlock21PostProcessLoopHeaderEPNS0_18IterationStatementE @956
    _ZN2v88internal11HBasicBlock21SetInitialEnvironmentEPNS0_12HEnvironmentE @957
    _ZN2v88internal11HBasicBlock28FinishExitWithDeoptimizationEv @958
    _ZN2v88internal11HBasicBlock4GotoEPS1_b @959
    _ZN2v88internal11HBasicBlock6AddPhiEPNS0_4HPhiE @960
    _ZN2v88internal11HBasicBlock6FinishEPNS0_19HControlInstructionE @961
    _ZN2v88internal11HBasicBlock9RemovePhiEPNS0_4HPhiE @962
    _ZN2v88internal11HBasicBlock9SetJoinIdEi @963
    _ZN2v88internal11HBasicBlockC1EPNS0_6HGraphE @964
    _ZN2v88internal11HBasicBlockC2EPNS0_6HGraphE @965
    _ZN2v88internal11HBasicBlockD0Ev @966
    _ZN2v88internal11HBasicBlockD1Ev @967
    _ZN2v88internal11HBinaryCall11PrintDataToEPNS0_12StringStreamE @968
    _ZN2v88internal11HBinaryCallC2EPNS0_6HValueES3_i @969
    _ZN2v88internal11HBinaryCallD0Ev @970
    _ZN2v88internal11HBinaryCallD1Ev @971
    _ZN2v88internal11HBlockEntry16CompileToLithiumEPNS0_13LChunkBuilderE @972
    _ZN2v88internal11HBlockEntryD0Ev @973
    _ZN2v88internal11HBlockEntryD1Ev @974
    _ZN2v88internal11HCallGlobal11PrintDataToEPNS0_12StringStreamE @975
    _ZN2v88internal11HCallGlobal16CompileToLithiumEPNS0_13LChunkBuilderE @976
    _ZN2v88internal11HCallGlobalD0Ev @977
    _ZN2v88internal11HCallGlobalD1Ev @978
    _ZN2v88internal11HCompareMap11PrintDataToEPNS0_12StringStreamE @979
    _ZN2v88internal11HCompareMap16CompileToLithiumEPNS0_13LChunkBuilderE @980
    _ZN2v88internal11HCompareMapD0Ev @981
    _ZN2v88internal11HCompareMapD1Ev @982
    _ZN2v88internal11HDeoptimize12OperandCountEv @983
    _ZN2v88internal11HDeoptimize16CompileToLithiumEPNS0_13LChunkBuilderE @984
    _ZN2v88internal11HDeoptimize20InternalSetOperandAtEiPNS0_6HValueE @985
    _ZN2v88internal11HDeoptimize9OperandAtEi @986
    _ZN2v88internal11HDeoptimizeD0Ev @987
    _ZN2v88internal11HDeoptimizeD1Ev @988
    _ZN2v88internal11HInstanceOf11PrintDataToEPNS0_12StringStreamE @989
    _ZN2v88internal11HInstanceOf16CompileToLithiumEPNS0_13LChunkBuilderE @990
    _ZN2v88internal11HInstanceOfC1EPNS0_6HValueES3_S3_ @991
    _ZN2v88internal11HInstanceOfD0Ev @992
    _ZN2v88internal11HInstanceOfD1Ev @993
    _ZN2v88internal11HLoadGlobal10DataEqualsEPNS0_6HValueE @994
    _ZN2v88internal11HLoadGlobal11PrintDataToEPNS0_12StringStreamE @995
    _ZN2v88internal11HLoadGlobal16CompileToLithiumEPNS0_13LChunkBuilderE @996
    _ZN2v88internal11HLoadGlobal8HashcodeEv @997
    _ZN2v88internal11HLoadGlobalD0Ev @998
    _ZN2v88internal11HLoadGlobalD1Ev @999
    _ZN2v88internal11HStackCheck16CompileToLithiumEPNS0_13LChunkBuilderE @1000
    _ZN2v88internal11HStackCheckD0Ev @1001
    _ZN2v88internal11HStackCheckD1Ev @1002
    _ZN2v88internal11HStatistics10SaveTimingEPKcxj @1003
    _ZN2v88internal11HStatistics5PrintEv @1004
    _ZN2v88internal11HandleScope10CloseScopeEv @1005
    _ZN2v88internal11HandleScope12CreateHandleINS0_10JSFunctionEEEPPT_S5_ @1006
    _ZN2v88internal11HandleScope12CreateHandleINS0_12GlobalObjectEEEPPT_S5_ @1007
    _ZN2v88internal11HandleScope12CreateHandleINS0_18SharedFunctionInfoEEEPPT_S5_ @1008
    _ZN2v88internal11HandleScope12CreateHandleINS0_19SerializedScopeInfoEEEPPT_S5_ @1009
    _ZN2v88internal11HandleScope12CreateHandleINS0_4CodeEEEPPT_S5_ @1010
    _ZN2v88internal11HandleScope12CreateHandleINS0_6ObjectEEEPPT_S5_ @1011
    _ZN2v88internal11HandleScope12CreateHandleINS0_6StringEEEPPT_S5_ @1012
    _ZN2v88internal11HandleScope12CreateHandleINS0_7ContextEEEPPT_S5_ @1013
    _ZN2v88internal11HandleScope12CreateHandleINS0_8JSObjectEEEPPT_S5_ @1014
    _ZN2v88internal11HandleScope15NumberOfHandlesEv @1015
    _ZN2v88internal11HandleScope16DeleteExtensionsEv @1016
    _ZN2v88internal11HandleScope20current_next_addressEv @1017
    _ZN2v88internal11HandleScope21current_level_addressEv @1018
    _ZN2v88internal11HandleScope21current_limit_addressEv @1019
    _ZN2v88internal11HandleScope6ExtendEv @1020
    _ZN2v88internal11HandleScope8ZapRangeEPPNS0_6ObjectES4_ @1021
    _ZN2v88internal11HandleScope8current_E @1022 DATA
    _ZN2v88internal11IfStatement13AsIfStatementEv @1023
    _ZN2v88internal11IfStatement6AcceptEPNS0_10AstVisitorE @1024
    _ZN2v88internal11IfStatementD0Ev @1025
    _ZN2v88internal11IfStatementD1Ev @1026
    _ZN2v88internal11JSArguments4argvEv @1027
    _ZN2v88internal11JSArgumentsC1EiPPKc @1028
    _ZN2v88internal11JSArgumentsC1Ev @1029
    _ZN2v88internal11JSArgumentsC2EiPPKc @1030
    _ZN2v88internal11JSArgumentsC2Ev @1031
    _ZN2v88internal11JSArgumentsaSES1_ @1032
    _ZN2v88internal11JSArgumentsixEi @1033
    _ZN2v88internal11JSEntryStub12GenerateBodyEPNS0_14MacroAssemblerEb @1034
    _ZN2v88internal11JSEntryStub7GetNameEv @1035
    _ZN2v88internal11JSEntryStub8GenerateEPNS0_14MacroAssemblerE @1036
    _ZN2v88internal11JSEntryStub8MajorKeyEv @1037
    _ZN2v88internal11JSEntryStub8MinorKeyEv @1038
    _ZN2v88internal11JSEntryStubD0Ev @1039
    _ZN2v88internal11JSEntryStubD1Ev @1040
    _ZN2v88internal11JsonScanner10InitializeEPNS0_19UC16CharacterStreamE @1041
    _ZN2v88internal11JsonScanner14ScanJsonNumberEv @1042
    _ZN2v88internal11JsonScanner14ScanJsonStringEv @1043
    _ZN2v88internal11JsonScanner18ScanJsonIdentifierEPKcNS0_5Token5ValueE @1044
    _ZN2v88internal11JsonScanner18SkipJsonWhiteSpaceEv @1045
    _ZN2v88internal11JsonScanner4NextEv @1046
    _ZN2v88internal11JsonScanner8ScanJsonEv @1047
    _ZN2v88internal11JsonScannerC1Ev @1048
    _ZN2v88internal11JsonScannerC2Ev @1049
    _ZN2v88internal11KeyedCallIC12GenerateMissEPNS0_14MacroAssemblerEi @1050
    _ZN2v88internal11KeyedCallIC12LoadFunctionENS0_16InlineCacheStateENS0_6HandleINS0_6ObjectEEES5_ @1051
    _ZN2v88internal11KeyedCallIC14GenerateNormalEPNS0_14MacroAssemblerEi @1052
    _ZN2v88internal11KeyedCallIC19GenerateMegamorphicEPNS0_14MacroAssemblerEi @1053
    _ZN2v88internal11KeyedLoadIC12GenerateMissEPNS0_14MacroAssemblerE @1054
    _ZN2v88internal11KeyedLoadIC12UpdateCachesEPNS0_12LookupResultENS0_16InlineCacheStateENS0_6HandleINS0_6ObjectEEENS5_INS0_6StringEEE @1055
    _ZN2v88internal11KeyedLoadIC14GenerateStringEPNS0_14MacroAssemblerE @1056
    _ZN2v88internal11KeyedLoadIC15GenerateGenericEPNS0_14MacroAssemblerE @1057
    _ZN2v88internal11KeyedLoadIC16PatchInlinedLoadEPhPNS0_6ObjectE @1058
    _ZN2v88internal11KeyedLoadIC19ClearInlinedVersionEPh @1059
    _ZN2v88internal11KeyedLoadIC26GenerateIndexedInterceptorEPNS0_14MacroAssemblerE @1060
    _ZN2v88internal11KeyedLoadIC26GenerateRuntimeGetPropertyEPNS0_14MacroAssemblerE @1061
    _ZN2v88internal11KeyedLoadIC4LoadENS0_16InlineCacheStateENS0_6HandleINS0_6ObjectEEES5_ @1062
    _ZN2v88internal11KeyedLoadIC5ClearEPhPNS0_4CodeE @1063
    _ZN2v88internal11LCallGlobal11PrintDataToEPNS0_12StringStreamE @1064
    _ZN2v88internal11LCallGlobal15CompileToNativeEPNS0_8LCodeGenE @1065
    _ZN2v88internal11LCallGlobalD0Ev @1066
    _ZN2v88internal11LCallGlobalD1Ev @1067
    _ZN2v88internal11LDeoptimize15CompileToNativeEPNS0_8LCodeGenE @1068
    _ZN2v88internal11LDeoptimizeD0Ev @1069
    _ZN2v88internal11LDeoptimizeD1Ev @1070
    _ZN2v88internal11LInstanceOf15CompileToNativeEPNS0_8LCodeGenE @1071
    _ZN2v88internal11LInstanceOfD0Ev @1072
    _ZN2v88internal11LInstanceOfD1Ev @1073
    _ZN2v88internal11LLoadGlobal15CompileToNativeEPNS0_8LCodeGenE @1074
    _ZN2v88internal11LLoadGlobalD0Ev @1075
    _ZN2v88internal11LLoadGlobalD1Ev @1076
    _ZN2v88internal11LNumberTagD15CompileToNativeEPNS0_8LCodeGenE @1077
    _ZN2v88internal11LNumberTagDD0Ev @1078
    _ZN2v88internal11LNumberTagDD1Ev @1079
    _ZN2v88internal11LNumberTagI15CompileToNativeEPNS0_8LCodeGenE @1080
    _ZN2v88internal11LNumberTagID0Ev @1081
    _ZN2v88internal11LNumberTagID1Ev @1082
    _ZN2v88internal11LPointerMap13RecordPointerEPNS0_8LOperandE @1083
    _ZN2v88internal11LPointerMap7PrintToEPNS0_12StringStreamE @1084
    _ZN2v88internal11LStackCheck15CompileToNativeEPNS0_8LCodeGenE @1085
    _ZN2v88internal11LStackCheckD0Ev @1086
    _ZN2v88internal11LStackCheckD1Ev @1087
    _ZN2v88internal11LoadIC_MissENS0_9ArgumentsE @1088
    _ZN2v88internal11MapIterator12SizeCallbackEPNS0_10HeapObjectE @1089
    _ZN2v88internal11MapIteratorD0Ev @1090
    _ZN2v88internal11MapIteratorD1Ev @1091
    _ZN2v88internal11MathPowStub7GetNameEv @1092
    _ZN2v88internal11MathPowStub8GenerateEPNS0_14MacroAssemblerE @1093
    _ZN2v88internal11MathPowStub8MajorKeyEv @1094
    _ZN2v88internal11MathPowStub8MinorKeyEv @1095
    _ZN2v88internal11MathPowStubD0Ev @1096
    _ZN2v88internal11MathPowStubD1Ev @1097
    _ZN2v88internal11MessageImpl11NewResponseENS_10DebugEventEbNS0_6HandleINS0_8JSObjectEEES5_NS3_INS0_6StringEEEPNS_5Debug10ClientDataE @1098
    _ZN2v88internal11MessageImpl8NewEventENS_10DebugEventEbNS0_6HandleINS0_8JSObjectEEES5_ @1099
    _ZN2v88internal11MessageImplC1EbNS_10DebugEventEbNS0_6HandleINS0_8JSObjectEEES5_NS3_INS0_6StringEEEPNS_5Debug10ClientDataE @1100
    _ZN2v88internal11MessageImplC2EbNS_10DebugEventEbNS0_6HandleINS0_8JSObjectEEES5_NS3_INS0_6StringEEEPNS_5Debug10ClientDataE @1101
    _ZN2v88internal11MessageImplD0Ev @1102
    _ZN2v88internal11MessageImplD1Ev @1103
    _ZN2v88internal11NodeVisitor15VisitLoopChoiceEPNS0_14LoopChoiceNodeE @1104
    _ZN2v88internal11NodeVisitorD0Ev @1105
    _ZN2v88internal11NodeVisitorD1Ev @1106
    _ZN2v88internal11POSIXSocket15SetReuseAddressEb @1107
    _ZN2v88internal11POSIXSocket4BindEi @1108
    _ZN2v88internal11POSIXSocket7ConnectEPKcS3_ @1109
    _ZN2v88internal11POSIXSocket8ShutdownEv @1110
    _ZN2v88internal11POSIXSocketD0Ev @1111
    _ZN2v88internal11POSIXSocketD1Ev @1112
    _ZN2v88internal11PagedSpaces4nextEv @1113
    _ZN2v88internal11ProfileNode14FindOrAddChildEPNS0_9CodeEntryE @1114
    _ZN2v88internal11ProfileNode16CodeEntriesMatchEPvS2_ @1115
    _ZN2v88internal11ProfileNode5PrintEi @1116
    _ZN2v88internal11ProfileNode9FindChildEPNS0_9CodeEntryE @1117
    _ZN2v88internal11ProfileTree10ShortPrintEv @1118
    _ZN2v88internal11ProfileTree13FilteredCloneEPS1_i @1119
    _ZN2v88internal11ProfileTree14AddPathFromEndERKNS0_6VectorIPNS0_9CodeEntryEEE @1120
    _ZN2v88internal11ProfileTree16AddPathFromStartERKNS0_6VectorIPNS0_9CodeEntryEEE @1121
    _ZN2v88internal11ProfileTree16SetTickRatePerMsEd @1122
    _ZN2v88internal11ProfileTree18TraverseDepthFirstINS0_19DeleteNodesCallbackEEEvPT_ @1123
    _ZN2v88internal11ProfileTree18TraverseDepthFirstINS0_21FilteredCloneCallbackEEEvPT_ @1124
    _ZN2v88internal11ProfileTree18TraverseDepthFirstINS0_27CalculateTotalTicksCallbackEEEvPT_ @1125
    _ZN2v88internal11ProfileTree19CalculateTotalTicksEv @1126
    _ZN2v88internal11ProfileTreeC1Ev @1127
    _ZN2v88internal11ProfileTreeC2Ev @1128
    _ZN2v88internal11ProfileTreeD1Ev @1129
    _ZN2v88internal11ProfileTreeD2Ev @1130
    _ZN2v88internal11RegExpEmpty6AcceptEPNS0_13RegExpVisitorEPv @1131
    _ZN2v88internal11RegExpEmpty6ToNodeEPNS0_14RegExpCompilerEPNS0_10RegExpNodeE @1132
    _ZN2v88internal11RegExpEmpty7AsEmptyEv @1133
    _ZN2v88internal11RegExpEmpty7IsEmptyEv @1134
    _ZN2v88internal11RegExpEmpty9kInstanceE @1135 DATA
    _ZN2v88internal11RegExpEmpty9max_matchEv @1136
    _ZN2v88internal11RegExpEmpty9min_matchEv @1137
    _ZN2v88internal11RegExpEmptyD0Ev @1138
    _ZN2v88internal11RegExpEmptyD1Ev @1139
    _ZN2v88internal11RegExpStack11ThreadLocal4FreeEv @1140
    _ZN2v88internal11RegExpStack12ArchiveStackEPc @1141
    _ZN2v88internal11RegExpStack12RestoreStackEPc @1142
    _ZN2v88internal11RegExpStack13thread_local_E @1143 DATA
    _ZN2v88internal11RegExpStack14EnsureCapacityEj @1144
    _ZN2v88internal11RegExpStack5ResetEv @1145
    _ZN2v88internal11RegExpStackC1Ev @1146
    _ZN2v88internal11RegExpStackC2Ev @1147
    _ZN2v88internal11RegExpStackD1Ev @1148
    _ZN2v88internal11RegExpStackD2Ev @1149
    _ZN2v88internal11Relocatable12ArchiveStateEPc @1150
    _ZN2v88internal11Relocatable12RestoreStateEPc @1151
    _ZN2v88internal11Relocatable15IterateInstanceEPNS0_13ObjectVisitorE @1152
    _ZN2v88internal11Relocatable21ArchiveSpacePerThreadEv @1153
    _ZN2v88internal11Relocatable21PostGarbageCollectionEv @1154
    _ZN2v88internal11Relocatable31PostGarbageCollectionProcessingEv @1155
    _ZN2v88internal11Relocatable4top_E @1156 DATA
    _ZN2v88internal11Relocatable7IterateEPNS0_13ObjectVisitorE @1157
    _ZN2v88internal11Relocatable7IterateEPNS0_13ObjectVisitorEPS1_ @1158
    _ZN2v88internal11Relocatable7IterateEPNS0_13ObjectVisitorEPc @1159
    _ZN2v88internal11RelocatableD0Ev @1160
    _ZN2v88internal11RelocatableD1Ev @1161
    _ZN2v88internal11SaveContextC1Ev @1162
    _ZN2v88internal11ScriptCache10GetScriptsEv @1163
    _ZN2v88internal11ScriptCache11ScriptMatchEPvS2_ @1164
    _ZN2v88internal11ScriptCache16HandleWeakScriptENS_10PersistentINS_5ValueEEEPv @1165
    _ZN2v88internal11ScriptCache23ProcessCollectedScriptsEv @1166
    _ZN2v88internal11ScriptCache3AddENS0_6HandleINS0_6ScriptEEE @1167
    _ZN2v88internal11ScriptCache5ClearEv @1168
    _ZN2v88internal11ScriptCacheD0Ev @1169
    _ZN2v88internal11ScriptCacheD1Ev @1170
    _ZN2v88internal11SetAccessorENS0_6HandleINS0_8JSObjectEEENS1_INS0_12AccessorInfoEEE @1171
    _ZN2v88internal11SetPropertyENS0_6HandleINS0_6ObjectEEES3_S3_18PropertyAttributesNS0_14StrictModeFlagE @1172
    _ZN2v88internal11SetPropertyENS0_6HandleINS0_8JSObjectEEENS1_INS0_6StringEEENS1_INS0_6ObjectEEE18PropertyAttributesNS0_14StrictModeFlagE @1173
    _ZN2v88internal11StackTracer5TraceEPNS0_10TickSampleE @1174
    _ZN2v88internal11StringToIntEPNS0_6StringEi @1175
    _ZN2v88internal11SymbolTable12LookupStringEPNS0_6StringEPPNS0_6ObjectE @1176
    _ZN2v88internal11SymbolTable12LookupSymbolENS0_6VectorIKcEEPPNS0_6ObjectE @1177
    _ZN2v88internal11SymbolTable17LookupAsciiSymbolENS0_6VectorIKcEEPPNS0_6ObjectE @1178
    _ZN2v88internal11SymbolTable19LookupTwoByteSymbolENS0_6VectorIKtEEPPNS0_6ObjectE @1179
    _ZN2v88internal11SymbolTable20LookupSymbolIfExistsEPNS0_6StringEPS3_ @1180
    _ZN2v88internal11SymbolTable28LookupTwoCharsSymbolIfExistsEjjPPNS0_6StringE @1181
    _ZN2v88internal11SymbolTable9LookupKeyEPNS0_12HashTableKeyEPPNS0_6ObjectE @1182
    _ZN2v88internal11TestContext11BuildBranchEPNS0_6HValueE @1183
    _ZN2v88internal11TestContext11ReturnValueEPNS0_6HValueE @1184
    _ZN2v88internal11TestContext17ReturnInstructionEPNS0_12HInstructionEi @1185
    _ZN2v88internal11TestContextD0Ev @1186
    _ZN2v88internal11TestContextD1Ev @1187
    _ZN2v88internal11TextElement4AtomEPNS0_10RegExpAtomE @1188
    _ZN2v88internal11TextElement6lengthEv @1189
    _ZN2v88internal11TextElement9CharClassEPNS0_20RegExpCharacterClassE @1190
    _ZN2v88internal11ThreadState10FirstInUseEv @1191
    _ZN2v88internal11ThreadState12free_anchor_E @1192 DATA
    _ZN2v88internal11ThreadState13AllocateSpaceEv @1193
    _ZN2v88internal11ThreadState14in_use_anchor_E @1194 DATA
    _ZN2v88internal11ThreadState4NextEv @1195
    _ZN2v88internal11ThreadState6UnlinkEv @1196
    _ZN2v88internal11ThreadState7GetFreeEv @1197
    _ZN2v88internal11ThreadState8LinkIntoENS1_4ListE @1198
    _ZN2v88internal11ThreadStateC1Ev @1199
    _ZN2v88internal11ThreadStateC2Ev @1200
    _ZN2v88internal11Translation10BeginFrameEiij @1201
    _ZN2v88internal11Translation12StoreLiteralEi @1202
    _ZN2v88internal11Translation13MarkDuplicateEv @1203
    _ZN2v88internal11Translation13StoreRegisterENS0_8RegisterE @1204
    _ZN2v88internal11Translation14StoreStackSlotEi @1205
    _ZN2v88internal11Translation18StoreInt32RegisterENS0_8RegisterE @1206
    _ZN2v88internal11Translation19NumberOfOperandsForENS1_6OpcodeE @1207
    _ZN2v88internal11Translation19StoreDoubleRegisterENS0_11XMMRegisterE @1208
    _ZN2v88internal11Translation19StoreInt32StackSlotEi @1209
    _ZN2v88internal11Translation20StoreArgumentsObjectEv @1210
    _ZN2v88internal11Translation20StoreDoubleStackSlotEi @1211
    _ZN2v88internal11UnionOfKeysENS0_6HandleINS0_10FixedArrayEEES3_ @1212
    _ZN2v88internal11UseInterval7SplitAtENS0_16LifetimePositionE @1213
    _ZN2v88internal11UsePositionC1ENS0_16LifetimePositionEPNS0_8LOperandE @1214
    _ZN2v88internal11UsePositionC2ENS0_16LifetimePositionEPNS0_8LOperandE @1215
    _ZN2v88internal11VariableMap6LookupENS0_6HandleINS0_6StringEEE @1216
    _ZN2v88internal11VariableMap7DeclareEPNS0_5ScopeENS0_6HandleINS0_6StringEEENS0_8Variable4ModeEbNS7_4KindE @1217
    _ZN2v88internal11VariableMapC1Eb @1218
    _ZN2v88internal11VariableMapC1Ev @1219
    _ZN2v88internal11VariableMapC2Eb @1220
    _ZN2v88internal11VariableMapC2Ev @1221
    _ZN2v88internal11VariableMapD0Ev @1222
    _ZN2v88internal11VariableMapD1Ev @1223
    _ZN2v88internal11VariableMapD2Ev @1224
    _ZN2v88internal12ArrayLiteral14AsArrayLiteralEv @1225
    _ZN2v88internal12ArrayLiteral6AcceptEPNS0_10AstVisitorE @1226
    _ZN2v88internal12ArrayLiteralD0Ev @1227
    _ZN2v88internal12ArrayLiteralD1Ev @1228
    _ZN2v88internal12AstOptimizer10VisitBlockEPNS0_5BlockE @1229
    _ZN2v88internal12AstOptimizer10VisitThrowEPNS0_5ThrowE @1230
    _ZN2v88internal12AstOptimizer12VisitCallNewEPNS0_7CallNewE @1231
    _ZN2v88internal12AstOptimizer12VisitLiteralEPNS0_7LiteralE @1232
    _ZN2v88internal12AstOptimizer13VisitPropertyEPNS0_8PropertyE @1233
    _ZN2v88internal12AstOptimizer15VisitAssignmentEPNS0_10AssignmentE @1234
    _ZN2v88internal12AstOptimizer16VisitCallRuntimeEPNS0_11CallRuntimeE @1235
    _ZN2v88internal12AstOptimizer16VisitConditionalEPNS0_11ConditionalE @1236
    _ZN2v88internal12AstOptimizer16VisitDeclarationEPNS0_11DeclarationE @1237
    _ZN2v88internal12AstOptimizer16VisitIfStatementEPNS0_11IfStatementE @1238
    _ZN2v88internal12AstOptimizer17OptimizeArgumentsEPNS0_8ZoneListIPNS0_10ExpressionEEE @1239
    _ZN2v88internal12AstOptimizer17VisitArrayLiteralEPNS0_12ArrayLiteralE @1240
    _ZN2v88internal12AstOptimizer17VisitForStatementEPNS0_12ForStatementE @1241
    _ZN2v88internal12AstOptimizer17VisitThisFunctionEPNS0_12ThisFunctionE @1242
    _ZN2v88internal12AstOptimizer18VisitCompareToNullEPNS0_13CompareToNullE @1243
    _ZN2v88internal12AstOptimizer18VisitObjectLiteralEPNS0_13ObjectLiteralE @1244
    _ZN2v88internal12AstOptimizer18VisitRegExpLiteralEPNS0_13RegExpLiteralE @1245
    _ZN2v88internal12AstOptimizer18VisitVariableProxyEPNS0_13VariableProxyE @1246
    _ZN2v88internal12AstOptimizer19VisitBreakStatementEPNS0_14BreakStatementE @1247
    _ZN2v88internal12AstOptimizer19VisitCountOperationEPNS0_14CountOperationE @1248
    _ZN2v88internal12AstOptimizer19VisitEmptyStatementEPNS0_14EmptyStatementE @1249
    _ZN2v88internal12AstOptimizer19VisitForInStatementEPNS0_14ForInStatementE @1250
    _ZN2v88internal12AstOptimizer19VisitUnaryOperationEPNS0_14UnaryOperationE @1251
    _ZN2v88internal12AstOptimizer19VisitWhileStatementEPNS0_14WhileStatementE @1252
    _ZN2v88internal12AstOptimizer20VisitBinaryOperationEPNS0_15BinaryOperationE @1253
    _ZN2v88internal12AstOptimizer20VisitFunctionLiteralEPNS0_15FunctionLiteralE @1254
    _ZN2v88internal12AstOptimizer20VisitReturnStatementEPNS0_15ReturnStatementE @1255
    _ZN2v88internal12AstOptimizer20VisitSwitchStatementEPNS0_15SwitchStatementE @1256
    _ZN2v88internal12AstOptimizer21VisitCompareOperationEPNS0_16CompareOperationE @1257
    _ZN2v88internal12AstOptimizer21VisitDoWhileStatementEPNS0_16DoWhileStatementE @1258
    _ZN2v88internal12AstOptimizer22VisitContinueStatementEPNS0_17ContinueStatementE @1259
    _ZN2v88internal12AstOptimizer22VisitDebuggerStatementEPNS0_17DebuggerStatementE @1260
    _ZN2v88internal12AstOptimizer22VisitTryCatchStatementEPNS0_17TryCatchStatementE @1261
    _ZN2v88internal12AstOptimizer22VisitWithExitStatementEPNS0_17WithExitStatementE @1262
    _ZN2v88internal12AstOptimizer23VisitIncrementOperationEPNS0_18IncrementOperationE @1263
    _ZN2v88internal12AstOptimizer23VisitWithEnterStatementEPNS0_18WithEnterStatementE @1264
    _ZN2v88internal12AstOptimizer24VisitExpressionStatementEPNS0_19ExpressionStatementE @1265
    _ZN2v88internal12AstOptimizer24VisitTryFinallyStatementEPNS0_19TryFinallyStatementE @1266
    _ZN2v88internal12AstOptimizer25VisitCatchExtensionObjectEPNS0_20CatchExtensionObjectE @1267
    _ZN2v88internal12AstOptimizer30VisitSharedFunctionInfoLiteralEPNS0_25SharedFunctionInfoLiteralE @1268
    _ZN2v88internal12AstOptimizer8OptimizeEPNS0_8ZoneListIPNS0_9StatementEEE @1269
    _ZN2v88internal12AstOptimizer9VisitCallEPNS0_4CallE @1270
    _ZN2v88internal12AstOptimizerD0Ev @1271
    _ZN2v88internal12AstOptimizerD1Ev @1272
    _ZN2v88internal12Bootstrapper10InitializeEb @1273
    _ZN2v88internal12Bootstrapper12ArchiveStateEPc @1274
    _ZN2v88internal12Bootstrapper12DetachGlobalENS0_6HandleINS0_7ContextEEE @1275
    _ZN2v88internal12Bootstrapper12RestoreStateEPc @1276
    _ZN2v88internal12Bootstrapper14ReattachGlobalENS0_6HandleINS0_7ContextEEENS2_INS0_6ObjectEEE @1277
    _ZN2v88internal12Bootstrapper17CreateEnvironmentENS0_6HandleINS0_6ObjectEEENS_6HandleINS_14ObjectTemplateEEEPNS_22ExtensionConfigurationE @1278
    _ZN2v88internal12Bootstrapper17InstallExtensionsENS0_6HandleINS0_7ContextEEEPNS_22ExtensionConfigurationE @1279
    _ZN2v88internal12Bootstrapper19FreeThreadResourcesEv @1280
    _ZN2v88internal12Bootstrapper19NativesSourceLookupEi @1281
    _ZN2v88internal12Bootstrapper21ArchiveSpacePerThreadEv @1282
    _ZN2v88internal12Bootstrapper24AllocateAutoDeletedArrayEi @1283
    _ZN2v88internal12Bootstrapper7IterateEPNS0_13ObjectVisitorE @1284
    _ZN2v88internal12Bootstrapper8TearDownEv @1285
    _ZN2v88internal12CharacterSet12CanonicalizeEv @1286
    _ZN2v88internal12CharacterSet6rangesEv @1287
    _ZN2v88internal12CodeGenStateC1EPNS0_13CodeGeneratorE @1288
    _ZN2v88internal12CodeGenStateC1EPNS0_13CodeGeneratorEPNS0_18ControlDestinationE @1289
    _ZN2v88internal12CodeGenStateC2EPNS0_13CodeGeneratorE @1290
    _ZN2v88internal12CodeGenStateC2EPNS0_13CodeGeneratorEPNS0_18ControlDestinationE @1291
    _ZN2v88internal12CodeGenStateD1Ev @1292
    _ZN2v88internal12CodeGenStateD2Ev @1293
    _ZN2v88internal12DeferredCode13SaveRegistersEv @1294
    _ZN2v88internal12DeferredCode16RestoreRegistersEv @1295
    _ZN2v88internal12DeferredCode18AutoSaveAndRestoreEv @1296
    _ZN2v88internal12DeferredCode4ExitEv @1297
    _ZN2v88internal12DeferredCodeC1Ev @1298
    _ZN2v88internal12DeferredCodeC2Ev @1299
    _ZN2v88internal12DeferredCodeD0Ev @1300
    _ZN2v88internal12DeferredCodeD1Ev @1301
    _ZN2v88internal12Deserializer10ReadObjectEiPNS0_5SpaceEPPNS0_6ObjectE @1302
    _ZN2v88internal12Deserializer11DeserializeEv @1303
    _ZN2v88internal12Deserializer13VisitPointersEPPNS0_6ObjectES4_ @1304
    _ZN2v88internal12Deserializer17VisitRuntimeEntryEPNS0_9RelocInfoE @1305
    _ZN2v88internal12Deserializer18DeserializePartialEPPNS0_6ObjectE @1306
    _ZN2v88internal12Deserializer19GetAddressFromStartEi @1307
    _ZN2v88internal12Deserializer23VisitExternalReferencesEPPhS3_ @1308
    _ZN2v88internal12Deserializer27external_reference_decoder_E @1309 DATA
    _ZN2v88internal12Deserializer8AllocateEiPNS0_5SpaceEi @1310
    _ZN2v88internal12Deserializer9ReadChunkEPPNS0_6ObjectES4_iPh @1311
    _ZN2v88internal12DeserializerC1EPNS0_18SnapshotByteSourceE @1312
    _ZN2v88internal12DeserializerC2EPNS0_18SnapshotByteSourceE @1313
    _ZN2v88internal12DeserializerD0Ev @1314
    _ZN2v88internal12DeserializerD1Ev @1315
    _ZN2v88internal12DeserializerD2Ev @1316
    _ZN2v88internal12Disassembler4DumpEP9__sFILE64PhS4_ @1317
    _ZN2v88internal12Disassembler6DecodeEP9__sFILE64PNS0_4CodeE @1318
    _ZN2v88internal12Disassembler6DecodeEP9__sFILE64PhS4_ @1319
    _ZN2v88internal12Displacement4initEPNS0_5LabelENS1_4TypeE @1320
    _ZN2v88internal12FLAG_ll_profE @1321 DATA
    _ZN2v88internal12FLAG_log_allE @1322 DATA
    _ZN2v88internal12FLAG_log_apiE @1323 DATA
    _ZN2v88internal12FLAG_logfileE @1324 DATA
    _ZN2v88internal12FLAG_use_gvnE @1325 DATA
    _ZN2v88internal12FLAG_use_osrE @1326 DATA
    _ZN2v88internal12ForStatement14AsForStatementEv @1327
    _ZN2v88internal12ForStatement6AcceptEPNS0_10AstVisitorE @1328
    _ZN2v88internal12ForStatementC1EPNS0_8ZoneListINS0_6HandleINS0_6StringEEEEE @1329
    _ZN2v88internal12ForStatementD0Ev @1330
    _ZN2v88internal12ForStatementD1Ev @1331
    _ZN2v88internal12FrameElement12ConstantListEv @1332
    _ZN2v88internal12FrameSummary5PrintEv @1333
    _ZN2v88internal12FreeListNode8set_sizeEi @1334
    _ZN2v88internal12GetPrototypeENS0_6HandleINS0_6ObjectEEE @1335
    _ZN2v88internal12GlobalObject15GetPropertyCellEPNS0_12LookupResultE @1336
    _ZN2v88internal12GlobalObject18EnsurePropertyCellEPNS0_6StringE @1337
    _ZN2v88internal12HBoundsCheck10DataEqualsEPNS0_6HValueE @1338
    _ZN2v88internal12HBoundsCheck16CompileToLithiumEPNS0_13LChunkBuilderE @1339
    _ZN2v88internal12HBoundsCheckD0Ev @1340
    _ZN2v88internal12HBoundsCheckD1Ev @1341
    _ZN2v88internal12HCallRuntime11PrintDataToEPNS0_12StringStreamE @1342
    _ZN2v88internal12HCallRuntime16CompileToLithiumEPNS0_13LChunkBuilderE @1343
    _ZN2v88internal12HCallRuntimeD0Ev @1344
    _ZN2v88internal12HCallRuntimeD1Ev @1345
    _ZN2v88internal12HCheckNonSmi10DataEqualsEPNS0_6HValueE @1346
    _ZN2v88internal12HCheckNonSmi16CompileToLithiumEPNS0_13LChunkBuilderE @1347
    _ZN2v88internal12HCheckNonSmi21CalculateInferredTypeEv @1348
    _ZN2v88internal12HCheckNonSmiD0Ev @1349
    _ZN2v88internal12HCheckNonSmiD1Ev @1350
    _ZN2v88internal12HClassOfTest10DataEqualsEPNS0_6HValueE @1351
    _ZN2v88internal12HClassOfTest11PrintDataToEPNS0_12StringStreamE @1352
    _ZN2v88internal12HClassOfTest16CompileToLithiumEPNS0_13LChunkBuilderE @1353
    _ZN2v88internal12HClassOfTestD0Ev @1354
    _ZN2v88internal12HClassOfTestD1Ev @1355
    _ZN2v88internal12HEnvironment10InitializeEPKS1_ @1356
    _ZN2v88internal12HEnvironment10InitializeEiii @1357
    _ZN2v88internal12HEnvironment10PrintToStdEv @1358
    _ZN2v88internal12HEnvironment15AddIncomingEdgeEPNS0_11HBasicBlockEPS1_ @1359
    _ZN2v88internal12HEnvironment20SetExpressionStackAtEiPNS0_6HValueE @1360
    _ZN2v88internal12HEnvironment3PopEv @1361
    _ZN2v88internal12HEnvironment4BindEPNS0_8VariableEPNS0_6HValueE @1362
    _ZN2v88internal12HEnvironment4BindEiPNS0_6HValueE @1363
    _ZN2v88internal12HEnvironment4DropEi @1364
    _ZN2v88internal12HEnvironment7PrintToEPNS0_12StringStreamE @1365
    _ZN2v88internal12HEnvironmentC1EPKS1_ @1366
    _ZN2v88internal12HEnvironmentC1EPS1_PNS0_5ScopeENS0_6HandleINS0_10JSFunctionEEE @1367
    _ZN2v88internal12HEnvironmentC2EPKS1_ @1368
    _ZN2v88internal12HEnvironmentC2EPS1_PNS0_5ScopeENS0_6HandleINS0_10JSFunctionEEE @1369
    _ZN2v88internal12HInstruction11InsertAfterEPS1_ @1370
    _ZN2v88internal12HInstruction11PrintDataToEPNS0_12StringStreamE @1371
    _ZN2v88internal12HInstruction12InsertBeforeEPS1_ @1372
    _ZN2v88internal12HInstruction15DeleteFromGraphEv @1373
    _ZN2v88internal12HInstruction6IsCallEv @1374
    _ZN2v88internal12HInstruction6UnlinkEv @1375
    _ZN2v88internal12HInstruction7PrintToEPNS0_12StringStreamE @1376
    _ZN2v88internal12HInstructionC2Ev @1377
    _ZN2v88internal12HInstructionD0Ev @1378
    _ZN2v88internal12HInstructionD1Ev @1379
    _ZN2v88internal12HStoreGlobal11PrintDataToEPNS0_12StringStreamE @1380
    _ZN2v88internal12HStoreGlobal16CompileToLithiumEPNS0_13LChunkBuilderE @1381
    _ZN2v88internal12HStoreGlobalD0Ev @1382
    _ZN2v88internal12HStoreGlobalD1Ev @1383
    _ZN2v88internal12HashTableKeyD0Ev @1384
    _ZN2v88internal12HashTableKeyD1Ev @1385
    _ZN2v88internal12HeapIterator10NextObjectEv @1386
    _ZN2v88internal12HeapIterator4InitEv @1387
    _ZN2v88internal12HeapIterator4nextEv @1388
    _ZN2v88internal12HeapIterator5resetEv @1389
    _ZN2v88internal12HeapIterator8ShutdownEv @1390
    _ZN2v88internal12HeapIteratorC1ENS1_20HeapObjectsFilteringE @1391
    _ZN2v88internal12HeapIteratorC1Ev @1392
    _ZN2v88internal12HeapIteratorC2ENS1_20HeapObjectsFilteringE @1393
    _ZN2v88internal12HeapIteratorC2Ev @1394
    _ZN2v88internal12HeapIteratorD1Ev @1395
    _ZN2v88internal12HeapIteratorD2Ev @1396
    _ZN2v88internal12HeapProfiler10singleton_E @1397 DATA
    _ZN2v88internal12HeapProfiler11GetSnapshotEi @1398
    _ZN2v88internal12HeapProfiler11WriteSampleEv @1399
    _ZN2v88internal12HeapProfiler12FindSnapshotEj @1400
    _ZN2v88internal12HeapProfiler12TakeSnapshotEPKciPNS_15ActivityControlE @1401
    _ZN2v88internal12HeapProfiler12TakeSnapshotEPNS0_6StringEiPNS_15ActivityControlE @1402
    _ZN2v88internal12HeapProfiler15ObjectMoveEventEPhS2_ @1403
    _ZN2v88internal12HeapProfiler16TakeSnapshotImplEPKciPNS_15ActivityControlE @1404
    _ZN2v88internal12HeapProfiler16TakeSnapshotImplEPNS0_6StringEiPNS_15ActivityControlE @1405
    _ZN2v88internal12HeapProfiler17GetSnapshotsCountEv @1406
    _ZN2v88internal12HeapProfiler5SetupEv @1407
    _ZN2v88internal12HeapProfiler8TearDownEv @1408
    _ZN2v88internal12HeapProfilerC1Ev @1409
    _ZN2v88internal12HeapProfilerC2Ev @1410
    _ZN2v88internal12HeapProfilerD1Ev @1411
    _ZN2v88internal12HeapProfilerD2Ev @1412
    _ZN2v88internal12HeapSnapshot10ClearPaintEv @1413
    _ZN2v88internal12HeapSnapshot11CompareWithEPS1_ @1414
    _ZN2v88internal12HeapSnapshot12AddRootEntryEi @1415
    _ZN2v88internal12HeapSnapshot12GetEntryByIdEy @1416
    _ZN2v88internal12HeapSnapshot15AddGcRootsEntryEii @1417
    _ZN2v88internal12HeapSnapshot15AllocateEntriesEiii @1418
    _ZN2v88internal12HeapSnapshot17GetRetainingPathsEPNS0_9HeapEntryE @1419
    _ZN2v88internal12HeapSnapshot18GetNextEntryToInitEv @1420
    _ZN2v88internal12HeapSnapshot19SetDominatorsToSelfEv @1421
    _ZN2v88internal12HeapSnapshot20GetSortedEntriesListEv @1422
    _ZN2v88internal12HeapSnapshot5PrintEi @1423
    _ZN2v88internal12HeapSnapshot8AddEntryENS0_9HeapEntry4TypeEPKcyiii @1424
    _ZN2v88internal12HeapSnapshotC1EPNS0_23HeapSnapshotsCollectionENS1_4TypeEPKcj @1425
    _ZN2v88internal12HeapSnapshotC2EPNS0_23HeapSnapshotsCollectionENS1_4TypeEPKcj @1426
    _ZN2v88internal12HeapSnapshotD1Ev @1427
    _ZN2v88internal12HeapSnapshotD2Ev @1428
    _ZN2v88internal12IntToCStringEiNS0_6VectorIcEE @1429
    _ZN2v88internal12KeyedStoreIC12GenerateMissEPNS0_14MacroAssemblerE @1430
    _ZN2v88internal12KeyedStoreIC12UpdateCachesEPNS0_12LookupResultENS0_16InlineCacheStateENS0_14StrictModeFlagENS0_6HandleINS0_8JSObjectEEENS6_INS0_6StringEEENS6_INS0_6ObjectEEE @1431
    _ZN2v88internal12KeyedStoreIC15GenerateGenericEPNS0_14MacroAssemblerENS0_14StrictModeFlagE @1432
    _ZN2v88internal12KeyedStoreIC17PatchInlinedStoreEPhPNS0_6ObjectE @1433
    _ZN2v88internal12KeyedStoreIC19ClearInlinedVersionEPh @1434
    _ZN2v88internal12KeyedStoreIC21RestoreInlinedVersionEPh @1435
    _ZN2v88internal12KeyedStoreIC26GenerateRuntimeSetPropertyEPNS0_14MacroAssemblerENS0_14StrictModeFlagE @1436
    _ZN2v88internal12KeyedStoreIC5ClearEPhPNS0_4CodeE @1437
    _ZN2v88internal12KeyedStoreIC5StoreENS0_16InlineCacheStateENS0_14StrictModeFlagENS0_6HandleINS0_6ObjectEEES6_S6_ @1438
    _ZN2v88internal12LArithmeticD15CompileToNativeEPNS0_8LCodeGenE @1439
    _ZN2v88internal12LArithmeticDD0Ev @1440
    _ZN2v88internal12LArithmeticDD1Ev @1441
    _ZN2v88internal12LArithmeticT15CompileToNativeEPNS0_8LCodeGenE @1442
    _ZN2v88internal12LArithmeticTD0Ev @1443
    _ZN2v88internal12LArithmeticTD1Ev @1444
    _ZN2v88internal12LBoundsCheck15CompileToNativeEPNS0_8LCodeGenE @1445
    _ZN2v88internal12LBoundsCheckD0Ev @1446
    _ZN2v88internal12LBoundsCheckD1Ev @1447
    _ZN2v88internal12LCallRuntime15CompileToNativeEPNS0_8LCodeGenE @1448
    _ZN2v88internal12LCallRuntimeD0Ev @1449
    _ZN2v88internal12LCallRuntimeD1Ev @1450
    _ZN2v88internal12LClassOfTest11PrintDataToEPNS0_12StringStreamE @1451
    _ZN2v88internal12LClassOfTest15CompileToNativeEPNS0_8LCodeGenE @1452
    _ZN2v88internal12LClassOfTestD0Ev @1453
    _ZN2v88internal12LClassOfTestD1Ev @1454
    _ZN2v88internal12LEnvironment7PrintToEPNS0_12StringStreamE @1455
    _ZN2v88internal12LGapResolver10RemoveMoveEi @1456
    _ZN2v88internal12LGapResolver11PerformMoveEi @1457
    _ZN2v88internal12LGapResolver12HasBeenResetEv @1458
    _ZN2v88internal12LGapResolver14EnsureRestoredEPNS0_8LOperandE @1459
    _ZN2v88internal12LGapResolver15CountSourceUsesEPNS0_8LOperandE @1460
    _ZN2v88internal12LGapResolver18EnsureTempRegisterEv @1461
    _ZN2v88internal12LGapResolver18GetFreeRegisterNotENS0_8RegisterE @1462
    _ZN2v88internal12LGapResolver20BuildInitialMoveListEPNS0_13LParallelMoveE @1463
    _ZN2v88internal12LGapResolver6FinishEv @1464
    _ZN2v88internal12LGapResolver6VerifyEv @1465
    _ZN2v88internal12LGapResolver7AddMoveENS0_13LMoveOperandsE @1466
    _ZN2v88internal12LGapResolver7ResolveEPNS0_13LParallelMoveE @1467
    _ZN2v88internal12LGapResolver8EmitMoveEi @1468
    _ZN2v88internal12LGapResolver8EmitSwapEi @1469
    _ZN2v88internal12LGapResolverC1EPNS0_8LCodeGenE @1470
    _ZN2v88internal12LGapResolverC2EPNS0_8LCodeGenE @1471
    _ZN2v88internal12LInstruction16SetBranchTargetsEii @1472
    _ZN2v88internal12LInstruction7PrintToEPNS0_12StringStreamE @1473
    _ZN2v88internal12LInstructionD0Ev @1474
    _ZN2v88internal12LInstructionD1Ev @1475
    _ZN2v88internal12LLazyBailout15CompileToNativeEPNS0_8LCodeGenE @1476
    _ZN2v88internal12LLazyBailoutD0Ev @1477
    _ZN2v88internal12LLazyBailoutD1Ev @1478
    _ZN2v88internal12LStoreGlobal15CompileToNativeEPNS0_8LCodeGenE @1479
    _ZN2v88internal12LStoreGlobalD0Ev @1480
    _ZN2v88internal12LStoreGlobalD1Ev @1481
    _ZN2v88internal12LookupResult13GetFieldIndexEv @1482
    _ZN2v88internal12LookupResult17GetCallbackObjectEv @1483
    _ZN2v88internal12LookupResult8GetValueEv @1484
    _ZN2v88internal12PageIteratorC1EPNS0_10PagedSpaceENS1_4ModeE @1485
    _ZN2v88internal12PageIteratorC2EPNS0_10PagedSpaceENS1_4ModeE @1486
    _ZN2v88internal12RegExpEngine7CompileEPNS0_17RegExpCompileDataEbbNS0_6HandleINS0_6StringEEEb @1487
    _ZN2v88internal12RegExpParser11ParseRegExpEPNS0_16FlatStringReaderEbPNS0_17RegExpCompileDataE @1488
    _ZN2v88internal12RegExpParser11ReportErrorENS0_6VectorIKcEE @1489
    _ZN2v88internal12RegExpParser12ParsePatternEv @1490
    _ZN2v88internal12RegExpParser14ParseClassAtomEPt @1491
    _ZN2v88internal12RegExpParser14ParseHexEscapeEiPi @1492
    _ZN2v88internal12RegExpParser15ScanForCapturesEv @1493
    _ZN2v88internal12RegExpParser16ParseDisjunctionEv @1494
    _ZN2v88internal12RegExpParser17ParseOctalLiteralEv @1495
    _ZN2v88internal12RegExpParser19ParseCharacterClassEv @1496
    _ZN2v88internal12RegExpParser23ParseBackReferenceIndexEPi @1497
    _ZN2v88internal12RegExpParser23ParseIntervalQuantifierEPiS2_ @1498
    _ZN2v88internal12RegExpParser25ParseClassCharacterEscapeEv @1499
    _ZN2v88internal12RegExpParser4NextEv @1500
    _ZN2v88internal12RegExpParser5ResetEi @1501
    _ZN2v88internal12RegExpParser6simpleEv @1502
    _ZN2v88internal12RegExpParser7AdvanceEi @1503
    _ZN2v88internal12RegExpParser7AdvanceEv @1504
    _ZN2v88internal12RegExpParserC1EPNS0_16FlatStringReaderEPNS0_6HandleINS0_6StringEEEb @1505
    _ZN2v88internal12RegExpParserC2EPNS0_16FlatStringReaderEPNS0_6HandleINS0_6StringEEEb @1506
    _ZN2v88internal12SetPrototypeENS0_6HandleINS0_10JSFunctionEEENS1_INS0_6ObjectEEE @1507
    _ZN2v88internal12SetPrototypeENS0_6HandleINS0_8JSObjectEEENS1_INS0_6ObjectEEE @1508
    _ZN2v88internal12ShadowTarget13StopShadowingEv @1509
    _ZN2v88internal12ShadowTargetC1EPNS0_11BreakTargetE @1510
    _ZN2v88internal12ShadowTargetC2EPNS0_11BreakTargetE @1511
    _ZN2v88internal12ShadowTargetD0Ev @1512
    _ZN2v88internal12ShadowTargetD1Ev @1513
    _ZN2v88internal12StatsCounter9IncrementEi @1514
    _ZN2v88internal12StatsCounter9IncrementEv @1515
    _ZN2v88internal12StoreIC_MissENS0_9ArgumentsE @1516
    _ZN2v88internal12StringHasher12GetHashFieldEv @1517
    _ZN2v88internal12StringHasher18MakeArrayIndexHashEji @1518
    _ZN2v88internal12StringHelper16GenerateHashInitEPNS0_14MacroAssemblerENS0_8RegisterES4_S4_ @1519
    _ZN2v88internal12StringHelper19GenerateHashGetHashEPNS0_14MacroAssemblerENS0_8RegisterES4_ @1520
    _ZN2v88internal12StringHelper22GenerateCopyCharactersEPNS0_14MacroAssemblerENS0_8RegisterES4_S4_S4_b @1521
    _ZN2v88internal12StringHelper24GenerateHashAddCharacterEPNS0_14MacroAssemblerENS0_8RegisterES4_S4_ @1522
    _ZN2v88internal12StringHelper25GenerateCopyCharactersREPEPNS0_14MacroAssemblerENS0_8RegisterES4_S4_S4_b @1523
    _ZN2v88internal12StringHelper36GenerateTwoCharacterSymbolTableProbeEPNS0_14MacroAssemblerENS0_8RegisterES4_S4_S4_S4_PNS0_5LabelES6_ @1524
    _ZN2v88internal12StringSearchIccE12LinearSearchEPS2_NS0_6VectorIKcEEi @1525
    _ZN2v88internal12StringSearchIccE13InitialSearchEPS2_NS0_6VectorIKcEEi @1526
    _ZN2v88internal12StringSearchIccE16BoyerMooreSearchEPS2_NS0_6VectorIKcEEi @1527
    _ZN2v88internal12StringSearchIccE16SingleCharSearchEPS2_NS0_6VectorIKcEEi @1528
    _ZN2v88internal12StringSearchIccE23PopulateBoyerMooreTableEv @1529
    _ZN2v88internal12StringSearchIccE24BoyerMooreHorspoolSearchEPS2_NS0_6VectorIKcEEi @1530
    _ZN2v88internal12StringSearchIccE31PopulateBoyerMooreHorspoolTableEv @1531
    _ZN2v88internal12StringSearchIctE12LinearSearchEPS2_NS0_6VectorIKtEEi @1532
    _ZN2v88internal12StringSearchIctE13InitialSearchEPS2_NS0_6VectorIKtEEi @1533
    _ZN2v88internal12StringSearchIctE16BoyerMooreSearchEPS2_NS0_6VectorIKtEEi @1534
    _ZN2v88internal12StringSearchIctE16SingleCharSearchEPS2_NS0_6VectorIKtEEi @1535
    _ZN2v88internal12StringSearchIctE23PopulateBoyerMooreTableEv @1536
    _ZN2v88internal12StringSearchIctE24BoyerMooreHorspoolSearchEPS2_NS0_6VectorIKtEEi @1537
    _ZN2v88internal12StringSearchItcE10FailSearchEPS2_NS0_6VectorIKcEEi @1538
    _ZN2v88internal12StringSearchItcE12LinearSearchEPS2_NS0_6VectorIKcEEi @1539
    _ZN2v88internal12StringSearchItcE13InitialSearchEPS2_NS0_6VectorIKcEEi @1540
    _ZN2v88internal12StringSearchItcE16BoyerMooreSearchEPS2_NS0_6VectorIKcEEi @1541
    _ZN2v88internal12StringSearchItcE16SingleCharSearchEPS2_NS0_6VectorIKcEEi @1542
    _ZN2v88internal12StringSearchItcE23PopulateBoyerMooreTableEv @1543
    _ZN2v88internal12StringSearchItcE24BoyerMooreHorspoolSearchEPS2_NS0_6VectorIKcEEi @1544
    _ZN2v88internal12StringSearchItcE31PopulateBoyerMooreHorspoolTableEv @1545
    _ZN2v88internal12StringSearchItcEC1ENS0_6VectorIKtEE @1546
    _ZN2v88internal12StringSearchIttE12LinearSearchEPS2_NS0_6VectorIKtEEi @1547
    _ZN2v88internal12StringSearchIttE13InitialSearchEPS2_NS0_6VectorIKtEEi @1548
    _ZN2v88internal12StringSearchIttE16BoyerMooreSearchEPS2_NS0_6VectorIKtEEi @1549
    _ZN2v88internal12StringSearchIttE16SingleCharSearchEPS2_NS0_6VectorIKtEEi @1550
    _ZN2v88internal12StringSearchIttE23PopulateBoyerMooreTableEv @1551
    _ZN2v88internal12StringSearchIttE24BoyerMooreHorspoolSearchEPS2_NS0_6VectorIKtEEi @1552
    _ZN2v88internal12StringSearchIttE31PopulateBoyerMooreHorspoolTableEv @1553
    _ZN2v88internal12StringStream11PrintObjectEPNS0_6ObjectE @1554
    _ZN2v88internal12StringStream12OutputToFileEP9__sFILE64 @1555
    _ZN2v88internal12StringStream13PrintFunctionEPNS0_6ObjectES3_PPNS0_4CodeE @1556
    _ZN2v88internal12StringStream13PrintUsingMapEPNS0_8JSObjectE @1557
    _ZN2v88internal12StringStream14PrintByteArrayEPNS0_9ByteArrayE @1558
    _ZN2v88internal12StringStream14PrintPrototypeEPNS0_10JSFunctionEPNS0_6ObjectE @1559
    _ZN2v88internal12StringStream15PrintFixedArrayEPNS0_10FixedArrayEj @1560
    _ZN2v88internal12StringStream25ClearMentionedObjectCacheEv @1561
    _ZN2v88internal12StringStream25PrintMentionedObjectCacheEv @1562
    _ZN2v88internal12StringStream27PrintSecurityTokenIfChangedEPNS0_6ObjectE @1563
    _ZN2v88internal12StringStream3AddENS0_6VectorIKcEE @1564
    _ZN2v88internal12StringStream3AddENS0_6VectorIKcEENS2_INS0_6FmtElmEEE @1565
    _ZN2v88internal12StringStream3AddEPKc @1566
    _ZN2v88internal12StringStream3AddEPKcNS0_6FmtElmE @1567
    _ZN2v88internal12StringStream3AddEPKcNS0_6FmtElmES4_ @1568
    _ZN2v88internal12StringStream3AddEPKcNS0_6FmtElmES4_S4_ @1569
    _ZN2v88internal12StringStream3AddEPKcNS0_6FmtElmES4_S4_S4_ @1570
    _ZN2v88internal12StringStream3LogEv @1571
    _ZN2v88internal12StringStream3PutEPNS0_6StringE @1572
    _ZN2v88internal12StringStream3PutEPNS0_6StringEii @1573
    _ZN2v88internal12StringStream3PutEc @1574
    _ZN2v88internal12StringStream8ToStringEv @1575
    _ZN2v88internal12StringStream9PrintNameEPNS0_6ObjectE @1576
    _ZN2v88internal12StubCompiler15CheckPrototypesEPNS0_8JSObjectENS0_8RegisterES3_S4_S4_S4_PNS0_6StringEiPNS0_5LabelE @1577
    _ZN2v88internal12StubCompiler15CompileCallMissENS0_4Code5FlagsE @1578
    _ZN2v88internal12StubCompiler16GenerateLoadMissEPNS0_14MacroAssemblerENS0_4Code4KindE @1579
    _ZN2v88internal12StubCompiler16GetCodeWithFlagsENS0_4Code5FlagsEPKc @1580
    _ZN2v88internal12StubCompiler16GetCodeWithFlagsENS0_4Code5FlagsEPNS0_6StringE @1581
    _ZN2v88internal12StubCompiler17CompileCallNormalENS0_4Code5FlagsE @1582
    _ZN2v88internal12StubCompiler17GenerateLoadFieldEPNS0_8JSObjectES3_NS0_8RegisterES4_S4_S4_iPNS0_6StringEPNS0_5LabelE @1583
    _ZN2v88internal12StubCompiler18GenerateStoreFieldEPNS0_14MacroAssemblerEPNS0_8JSObjectEiPNS0_3MapENS0_8RegisterES8_S8_PNS0_5LabelE @1584
    _ZN2v88internal12StubCompiler20GenerateLoadCallbackEPNS0_8JSObjectES3_NS0_8RegisterES4_S4_S4_S4_PNS0_12AccessorInfoEPNS0_6StringEPNS0_5LabelE @1585
    _ZN2v88internal12StubCompiler20GenerateLoadConstantEPNS0_8JSObjectES3_NS0_8RegisterES4_S4_S4_PNS0_6ObjectEPNS0_6StringEPNS0_5LabelE @1586
    _ZN2v88internal12StubCompiler21CompileCallDebugBreakENS0_4Code5FlagsE @1587
    _ZN2v88internal12StubCompiler21CompileCallInitializeENS0_4Code5FlagsE @1588
    _ZN2v88internal12StubCompiler21LookupPostInterceptorEPNS0_8JSObjectEPNS0_6StringEPNS0_12LookupResultE @1589
    _ZN2v88internal12StubCompiler22CompileCallMegamorphicENS0_4Code5FlagsE @1590
    _ZN2v88internal12StubCompiler23GenerateLoadArrayLengthEPNS0_14MacroAssemblerENS0_8RegisterES4_PNS0_5LabelE @1591
    _ZN2v88internal12StubCompiler23GenerateLoadInterceptorEPNS0_8JSObjectES3_PNS0_12LookupResultENS0_8RegisterES6_S6_S6_S6_PNS0_6StringEPNS0_5LabelE @1592
    _ZN2v88internal12StubCompiler24GenerateFastPropertyLoadEPNS0_14MacroAssemblerENS0_8RegisterES4_PNS0_8JSObjectEi @1593
    _ZN2v88internal12StubCompiler24GenerateLoadStringLengthEPNS0_14MacroAssemblerENS0_8RegisterES4_S4_PNS0_5LabelEb @1594
    _ZN2v88internal12StubCompiler25CompileCallPreMonomorphicENS0_4Code5FlagsE @1595
    _ZN2v88internal12StubCompiler29CompileCallDebugPrepareStepInENS0_4Code5FlagsE @1596
    _ZN2v88internal12StubCompiler29GenerateLoadFunctionPrototypeEPNS0_14MacroAssemblerENS0_8RegisterES4_S4_PNS0_5LabelE @1597
    _ZN2v88internal12StubCompiler35GenerateLoadGlobalFunctionPrototypeEPNS0_14MacroAssemblerEiNS0_8RegisterE @1598
    _ZN2v88internal12StubCompiler41GenerateDirectLoadGlobalFunctionPrototypeEPNS0_14MacroAssemblerEiNS0_8RegisterEPNS0_5LabelE @1599
    _ZN2v88internal12TRBinaryOpIC11GetTypeInfoENS0_6HandleINS0_6ObjectEEES4_ @1600
    _ZN2v88internal12TRBinaryOpIC5patchEPNS0_4CodeE @1601
    _ZN2v88internal12TRBinaryOpIC7GetNameENS1_8TypeInfoE @1602
    _ZN2v88internal12TRBinaryOpIC7ToStateENS1_8TypeInfoE @1603
    _ZN2v88internal12TRBinaryOpIC9JoinTypesENS1_8TypeInfoES2_ @1604
    _ZN2v88internal12ThisFunction14AsThisFunctionEv @1605
    _ZN2v88internal12ThisFunction6AcceptEPNS0_10AstVisitorE @1606
    _ZN2v88internal12ThisFunctionD0Ev @1607
    _ZN2v88internal12ThisFunctionD1Ev @1608
    _ZN2v88internal12ThreadHandle10InitializeENS1_4KindE @1609
    _ZN2v88internal12ThreadHandleC1ENS1_4KindE @1610
    _ZN2v88internal12ThreadHandleC2ENS1_4KindE @1611
    _ZN2v88internal12ThreadHandleD1Ev @1612
    _ZN2v88internal12ThreadHandleD2Ev @1613
    _ZN2v88internal12ToNumberStub7GetNameEv @1614
    _ZN2v88internal12ToNumberStub8GenerateEPNS0_14MacroAssemblerE @1615
    _ZN2v88internal12ToNumberStub8MajorKeyEv @1616
    _ZN2v88internal12ToNumberStub8MinorKeyEv @1617
    _ZN2v88internal12ToNumberStubD0Ev @1618
    _ZN2v88internal12ToNumberStubD1Ev @1619
    _ZN2v88internal12TryStatementD0Ev @1620
    _ZN2v88internal12TryStatementD1Ev @1621
    _ZN2v88internal12UnboundQueueINS0_21TickSampleEventRecordEEC1Ev @1622
    _ZN2v88internal12ValueContext11ReturnValueEPNS0_6HValueE @1623
    _ZN2v88internal12ValueContext17ReturnInstructionEPNS0_12HInstructionEi @1624
    _ZN2v88internal12ValueContextD0Ev @1625
    _ZN2v88internal12ValueContextD1Ev @1626
    _ZN2v88internal12ValueContextD2Ev @1627
    _ZN2v88internal12VirtualFrame10CallCallICENS0_9RelocInfo4ModeEii @1628
    _ZN2v88internal12VirtualFrame10CallLoadICENS0_9RelocInfo4ModeE @1629
    _ZN2v88internal12VirtualFrame10DebugBreakEv @1630
    _ZN2v88internal12VirtualFrame11CallRuntimeENS0_7Runtime10FunctionIdEi @1631
    _ZN2v88internal12VirtualFrame11CallRuntimeEPNS0_7Runtime8FunctionEi @1632
    _ZN2v88internal12VirtualFrame11CallStoreICENS0_6HandleINS0_6StringEEEbNS0_14StrictModeFlagE @1633
    _ZN2v88internal12VirtualFrame11RawCallStubEPNS0_8CodeStubE @1634
    _ZN2v88internal12VirtualFrame12MakeMergableEv @1635
    _ZN2v88internal12VirtualFrame12SetElementAtEiPNS0_6ResultE @1636
    _ZN2v88internal12VirtualFrame13CopyElementAtEiNS0_8TypeInfoE @1637
    _ZN2v88internal12VirtualFrame13InvokeBuiltinENS0_8Builtins10JavaScriptE10InvokeFlagi @1638
    _ZN2v88internal12VirtualFrame13SyncElementAtEi @1639
    _ZN2v88internal12VirtualFrame14CallJSFunctionEi @1640
    _ZN2v88internal12VirtualFrame14ForgetElementsEi @1641
    _ZN2v88internal12VirtualFrame14PrepareForCallEii @1642
    _ZN2v88internal12VirtualFrame14PrepareMergeToEPS1_ @1643
    _ZN2v88internal12VirtualFrame14PushTryHandlerE11HandlerType @1644
    _ZN2v88internal12VirtualFrame14SpillElementAtEi @1645
    _ZN2v88internal12VirtualFrame15CallConstructorEi @1646
    _ZN2v88internal12VirtualFrame15CallKeyedCallICENS0_9RelocInfo4ModeEii @1647
    _ZN2v88internal12VirtualFrame15CallKeyedLoadICENS0_9RelocInfo4ModeE @1648
    _ZN2v88internal12VirtualFrame15TakeFrameSlotAtEi @1649
    _ZN2v88internal12VirtualFrame16CallKeyedStoreICENS0_14StrictModeFlagE @1650
    _ZN2v88internal12VirtualFrame16PrepareForReturnEv @1651
    _ZN2v88internal12VirtualFrame16SpillAnyRegisterEv @1652
    _ZN2v88internal12VirtualFrame17RawCallCodeObjectENS0_6HandleINS0_4CodeEEENS0_9RelocInfo4ModeE @1653
    _ZN2v88internal12VirtualFrame18AllocateStackSlotsEv @1654
    _ZN2v88internal12VirtualFrame18StoreToFrameSlotAtEi @1655
    _ZN2v88internal12VirtualFrame19PushUntaggedElementENS0_6HandleINS0_6ObjectEEE @1656
    _ZN2v88internal12VirtualFrame19SaveContextRegisterEv @1657
    _ZN2v88internal12VirtualFrame20SyncElementByPushingEi @1658
    _ZN2v88internal12VirtualFrame21InvalidateFrameSlotAtEi @1659
    _ZN2v88internal12VirtualFrame22MakeDistinctAndSpilledEPNS0_6ResultES3_ @1660
    _ZN2v88internal12VirtualFrame22MoveResultsToRegistersEPNS0_6ResultES3_NS0_8RegisterES4_ @1661
    _ZN2v88internal12VirtualFrame22RestoreContextRegisterEv @1662
    _ZN2v88internal12VirtualFrame23PushReceiverSlotAddressEv @1663
    _ZN2v88internal12VirtualFrame23UntaggedPushFrameSlotAtEi @1664
    _ZN2v88internal12VirtualFrame26MergeMoveMemoryToRegistersEPS1_ @1665
    _ZN2v88internal12VirtualFrame26MergeMoveRegistersToMemoryEPS1_ @1666
    _ZN2v88internal12VirtualFrame28SyncElementBelowStackPointerEi @1667
    _ZN2v88internal12VirtualFrame29MergeMoveRegistersToRegistersEPS1_ @1668
    _ZN2v88internal12VirtualFrame3PopEv @1669
    _ZN2v88internal12VirtualFrame4DropEi @1670
    _ZN2v88internal12VirtualFrame4ExitEv @1671
    _ZN2v88internal12VirtualFrame4PushENS0_6HandleINS0_6ObjectEEE @1672
    _ZN2v88internal12VirtualFrame4PushEPNS0_10ExpressionE @1673
    _ZN2v88internal12VirtualFrame4PushEPNS0_6ResultE @1674
    _ZN2v88internal12VirtualFrame5EnterEv @1675
    _ZN2v88internal12VirtualFrame5SpillENS0_8RegisterE @1676
    _ZN2v88internal12VirtualFrame6AdjustEi @1677
    _ZN2v88internal12VirtualFrame7EmitPopENS0_7OperandE @1678
    _ZN2v88internal12VirtualFrame7EmitPopENS0_8RegisterE @1679
    _ZN2v88internal12VirtualFrame7MergeToEPS1_ @1680
    _ZN2v88internal12VirtualFrame8CallStubEPNS0_8CodeStubEPNS0_6ResultE @1681
    _ZN2v88internal12VirtualFrame8CallStubEPNS0_8CodeStubEPNS0_6ResultES5_ @1682
    _ZN2v88internal12VirtualFrame8EmitPushENS0_7OperandENS0_8TypeInfoE @1683
    _ZN2v88internal12VirtualFrame8EmitPushENS0_8RegisterENS0_8TypeInfoE @1684
    _ZN2v88internal12VirtualFrame8EmitPushENS0_9ImmediateENS0_8TypeInfoE @1685
    _ZN2v88internal12VirtualFrame9SyncRangeEii @1686
    _ZN2v88internal13AssertionNode11EatsAtLeastEiib @1687
    _ZN2v88internal13AssertionNode20GetQuickCheckDetailsEPNS0_17QuickCheckDetailsEPNS0_14RegExpCompilerEib @1688
    _ZN2v88internal13AssertionNode24ComputeFirstCharacterSetEi @1689
    _ZN2v88internal13AssertionNode4EmitEPNS0_14RegExpCompilerEPNS0_5TraceE @1690
    _ZN2v88internal13AssertionNode5CloneEv @1691
    _ZN2v88internal13AssertionNode6AcceptEPNS0_11NodeVisitorE @1692
    _ZN2v88internal13AssertionNodeD0Ev @1693
    _ZN2v88internal13AssertionNodeD1Ev @1694
    _ZN2v88internal13CodeGenerator10CheckStackEv @1695
    _ZN2v88internal13CodeGenerator10ComparisonEPNS0_7AstNodeENS0_9ConditionEbPNS0_18ControlDestinationE @1696
    _ZN2v88internal13CodeGenerator10LoadGlobalEv @1697
    _ZN2v88internal13CodeGenerator10VisitBlockEPNS0_5BlockE @1698
    _ZN2v88internal13CodeGenerator10VisitThrowEPNS0_5ThrowE @1699
    _ZN2v88internal13CodeGenerator11DeleteFrameEv @1700
    _ZN2v88internal13CodeGenerator11GenerateLogEPNS0_8ZoneListIPNS0_10ExpressionEEE @1701
    _ZN2v88internal13CodeGenerator11IsUnsafeSmiENS0_6HandleINS0_6ObjectEEE @1702
    _ZN2v88internal13CodeGenerator11SlotOperandEPNS0_4SlotENS0_8RegisterE @1703
    _ZN2v88internal13CodeGenerator11StoreToSlotEPNS0_4SlotE9InitState @1704
    _ZN2v88internal13CodeGenerator12LoadAndSpillEPNS0_10ExpressionE @1705
    _ZN2v88internal13CodeGenerator12LoadFromSlotEPNS0_4SlotE11TypeofState @1706
    _ZN2v88internal13CodeGenerator12VisitCallNewEPNS0_7CallNewE @1707
    _ZN2v88internal13CodeGenerator12VisitLiteralEPNS0_7LiteralE @1708
    _ZN2v88internal13CodeGenerator13ArgumentsModeEv @1709
    _ZN2v88internal13CodeGenerator13CallApplyLazyEPNS0_10ExpressionES3_PNS0_13VariableProxyEi @1710
    _ZN2v88internal13CodeGenerator13EmitKeyedLoadEv @1711
    _ZN2v88internal13CodeGenerator13EmitNamedLoadENS0_6HandleINS0_6StringEEEb @1712
    _ZN2v88internal13CodeGenerator13GenerateIsSmiEPNS0_8ZoneListIPNS0_10ExpressionEEE @1713
    _ZN2v88internal13CodeGenerator13LoadConditionEPNS0_10ExpressionEPNS0_18ControlDestinationEb @1714
    _ZN2v88internal13CodeGenerator13LoadReferenceEPNS0_9ReferenceE @1715
    _ZN2v88internal13CodeGenerator13MoveUnsafeSmiENS0_8RegisterENS0_6HandleINS0_6ObjectEEE @1716
    _ZN2v88internal13CodeGenerator13PushUnsafeSmiENS0_6HandleINS0_6ObjectEEE @1717
    _ZN2v88internal13CodeGenerator13VisitAndSpillEPNS0_9StatementE @1718
    _ZN2v88internal13CodeGenerator13VisitPropertyEPNS0_8PropertyE @1719
    _ZN2v88internal13CodeGenerator14DeclareGlobalsENS0_6HandleINS0_10FixedArrayEEE @1720
    _ZN2v88internal13CodeGenerator14EmitKeyedStoreEPNS0_10StaticTypeE @1721
    _ZN2v88internal13CodeGenerator14EmitNamedStoreENS0_6HandleINS0_6StringEEEb @1722
    _ZN2v88internal13CodeGenerator15GenerateClassOfEPNS0_8ZoneListIPNS0_10ExpressionEEE @1723
    _ZN2v88internal13CodeGenerator15GenerateIsArrayEPNS0_8ZoneListIPNS0_10ExpressionEEE @1724
    _ZN2v88internal13CodeGenerator15GenerateMathCosEPNS0_8ZoneListIPNS0_10ExpressionEEE @1725
    _ZN2v88internal13CodeGenerator15GenerateMathLogEPNS0_8ZoneListIPNS0_10ExpressionEEE @1726
    _ZN2v88internal13CodeGenerator15GenerateMathPowEPNS0_8ZoneListIPNS0_10ExpressionEEE @1727
    _ZN2v88internal13CodeGenerator15GenerateMathSinEPNS0_8ZoneListIPNS0_10ExpressionEEE @1728
    _ZN2v88internal13CodeGenerator15GenerateValueOfEPNS0_8ZoneListIPNS0_10ExpressionEEE @1729
    _ZN2v88internal13CodeGenerator15ProcessDeferredEv @1730
    _ZN2v88internal13CodeGenerator15RecordPositionsEPNS0_14MacroAssemblerEib @1731
    _ZN2v88internal13CodeGenerator15VisitAssignmentEPNS0_10AssignmentE @1732
    _ZN2v88internal13CodeGenerator15VisitStatementsEPNS0_8ZoneListIPNS0_9StatementEEE @1733
    _ZN2v88internal13CodeGenerator16AnalyzeConditionEPNS0_10ExpressionE @1734
    _ZN2v88internal13CodeGenerator16FoldConstantSmisENS0_5Token5ValueEii @1735
    _ZN2v88internal13CodeGenerator16GenerateIsObjectEPNS0_8ZoneListIPNS0_10ExpressionEEE @1736
    _ZN2v88internal13CodeGenerator16GenerateIsRegExpEPNS0_8ZoneListIPNS0_10ExpressionEEE @1737
    _ZN2v88internal13CodeGenerator16GenerateMathSqrtEPNS0_8ZoneListIPNS0_10ExpressionEEE @1738
    _ZN2v88internal13CodeGenerator16MakeCodeEpilogueEPNS0_14MacroAssemblerENS0_4Code5FlagsEPNS0_15CompilationInfoE @1739
    _ZN2v88internal13CodeGenerator16MakeCodePrologueEPNS0_15CompilationInfoE @1740
    _ZN2v88internal13CodeGenerator16VisitCallRuntimeEPNS0_11CallRuntimeE @1741
    _ZN2v88internal13CodeGenerator16VisitConditionalEPNS0_11ConditionalE @1742
    _ZN2v88internal13CodeGenerator16VisitDeclarationEPNS0_11DeclarationE @1743
    _ZN2v88internal13CodeGenerator16VisitIfStatementEPNS0_11IfStatementE @1744
    _ZN2v88internal13CodeGenerator17CallWithArgumentsEPNS0_8ZoneListIPNS0_10ExpressionEEENS0_17CallFunctionFlagsEi @1745
    _ZN2v88internal13CodeGenerator17GenerateArgumentsEPNS0_8ZoneListIPNS0_10ExpressionEEE @1746
    _ZN2v88internal13CodeGenerator17GenerateStringAddEPNS0_8ZoneListIPNS0_10ExpressionEEE @1747
    _ZN2v88internal13CodeGenerator17GenerateSubStringEPNS0_8ZoneListIPNS0_10ExpressionEEE @1748
    _ZN2v88internal13CodeGenerator17ShouldGenerateLogEPNS0_10ExpressionE @1749
    _ZN2v88internal13CodeGenerator17VisitArrayLiteralEPNS0_12ArrayLiteralE @1750
    _ZN2v88internal13CodeGenerator17VisitForStatementEPNS0_12ForStatementE @1751
    _ZN2v88internal13CodeGenerator17VisitThisFunctionEPNS0_12ThisFunctionE @1752
    _ZN2v88internal13CodeGenerator18EmitSlotAssignmentEPNS0_10AssignmentE @1753
    _ZN2v88internal13CodeGenerator18GenerateIsFunctionEPNS0_8ZoneListIPNS0_10ExpressionEEE @1754
    _ZN2v88internal13CodeGenerator18GenerateRegExpExecEPNS0_8ZoneListIPNS0_10ExpressionEEE @1755
    _ZN2v88internal13CodeGenerator18GenerateSetValueOfEPNS0_8ZoneListIPNS0_10ExpressionEEE @1756
    _ZN2v88internal13CodeGenerator18LoadGlobalReceiverEv @1757
    _ZN2v88internal13CodeGenerator18VisitCompareToNullEPNS0_13CompareToNullE @1758
    _ZN2v88internal13CodeGenerator18VisitObjectLiteralEPNS0_13ObjectLiteralE @1759
    _ZN2v88internal13CodeGenerator18VisitRegExpLiteralEPNS0_13RegExpLiteralE @1760
    _ZN2v88internal13CodeGenerator18VisitVariableProxyEPNS0_13VariableProxyE @1761
    _ZN2v88internal13CodeGenerator19InstantiateFunctionENS0_6HandleINS0_18SharedFunctionInfoEEEb @1762
    _ZN2v88internal13CodeGenerator19LoadInSafeInt32ModeEPNS0_10ExpressionEPNS0_11BreakTargetE @1763
    _ZN2v88internal13CodeGenerator19ProcessDeclarationsEPNS0_8ZoneListIPNS0_11DeclarationEEE @1764
    _ZN2v88internal13CodeGenerator19SetTypeForStackSlotEPNS0_4SlotENS0_8TypeInfoE @1765
    _ZN2v88internal13CodeGenerator19VisitBreakStatementEPNS0_14BreakStatementE @1766
    _ZN2v88internal13CodeGenerator19VisitCountOperationEPNS0_14CountOperationE @1767
    _ZN2v88internal13CodeGenerator19VisitEmptyStatementEPNS0_14EmptyStatementE @1768
    _ZN2v88internal13CodeGenerator19VisitForInStatementEPNS0_14ForInStatementE @1769
    _ZN2v88internal13CodeGenerator19VisitUnaryOperationEPNS0_14UnaryOperationE @1770
    _ZN2v88internal13CodeGenerator19VisitWhileStatementEPNS0_14WhileStatementE @1771
    _ZN2v88internal13CodeGenerator20GenerateCallFunctionEPNS0_8ZoneListIPNS0_10ExpressionEEE @1772
    _ZN2v88internal13CodeGenerator20GenerateGetFromCacheEPNS0_8ZoneListIPNS0_10ExpressionEEE @1773
    _ZN2v88internal13CodeGenerator20GenerateIsSpecObjectEPNS0_8ZoneListIPNS0_10ExpressionEEE @1774
    _ZN2v88internal13CodeGenerator20GenerateObjectEqualsEPNS0_8ZoneListIPNS0_10ExpressionEEE @1775
    _ZN2v88internal13CodeGenerator20GenerateStringCharAtEPNS0_8ZoneListIPNS0_10ExpressionEEE @1776
    _ZN2v88internal13CodeGenerator20GenerateSwapElementsEPNS0_8ZoneListIPNS0_10ExpressionEEE @1777
    _ZN2v88internal13CodeGenerator20Int32BinaryOperationEPNS0_15BinaryOperationE @1778
    _ZN2v88internal13CodeGenerator20LoadTypeofExpressionEPNS0_10ExpressionE @1779
    _ZN2v88internal13CodeGenerator20StoreArgumentsObjectEb @1780
    _ZN2v88internal13CodeGenerator20VisitBinaryOperationEPNS0_15BinaryOperationE @1781
    _ZN2v88internal13CodeGenerator20VisitFunctionLiteralEPNS0_15FunctionLiteralE @1782
    _ZN2v88internal13CodeGenerator20VisitReturnStatementEPNS0_15ReturnStatementE @1783
    _ZN2v88internal13CodeGenerator20VisitSwitchStatementEPNS0_15SwitchStatementE @1784
    _ZN2v88internal13CodeGenerator21CodeForReturnPositionEPNS0_15FunctionLiteralE @1785
    _ZN2v88internal13CodeGenerator21CodeForSourcePositionEi @1786
    _ZN2v88internal13CodeGenerator21ConstantSmiComparisonENS0_9ConditionEbPNS0_18ControlDestinationEPNS0_6ResultES6_bbb @1787
    _ZN2v88internal13CodeGenerator21GenerateStringCompareEPNS0_8ZoneListIPNS0_10ExpressionEEE @1788
    _ZN2v88internal13CodeGenerator21StoreUnsafeSmiToLocalEiNS0_6HandleINS0_6ObjectEEE @1789
    _ZN2v88internal13CodeGenerator21VisitCompareOperationEPNS0_16CompareOperationE @1790
    _ZN2v88internal13CodeGenerator21VisitDoWhileStatementEPNS0_16DoWhileStatementE @1791
    _ZN2v88internal13CodeGenerator22GenerateNumberToStringEPNS0_8ZoneListIPNS0_10ExpressionEEE @1792
    _ZN2v88internal13CodeGenerator22GenerateReturnSequenceEPNS0_6ResultE @1793
    _ZN2v88internal13CodeGenerator22GenericBinaryOperationEPNS0_15BinaryOperationENS0_13OverwriteModeE @1794
    _ZN2v88internal13CodeGenerator22VisitContinueStatementEPNS0_17ContinueStatementE @1795
    _ZN2v88internal13CodeGenerator22VisitDebuggerStatementEPNS0_17DebuggerStatementE @1796
    _ZN2v88internal13CodeGenerator22VisitTryCatchStatementEPNS0_17TryCatchStatementE @1797
    _ZN2v88internal13CodeGenerator22VisitWithExitStatementEPNS0_17WithExitStatementE @1798
    _ZN2v88internal13CodeGenerator23CodeForFunctionPositionEPNS0_15FunctionLiteralE @1799
    _ZN2v88internal13CodeGenerator23ConvertInt32ResultToSmiEPNS0_6ResultE @1800
    _ZN2v88internal13CodeGenerator23GenerateArgumentsLengthEPNS0_8ZoneListIPNS0_10ExpressionEEE @1801
    _ZN2v88internal13CodeGenerator23GenerateGetFramePointerEPNS0_8ZoneListIPNS0_10ExpressionEEE @1802
    _ZN2v88internal13CodeGenerator23GenerateIsConstructCallEPNS0_8ZoneListIPNS0_10ExpressionEEE @1803
    _ZN2v88internal13CodeGenerator23VisitIncrementOperationEPNS0_18IncrementOperationE @1804
    _ZN2v88internal13CodeGenerator23VisitStatementsAndSpillEPNS0_8ZoneListIPNS0_9StatementEEE @1805
    _ZN2v88internal13CodeGenerator23VisitWithEnterStatementEPNS0_18WithEnterStatementE @1806
    _ZN2v88internal13CodeGenerator24CodeForStatementPositionEPNS0_9StatementE @1807
    _ZN2v88internal13CodeGenerator24GenerateIsNonNegativeSmiEPNS0_8ZoneListIPNS0_10ExpressionEEE @1808
    _ZN2v88internal13CodeGenerator24GenerateRandomHeapNumberEPNS0_8ZoneListIPNS0_10ExpressionEEE @1809
    _ZN2v88internal13CodeGenerator24GenerateStringCharCodeAtEPNS0_8ZoneListIPNS0_10ExpressionEEE @1810
    _ZN2v88internal13CodeGenerator24LikelySmiBinaryOperationEPNS0_15BinaryOperationEPNS0_6ResultES5_NS0_13OverwriteModeE @1811
    _ZN2v88internal13CodeGenerator24VisitExpressionStatementEPNS0_19ExpressionStatementE @1812
    _ZN2v88internal13CodeGenerator24VisitTryFinallyStatementEPNS0_19TryFinallyStatementE @1813
    _ZN2v88internal13CodeGenerator25CheckForInlineRuntimeCallEPNS0_11CallRuntimeE @1814
    _ZN2v88internal13CodeGenerator25VisitCatchExtensionObjectEPNS0_20CatchExtensionObjectE @1815
    _ZN2v88internal13CodeGenerator25kInlineFunctionGeneratorsE @1816 DATA
    _ZN2v88internal13CodeGenerator26ConstantSmiBinaryOperationEPNS0_15BinaryOperationEPNS0_6ResultENS0_6HandleINS0_6ObjectEEEbNS0_13OverwriteModeE @1817
    _ZN2v88internal13CodeGenerator26ConvertInt32ResultToNumberEPNS0_6ResultE @1818
    _ZN2v88internal13CodeGenerator26GenerateFastAsciiArrayJoinEPNS0_8ZoneListIPNS0_10ExpressionEEE @1819
    _ZN2v88internal13CodeGenerator26GenerateIsRegExpEquivalentEPNS0_8ZoneListIPNS0_10ExpressionEEE @1820
    _ZN2v88internal13CodeGenerator26GenerateStringCharFromCodeEPNS0_8ZoneListIPNS0_10ExpressionEEE @1821
    _ZN2v88internal13CodeGenerator26JumpIfBothSmiUsingTypeInfoEPNS0_6ResultES3_PNS0_10JumpTargetE @1822
    _ZN2v88internal13CodeGenerator27EmitKeyedPropertyAssignmentEPNS0_10AssignmentE @1823
    _ZN2v88internal13CodeGenerator27EmitNamedPropertyAssignmentEPNS0_10AssignmentE @1824
    _ZN2v88internal13CodeGenerator27GenerateGetCachedArrayIndexEPNS0_8ZoneListIPNS0_10ExpressionEEE @1825
    _ZN2v88internal13CodeGenerator27GenerateHasCachedArrayIndexEPNS0_8ZoneListIPNS0_10ExpressionEEE @1826
    _ZN2v88internal13CodeGenerator28GenerateIsUndetectableObjectEPNS0_8ZoneListIPNS0_10ExpressionEEE @1827
    _ZN2v88internal13CodeGenerator29GenerateRegExpConstructResultEPNS0_8ZoneListIPNS0_10ExpressionEEE @1828
    _ZN2v88internal13CodeGenerator29JumpIfNotBothSmiUsingTypeInfoENS0_8RegisterES2_S2_NS0_8TypeInfoES3_PNS0_12DeferredCodeE @1829
    _ZN2v88internal13CodeGenerator29JumpIfNotBothSmiUsingTypeInfoENS0_8RegisterES2_S2_NS0_8TypeInfoES3_PNS0_5LabelE @1830
    _ZN2v88internal13CodeGenerator29LoadFromSlotCheckForArgumentsEPNS0_4SlotE11TypeofState @1831
    _ZN2v88internal13CodeGenerator29LoadWithSafeInt32ModeDisabledEPNS0_10ExpressionE @1832
    _ZN2v88internal13CodeGenerator30GenerateInlineNumberComparisonEPNS0_6ResultES3_NS0_9ConditionEPNS0_18ControlDestinationE @1833
    _ZN2v88internal13CodeGenerator30VisitSharedFunctionInfoLiteralEPNS0_25SharedFunctionInfoLiteralE @1834
    _ZN2v88internal13CodeGenerator31CodeForDoWhileConditionPositionEPNS0_16DoWhileStatementE @1835
    _ZN2v88internal13CodeGenerator31EmitDynamicLoadFromSlotFastCaseEPNS0_4SlotE11TypeofStatePNS0_6ResultEPNS0_10JumpTargetES8_ @1836
    _ZN2v88internal13CodeGenerator31GenerateGenericBinaryOpStubCallEPNS0_19GenericBinaryOpStubEPNS0_6ResultES5_ @1837
    _ZN2v88internal13CodeGenerator31GenerateLogicalBooleanOperationEPNS0_15BinaryOperationE @1838
    _ZN2v88internal13CodeGenerator33ContextSlotOperandCheckExtensionsEPNS0_4SlotENS0_6ResultEPNS0_10JumpTargetE @1839
    _ZN2v88internal13CodeGenerator33LoadFromGlobalSlotCheckExtensionsEPNS0_4SlotE11TypeofStatePNS0_10JumpTargetE @1840
    _ZN2v88internal13CodeGenerator44GenerateIsStringWrapperSafeForDefaultValueOfEPNS0_8ZoneListIPNS0_10ExpressionEEE @1841
    _ZN2v88internal13CodeGenerator4LoadEPNS0_10ExpressionE @1842
    _ZN2v88internal13CodeGenerator8GenerateEPNS0_15CompilationInfoE @1843
    _ZN2v88internal13CodeGenerator8MakeCodeEPNS0_15CompilationInfoE @1844
    _ZN2v88internal13CodeGenerator8SetFrameEPNS0_12VirtualFrameEPNS0_12RegisterFileE @1845
    _ZN2v88internal13CodeGenerator9PrintCodeENS0_6HandleINS0_4CodeEEEPNS0_15CompilationInfoE @1846
    _ZN2v88internal13CodeGenerator9ToBooleanEPNS0_18ControlDestinationE @1847
    _ZN2v88internal13CodeGenerator9VisitCallEPNS0_4CallE @1848
    _ZN2v88internal13CodeGenerator9VisitSlotEPNS0_4SlotE @1849
    _ZN2v88internal13CodeGeneratorC1EPNS0_14MacroAssemblerE @1850
    _ZN2v88internal13CodeGeneratorC2EPNS0_14MacroAssemblerE @1851
    _ZN2v88internal13CodeGeneratorD0Ev @1852
    _ZN2v88internal13CodeGeneratorD1Ev @1853
    _ZN2v88internal13CompareToNull15AsCompareToNullEv @1854
    _ZN2v88internal13CompareToNull6AcceptEPNS0_10AstVisitorE @1855
    _ZN2v88internal13CompareToNullD0Ev @1856
    _ZN2v88internal13CompareToNullD1Ev @1857
    _ZN2v88internal13DebuggerAgent12CloseSessionEv @1858
    _ZN2v88internal13DebuggerAgent13CreateSessionEPNS0_6SocketE @1859
    _ZN2v88internal13DebuggerAgent15DebuggerMessageERKNS_5Debug7MessageE @1860
    _ZN2v88internal13DebuggerAgent15OnSessionClosedEPNS0_20DebuggerAgentSessionE @1861
    _ZN2v88internal13DebuggerAgent18WaitUntilListeningEv @1862
    _ZN2v88internal13DebuggerAgent3RunEv @1863
    _ZN2v88internal13DebuggerAgent8ShutdownEv @1864
    _ZN2v88internal13DebuggerAgent9instance_E @1865 DATA
    _ZN2v88internal13DebuggerAgentD0Ev @1866
    _ZN2v88internal13DebuggerAgentD1Ev @1867
    _ZN2v88internal13DeleteElementENS0_6HandleINS0_8JSObjectEEEj @1868
    _ZN2v88internal13DispatchTable3GetEt @1869
    _ZN2v88internal13DispatchTable6Config6kNoKeyE @1870 DATA
    _ZN2v88internal13DispatchTable6Config8kNoValueE @1871 DATA
    _ZN2v88internal13DispatchTable8AddRangeENS0_14CharacterRangeEi @1872
    _ZN2v88internal13DoubleToAsciiEdNS0_8DtoaModeEiNS0_6VectorIcEEPiS4_S4_ @1873
    _ZN2v88internal13EffectContext11ReturnValueEPNS0_6HValueE @1874
    _ZN2v88internal13EffectContext17ReturnInstructionEPNS0_12HInstructionEi @1875
    _ZN2v88internal13EffectContextD0Ev @1876
    _ZN2v88internal13EffectContextD1Ev @1877
    _ZN2v88internal13EffectContextD2Ev @1878
    _ZN2v88internal13EnterDebuggerC1Ev @1879
    _ZN2v88internal13EnterDebuggerD1Ev @1880
    _ZN2v88internal13FLAG_debuggerE @1881 DATA
    _ZN2v88internal13FLAG_log_codeE @1882 DATA
    _ZN2v88internal13FLAG_trace_gcE @1883 DATA
    _ZN2v88internal13FastFixedDtoaEdiNS0_6VectorIcEEPiS3_ @1884
    _ZN2v88internal13FlattenStringENS0_6HandleINS0_6StringEEE @1885
    _ZN2v88internal13GlobalHandles11IsNearDeathEPPNS0_6ObjectE @1886
    _ZN2v88internal13GlobalHandles11RecordStatsEPNS0_9HeapStatsE @1887
    _ZN2v88internal13GlobalHandles11first_free_E @1888 DATA
    _ZN2v88internal13GlobalHandles12ObjectGroupsEv @1889
    _ZN2v88internal13GlobalHandles13ClearWeaknessEPPNS0_6ObjectE @1890
    _ZN2v88internal13GlobalHandles15IterateAllRootsEPNS0_13ObjectVisitorE @1891
    _ZN2v88internal13GlobalHandles16IterateWeakRootsEPFvPNS0_6ObjectEPvEPFvNS_10PersistentINS_5ValueEEES4_E @1892
    _ZN2v88internal13GlobalHandles16IterateWeakRootsEPNS0_13ObjectVisitorE @1893
    _ZN2v88internal13GlobalHandles18IterateStrongRootsEPNS0_13ObjectVisitorE @1894
    _ZN2v88internal13GlobalHandles18RemoveObjectGroupsEv @1895
    _ZN2v88internal13GlobalHandles18first_deallocated_E @1896 DATA
    _ZN2v88internal13GlobalHandles19IdentifyWeakHandlesEPFbPPNS0_6ObjectEE @1897
    _ZN2v88internal13GlobalHandles23number_of_weak_handles_E @1898 DATA
    _ZN2v88internal13GlobalHandles31PostGarbageCollectionProcessingEv @1899
    _ZN2v88internal13GlobalHandles37number_of_global_object_weak_handles_E @1900 DATA
    _ZN2v88internal13GlobalHandles5head_E @1901 DATA
    _ZN2v88internal13GlobalHandles6CreateEPNS0_6ObjectE @1902
    _ZN2v88internal13GlobalHandles6IsWeakEPPNS0_6ObjectE @1903
    _ZN2v88internal13GlobalHandles7DestroyEPPNS0_6ObjectE @1904
    _ZN2v88internal13GlobalHandles8AddGroupEPPPNS0_6ObjectEj @1905
    _ZN2v88internal13GlobalHandles8MakeWeakEPPNS0_6ObjectEPvPFvNS_10PersistentINS_5ValueEEES5_E @1906
    _ZN2v88internal13GlobalHandles8TearDownEv @1907
    _ZN2v88internal13HAbnormalExit16CompileToLithiumEPNS0_13LChunkBuilderE @1908
    _ZN2v88internal13HAbnormalExitD0Ev @1909
    _ZN2v88internal13HAbnormalExitD1Ev @1910
    _ZN2v88internal13HArrayLiteral16CompileToLithiumEPNS0_13LChunkBuilderE @1911
    _ZN2v88internal13HArrayLiteralD0Ev @1912
    _ZN2v88internal13HArrayLiteralD1Ev @1913
    _ZN2v88internal13HCallFunction16CompileToLithiumEPNS0_13LChunkBuilderE @1914
    _ZN2v88internal13HCallFunctionD0Ev @1915
    _ZN2v88internal13HCallFunctionD1Ev @1916
    _ZN2v88internal13HEnterInlined11PrintDataToEPNS0_12StringStreamE @1917
    _ZN2v88internal13HEnterInlined16CompileToLithiumEPNS0_13LChunkBuilderE @1918
    _ZN2v88internal13HEnterInlinedD0Ev @1919
    _ZN2v88internal13HEnterInlinedD1Ev @1920
    _ZN2v88internal13HGlobalObject10DataEqualsEPNS0_6HValueE @1921
    _ZN2v88internal13HGlobalObject16CompileToLithiumEPNS0_13LChunkBuilderE @1922
    _ZN2v88internal13HGlobalObjectD0Ev @1923
    _ZN2v88internal13HGlobalObjectD1Ev @1924
    _ZN2v88internal13HGraphBuilder10CreateJoinEPNS0_11HBasicBlockES3_i @1925
    _ZN2v88internal13HGraphBuilder10PushAndAddEPNS0_12HInstructionE @1926
    _ZN2v88internal13HGraphBuilder10SetupScopeEPNS0_5ScopeE @1927
    _ZN2v88internal13HGraphBuilder10VisitBlockEPNS0_5BlockE @1928
    _ZN2v88internal13HGraphBuilder10VisitThrowEPNS0_5ThrowE @1929
    _ZN2v88internal13HGraphBuilder11AddSimulateEi @1930
    _ZN2v88internal13HGraphBuilder11CreateGraphEPNS0_15CompilationInfoE @1931
    _ZN2v88internal13HGraphBuilder11CreateWhileEPNS0_18IterationStatementEPNS0_11HBasicBlockES5_S5_S5_ @1932
    _ZN2v88internal13HGraphBuilder11GenerateLogEPNS0_11CallRuntimeE @1933
    _ZN2v88internal13HGraphBuilder11TraceInlineENS0_6HandleINS0_10JSFunctionEEEb @1934
    _ZN2v88internal13HGraphBuilder12JoinContinueEPNS0_18IterationStatementEPNS0_11HBasicBlockES5_ @1935
    _ZN2v88internal13HGraphBuilder12TryCallApplyEPNS0_4CallE @1936
    _ZN2v88internal13HGraphBuilder12VisitCallNewEPNS0_7CallNewE @1937
    _ZN2v88internal13HGraphBuilder12VisitLiteralEPNS0_7LiteralE @1938
    _ZN2v88internal13HGraphBuilder13AddToSubgraphEPNS0_9HSubgraphEPNS0_10ExpressionE @1939
    _ZN2v88internal13HGraphBuilder13AddToSubgraphEPNS0_9HSubgraphEPNS0_8ZoneListIPNS0_9StatementEEE @1940
    _ZN2v88internal13HGraphBuilder13AddToSubgraphEPNS0_9HSubgraphEPNS0_9StatementE @1941
    _ZN2v88internal13HGraphBuilder13CreateDoWhileEPNS0_18IterationStatementEPNS0_11HBasicBlockES5_S5_S5_ @1942
    _ZN2v88internal13HGraphBuilder13CreateEndlessEPNS0_18IterationStatementEPNS0_11HBasicBlockES5_S5_ @1943
    _ZN2v88internal13HGraphBuilder13GenerateIsSmiEPNS0_11CallRuntimeE @1944
    _ZN2v88internal13HGraphBuilder13VisitArgumentEPNS0_10ExpressionE @1945
    _ZN2v88internal13HGraphBuilder13VisitForValueEPNS0_10ExpressionE @1946
    _ZN2v88internal13HGraphBuilder13VisitPropertyEPNS0_8PropertyE @1947
    _ZN2v88internal13HGraphBuilder14AddInstructionEPNS0_12HInstructionE @1948
    _ZN2v88internal13HGraphBuilder14BuildIncrementEPNS0_6HValueEb @1949
    _ZN2v88internal13HGraphBuilder14BuildLoadNamedEPNS0_6HValueEPNS0_8PropertyENS0_6HandleINS0_3MapEEENS6_INS0_6StringEEE @1950
    _ZN2v88internal13HGraphBuilder14PreProcessCallILi0EEEPNS0_12HInstructionEPNS0_5HCallIXT_EEE @1951
    _ZN2v88internal13HGraphBuilder14PreProcessCallILi1EEEPNS0_12HInstructionEPNS0_5HCallIXT_EEE @1952
    _ZN2v88internal13HGraphBuilder14PreProcessCallILi2EEEPNS0_12HInstructionEPNS0_5HCallIXT_EEE @1953
    _ZN2v88internal13HGraphBuilder14VisitForEffectEPNS0_10ExpressionE @1954
    _ZN2v88internal13HGraphBuilder15BuildStoreNamedEPNS0_6HValueES3_PNS0_10ExpressionE @1955
    _ZN2v88internal13HGraphBuilder15BuildTypeSwitchEPNS0_6HValueEPNS0_8ZoneListINS0_6HandleINS0_3MapEEEEEPNS4_IPNS0_9HSubgraphEEESB_i @1956
    _ZN2v88internal13HGraphBuilder15GenerateClassOfEPNS0_11CallRuntimeE @1957
    _ZN2v88internal13HGraphBuilder15GenerateIsArrayEPNS0_11CallRuntimeE @1958
    _ZN2v88internal13HGraphBuilder15GenerateMathCosEPNS0_11CallRuntimeE @1959
    _ZN2v88internal13HGraphBuilder15GenerateMathLogEPNS0_11CallRuntimeE @1960
    _ZN2v88internal13HGraphBuilder15GenerateMathPowEPNS0_11CallRuntimeE @1961
    _ZN2v88internal13HGraphBuilder15GenerateMathSinEPNS0_11CallRuntimeE @1962
    _ZN2v88internal13HGraphBuilder15GenerateValueOfEPNS0_11CallRuntimeE @1963
    _ZN2v88internal13HGraphBuilder15VisitAssignmentEPNS0_10AssignmentE @1964
    _ZN2v88internal13HGraphBuilder15VisitForControlEPNS0_10ExpressionEPNS0_11HBasicBlockES5_ @1965
    _ZN2v88internal13HGraphBuilder15VisitStatementsEPNS0_8ZoneListIPNS0_9StatementEEE @1966
    _ZN2v88internal13HGraphBuilder16CreateBasicBlockEPNS0_12HEnvironmentE @1967
    _ZN2v88internal13HGraphBuilder16CreateLoopHeaderEv @1968
    _ZN2v88internal13HGraphBuilder16GenerateIsObjectEPNS0_11CallRuntimeE @1969
    _ZN2v88internal13HGraphBuilder16GenerateIsRegExpEPNS0_11CallRuntimeE @1970
    _ZN2v88internal13HGraphBuilder16GenerateMathSqrtEPNS0_11CallRuntimeE @1971
    _ZN2v88internal13HGraphBuilder16ToRepresentationENS0_8TypeInfoE @1972
    _ZN2v88internal13HGraphBuilder16VisitCallRuntimeEPNS0_11CallRuntimeE @1973
    _ZN2v88internal13HGraphBuilder16VisitConditionalEPNS0_11ConditionalE @1974
    _ZN2v88internal13HGraphBuilder16VisitDeclarationEPNS0_11DeclarationE @1975
    _ZN2v88internal13HGraphBuilder16VisitExpressionsEPNS0_8ZoneListIPNS0_10ExpressionEEE @1976
    _ZN2v88internal13HGraphBuilder16VisitIfStatementEPNS0_11IfStatementE @1977
    _ZN2v88internal13HGraphBuilder17GenerateArgumentsEPNS0_11CallRuntimeE @1978
    _ZN2v88internal13HGraphBuilder17GenerateStringAddEPNS0_11CallRuntimeE @1979
    _ZN2v88internal13HGraphBuilder17GenerateSubStringEPNS0_11CallRuntimeE @1980
    _ZN2v88internal13HGraphBuilder17VisitArgumentListEPNS0_8ZoneListIPNS0_10ExpressionEEE @1981
    _ZN2v88internal13HGraphBuilder17VisitArrayLiteralEPNS0_12ArrayLiteralE @1982
    _ZN2v88internal13HGraphBuilder17VisitForStatementEPNS0_12ForStatementE @1983
    _ZN2v88internal13HGraphBuilder17VisitThisFunctionEPNS0_12ThisFunctionE @1984
    _ZN2v88internal13HGraphBuilder18BuildSwitchCompareEPNS0_9HSubgraphEPNS0_6HValueEPNS0_10CaseClauseE @1985
    _ZN2v88internal13HGraphBuilder18CreateGotoSubgraphEPNS0_12HEnvironmentE @1986
    _ZN2v88internal13HGraphBuilder18GenerateIsFunctionEPNS0_11CallRuntimeE @1987
    _ZN2v88internal13HGraphBuilder18GenerateRegExpExecEPNS0_11CallRuntimeE @1988
    _ZN2v88internal13HGraphBuilder18GenerateSetValueOfEPNS0_11CallRuntimeE @1989
    _ZN2v88internal13HGraphBuilder18PreProcessOsrEntryEPNS0_18IterationStatementE @1990
    _ZN2v88internal13HGraphBuilder18TryArgumentsAccessEPNS0_8PropertyE @1991
    _ZN2v88internal13HGraphBuilder18VisitCompareToNullEPNS0_13CompareToNullE @1992
    _ZN2v88internal13HGraphBuilder18VisitObjectLiteralEPNS0_13ObjectLiteralE @1993
    _ZN2v88internal13HGraphBuilder18VisitRegExpLiteralEPNS0_13RegExpLiteralE @1994
    _ZN2v88internal13HGraphBuilder18VisitVariableProxyEPNS0_13VariableProxyE @1995
    _ZN2v88internal13HGraphBuilder19BuildLoadNamedFieldEPNS0_6HValueEPNS0_8PropertyENS0_6HandleINS0_3MapEEEPNS0_12LookupResultEb @1996
    _ZN2v88internal13HGraphBuilder19CreateEmptySubgraphEv @1997
    _ZN2v88internal13HGraphBuilder19VisitBreakStatementEPNS0_14BreakStatementE @1998
    _ZN2v88internal13HGraphBuilder19VisitCountOperationEPNS0_14CountOperationE @1999
    _ZN2v88internal13HGraphBuilder19VisitEmptyStatementEPNS0_14EmptyStatementE @2000
    _ZN2v88internal13HGraphBuilder19VisitForInStatementEPNS0_14ForInStatementE @2001
    _ZN2v88internal13HGraphBuilder19VisitUnaryOperationEPNS0_14UnaryOperationE @2002
    _ZN2v88internal13HGraphBuilder19VisitWhileStatementEPNS0_14WhileStatementE @2003
    _ZN2v88internal13HGraphBuilder20AssumeRepresentationEPNS0_6HValueENS0_14RepresentationE @2004
    _ZN2v88internal13HGraphBuilder20BuildBinaryOperationEPNS0_15BinaryOperationEPNS0_6HValueES5_ @2005
    _ZN2v88internal13HGraphBuilder20BuildStoreNamedFieldEPNS0_6HValueENS0_6HandleINS0_6StringEEES3_NS4_INS0_3MapEEEPNS0_12LookupResultEb @2006
    _ZN2v88internal13HGraphBuilder20CreateBranchSubgraphEPNS0_12HEnvironmentE @2007
    _ZN2v88internal13HGraphBuilder20GenerateCallFunctionEPNS0_11CallRuntimeE @2008
    _ZN2v88internal13HGraphBuilder20GenerateGetFromCacheEPNS0_11CallRuntimeE @2009
    _ZN2v88internal13HGraphBuilder20GenerateIsSpecObjectEPNS0_11CallRuntimeE @2010
    _ZN2v88internal13HGraphBuilder20GenerateObjectEqualsEPNS0_11CallRuntimeE @2011
    _ZN2v88internal13HGraphBuilder20GenerateStringCharAtEPNS0_11CallRuntimeE @2012
    _ZN2v88internal13HGraphBuilder20GenerateSwapElementsEPNS0_11CallRuntimeE @2013
    _ZN2v88internal13HGraphBuilder20VisitBinaryOperationEPNS0_15BinaryOperationE @2014
    _ZN2v88internal13HGraphBuilder20VisitFunctionLiteralEPNS0_15FunctionLiteralE @2015
    _ZN2v88internal13HGraphBuilder20VisitReturnStatementEPNS0_15ReturnStatementE @2016
    _ZN2v88internal13HGraphBuilder20VisitSwitchStatementEPNS0_15SwitchStatementE @2017
    _ZN2v88internal13HGraphBuilder21BreakAndContinueScope3GetEPNS0_18BreakableStatementENS1_9BreakTypeE @2018
    _ZN2v88internal13HGraphBuilder21BuildContextChainWalkEPNS0_8VariableE @2019
    _ZN2v88internal13HGraphBuilder21BuildLoadKeyedGenericEPNS0_6HValueES3_ @2020
    _ZN2v88internal13HGraphBuilder21BuildLoadNamedGenericEPNS0_6HValueEPNS0_8PropertyE @2021
    _ZN2v88internal13HGraphBuilder21BuildStringCharCodeAtEPNS0_6HValueES3_ @2022
    _ZN2v88internal13HGraphBuilder21CreateInlinedSubgraphEPNS0_12HEnvironmentENS0_6HandleINS0_10JSFunctionEEEPNS0_15FunctionLiteralE @2023
    _ZN2v88internal13HGraphBuilder21GenerateStringCompareEPNS0_11CallRuntimeE @2024
    _ZN2v88internal13HGraphBuilder21VisitCompareOperationEPNS0_16CompareOperationE @2025
    _ZN2v88internal13HGraphBuilder21VisitDoWhileStatementEPNS0_16DoWhileStatementE @2026
    _ZN2v88internal13HGraphBuilder22BuildStoreKeyedGenericEPNS0_6HValueES3_S3_ @2027
    _ZN2v88internal13HGraphBuilder22BuildStoreNamedGenericEPNS0_6HValueENS0_6HandleINS0_6StringEEES3_ @2028
    _ZN2v88internal13HGraphBuilder22GenerateNumberToStringEPNS0_11CallRuntimeE @2029
    _ZN2v88internal13HGraphBuilder22VisitContinueStatementEPNS0_17ContinueStatementE @2030
    _ZN2v88internal13HGraphBuilder22VisitDebuggerStatementEPNS0_17DebuggerStatementE @2031
    _ZN2v88internal13HGraphBuilder22VisitTryCatchStatementEPNS0_17TryCatchStatementE @2032
    _ZN2v88internal13HGraphBuilder22VisitWithExitStatementEPNS0_17WithExitStatementE @2033
    _ZN2v88internal13HGraphBuilder23GenerateArgumentsLengthEPNS0_11CallRuntimeE @2034
    _ZN2v88internal13HGraphBuilder23GenerateIsConstructCallEPNS0_11CallRuntimeE @2035
    _ZN2v88internal13HGraphBuilder23VisitIncrementOperationEPNS0_18IncrementOperationE @2036
    _ZN2v88internal13HGraphBuilder23VisitWithEnterStatementEPNS0_18WithEnterStatementE @2037
    _ZN2v88internal13HGraphBuilder24AddCheckConstantFunctionEPNS0_4CallEPNS0_6HValueENS0_6HandleINS0_3MapEEEb @2038
    _ZN2v88internal13HGraphBuilder24GenerateIsNonNegativeSmiEPNS0_11CallRuntimeE @2039
    _ZN2v88internal13HGraphBuilder24GenerateRandomHeapNumberEPNS0_11CallRuntimeE @2040
    _ZN2v88internal13HGraphBuilder24GenerateStringCharCodeAtEPNS0_11CallRuntimeE @2041
    _ZN2v88internal13HGraphBuilder24HandleCompoundAssignmentEPNS0_10AssignmentE @2042
    _ZN2v88internal13HGraphBuilder24HandlePropertyAssignmentEPNS0_10AssignmentE @2043
    _ZN2v88internal13HGraphBuilder24LookupGlobalPropertyCellEPNS0_8VariableEPNS0_12LookupResultEb @2044
    _ZN2v88internal13HGraphBuilder24TryInlineBuiltinFunctionEPNS0_4CallEPNS0_6HValueENS0_6HandleINS0_3MapEEENS0_9CheckTypeE @2045
    _ZN2v88internal13HGraphBuilder24VisitExpressionStatementEPNS0_19ExpressionStatementE @2046
    _ZN2v88internal13HGraphBuilder24VisitTryFinallyStatementEPNS0_19TryFinallyStatementE @2047
    _ZN2v88internal13HGraphBuilder25BuildLoadKeyedFastElementEPNS0_6HValueES3_PNS0_8PropertyE @2048
    _ZN2v88internal13HGraphBuilder25VisitCatchExtensionObjectEPNS0_20CatchExtensionObjectE @2049
    _ZN2v88internal13HGraphBuilder25kInlineFunctionGeneratorsE @2050 DATA
    _ZN2v88internal13HGraphBuilder26BuildStoreKeyedFastElementEPNS0_6HValueES3_S3_PNS0_10ExpressionE @2051
    _ZN2v88internal13HGraphBuilder26GenerateFastAsciiArrayJoinEPNS0_11CallRuntimeE @2052
    _ZN2v88internal13HGraphBuilder26GenerateIsRegExpEquivalentEPNS0_11CallRuntimeE @2053
    _ZN2v88internal13HGraphBuilder26GenerateStringCharFromCodeEPNS0_11CallRuntimeE @2054
    _ZN2v88internal13HGraphBuilder26HandlePolymorphicCallNamedEPNS0_4CallEPNS0_6HValueEPNS0_8ZoneListINS0_6HandleINS0_3MapEEEEENS7_INS0_6StringEEE @2055
    _ZN2v88internal13HGraphBuilder27GenerateGetCachedArrayIndexEPNS0_11CallRuntimeE @2056
    _ZN2v88internal13HGraphBuilder27GenerateHasCachedArrayIndexEPNS0_11CallRuntimeE @2057
    _ZN2v88internal13HGraphBuilder28GenerateIsUndetectableObjectEPNS0_11CallRuntimeE @2058
    _ZN2v88internal13HGraphBuilder29GenerateRegExpConstructResultEPNS0_11CallRuntimeE @2059
    _ZN2v88internal13HGraphBuilder30HandleGlobalVariableAssignmentEPNS0_8VariableEPNS0_6HValueEii @2060
    _ZN2v88internal13HGraphBuilder30VisitSharedFunctionInfoLiteralEPNS0_25SharedFunctionInfoLiteralE @2061
    _ZN2v88internal13HGraphBuilder31BuildLoadKeyedPixelArrayElementEPNS0_6HValueES3_PNS0_8PropertyE @2062
    _ZN2v88internal13HGraphBuilder31HandlePolymorphicLoadNamedFieldEPNS0_8PropertyEPNS0_6HValueEPNS0_8ZoneListINS0_6HandleINS0_3MapEEEEENS7_INS0_6StringEEE @2063
    _ZN2v88internal13HGraphBuilder32BuildStoreKeyedPixelArrayElementEPNS0_6HValueES3_S3_PNS0_10ExpressionE @2064
    _ZN2v88internal13HGraphBuilder32HandlePolymorphicStoreNamedFieldEPNS0_10AssignmentEPNS0_6HValueES5_PNS0_8ZoneListINS0_6HandleINS0_3MapEEEEENS7_INS0_6StringEEE @2065
    _ZN2v88internal13HGraphBuilder44GenerateIsStringWrapperSafeForDefaultValueOfEPNS0_11CallRuntimeE @2066
    _ZN2v88internal13HGraphBuilder6AddPhiEPNS0_4HPhiE @2067
    _ZN2v88internal13HGraphBuilder7BailoutEPKc @2068
    _ZN2v88internal13HGraphBuilder9TryInlineEPNS0_4CallE @2069
    _ZN2v88internal13HGraphBuilder9VisitCallEPNS0_4CallE @2070
    _ZN2v88internal13HGraphBuilderD0Ev @2071
    _ZN2v88internal13HGraphBuilderD1Ev @2072
    _ZN2v88internal13HLeaveInlined16CompileToLithiumEPNS0_13LChunkBuilderE @2073
    _ZN2v88internal13HLeaveInlinedD0Ev @2074
    _ZN2v88internal13HLeaveInlinedD1Ev @2075
    _ZN2v88internal13HLoadElements10DataEqualsEPNS0_6HValueE @2076
    _ZN2v88internal13HLoadElements16CompileToLithiumEPNS0_13LChunkBuilderE @2077
    _ZN2v88internal13HLoadElementsD0Ev @2078
    _ZN2v88internal13HLoadElementsD1Ev @2079
    _ZN2v88internal13HOuterContext10DataEqualsEPNS0_6HValueE @2080
    _ZN2v88internal13HOuterContext16CompileToLithiumEPNS0_13LChunkBuilderE @2081
    _ZN2v88internal13HOuterContextD0Ev @2082
    _ZN2v88internal13HOuterContextD1Ev @2083
    _ZN2v88internal13HPushArgument16CompileToLithiumEPNS0_13LChunkBuilderE @2084
    _ZN2v88internal13HPushArgumentD0Ev @2085
    _ZN2v88internal13HPushArgumentD1Ev @2086
    _ZN2v88internal13HStringLength10DataEqualsEPNS0_6HValueE @2087
    _ZN2v88internal13HStringLength10InferRangeEv @2088
    _ZN2v88internal13HStringLength16CompileToLithiumEPNS0_13LChunkBuilderE @2089
    _ZN2v88internal13HStringLength21CalculateInferredTypeEv @2090
    _ZN2v88internal13HStringLengthD0Ev @2091
    _ZN2v88internal13HStringLengthD1Ev @2092
    _ZN2v88internal13HeapGraphEdge4FromEv @2093
    _ZN2v88internal13HeapGraphEdge4InitEiNS1_4TypeEPKcPNS0_9HeapEntryE @2094
    _ZN2v88internal13HeapGraphEdge4InitEiNS1_4TypeEiPNS0_9HeapEntryE @2095
    _ZN2v88internal13HeapGraphEdge4InitEiiPNS0_9HeapEntryE @2096
    _ZN2v88internal13HeapGraphPath5PrintEv @2097
    _ZN2v88internal13HeapGraphPathC1ERKNS0_4ListIPNS0_13HeapGraphEdgeENS0_25FreeStoreAllocationPolicyEEE @2098
    _ZN2v88internal13HeapGraphPathC2ERKNS0_4ListIPNS0_13HeapGraphEdgeENS0_25FreeStoreAllocationPolicyEEE @2099
    _ZN2v88internal13HeapSortPairsEPNS0_10FixedArrayES2_i @2100
    _ZN2v88internal13ICCompareStub10FinishCodeEPNS0_4CodeE @2101
    _ZN2v88internal13ICCompareStub11GetCodeKindEv @2102
    _ZN2v88internal13ICCompareStub12GenerateMissEPNS0_14MacroAssemblerE @2103
    _ZN2v88internal13ICCompareStub12GenerateSmisEPNS0_14MacroAssemblerE @2104
    _ZN2v88internal13ICCompareStub15GenerateObjectsEPNS0_14MacroAssemblerE @2105
    _ZN2v88internal13ICCompareStub19GenerateHeapNumbersEPNS0_14MacroAssemblerE @2106
    _ZN2v88internal13ICCompareStub8GenerateEPNS0_14MacroAssemblerE @2107
    _ZN2v88internal13ICCompareStub8MajorKeyEv @2108
    _ZN2v88internal13ICCompareStub8MinorKeyEv @2109
    _ZN2v88internal13ICCompareStubD0Ev @2110
    _ZN2v88internal13ICCompareStubD1Ev @2111
    _ZN2v88internal13InternalFrameD0Ev @2112
    _ZN2v88internal13InternalFrameD1Ev @2113
    _ZN2v88internal13IsEqualNumberEPvS1_ @2114
    _ZN2v88internal13IsEqualStringEPvS1_ @2115
    _ZN2v88internal13LArrayLiteral15CompileToNativeEPNS0_8LCodeGenE @2116
    _ZN2v88internal13LArrayLiteralD0Ev @2117
    _ZN2v88internal13LArrayLiteralD1Ev @2118
    _ZN2v88internal13LCallFunction15CompileToNativeEPNS0_8LCodeGenE @2119
    _ZN2v88internal13LCallFunctionD0Ev @2120
    _ZN2v88internal13LCallFunctionD1Ev @2121
    _ZN2v88internal13LChunkBuilder10DoCallStubEPNS0_9HCallStubE @2122
    _ZN2v88internal13LChunkBuilder10DoCheckMapEPNS0_9HCheckMapE @2123
    _ZN2v88internal13LChunkBuilder10DoCheckSmiEPNS0_9HCheckSmiE @2124
    _ZN2v88internal13LChunkBuilder10DoConstantEPNS0_9HConstantE @2125
    _ZN2v88internal13LChunkBuilder10DoIsObjectEPNS0_9HIsObjectE @2126
    _ZN2v88internal13LChunkBuilder10DoOsrEntryEPNS0_9HOsrEntryE @2127
    _ZN2v88internal13LChunkBuilder10DoSimulateEPNS0_9HSimulateE @2128
    _ZN2v88internal13LChunkBuilder10DoTypeofIsEPNS0_9HTypeofIsE @2129
    _ZN2v88internal13LChunkBuilder10MarkAsCallEPNS0_12LInstructionEPNS0_12HInstructionENS1_13CanDeoptimizeE @2130
    _ZN2v88internal13LChunkBuilder10UseAtStartEPNS0_6HValueE @2131
    _ZN2v88internal13LChunkBuilder11DoCallKeyedEPNS0_10HCallKeyedE @2132
    _ZN2v88internal13LChunkBuilder11DoCallNamedEPNS0_10HCallNamedE @2133
    _ZN2v88internal13LChunkBuilder11DoParameterEPNS0_10HParameterE @2134
    _ZN2v88internal13LChunkBuilder11UseRegisterEPNS0_6HValueE @2135
    _ZN2v88internal13LChunkBuilder12DoBasicBlockEPNS0_11HBasicBlockES3_ @2136
    _ZN2v88internal13LChunkBuilder12DoBlockEntryEPNS0_11HBlockEntryE @2137
    _ZN2v88internal13LChunkBuilder12DoCallGlobalEPNS0_11HCallGlobalE @2138
    _ZN2v88internal13LChunkBuilder12DoCompareMapEPNS0_11HCompareMapE @2139
    _ZN2v88internal13LChunkBuilder12DoDeoptimizeEPNS0_11HDeoptimizeE @2140
    _ZN2v88internal13LChunkBuilder12DoInstanceOfEPNS0_11HInstanceOfE @2141
    _ZN2v88internal13LChunkBuilder12DoLoadGlobalEPNS0_11HLoadGlobalE @2142
    _ZN2v88internal13LChunkBuilder12DoStackCheckEPNS0_11HStackCheckE @2143
    _ZN2v88internal13LChunkBuilder12TempRegisterEv @2144
    _ZN2v88internal13LChunkBuilder13DoArithmeticDENS0_5Token5ValueEPNS0_26HArithmeticBinaryOperationE @2145
    _ZN2v88internal13LChunkBuilder13DoArithmeticTENS0_5Token5ValueEPNS0_26HArithmeticBinaryOperationE @2146
    _ZN2v88internal13LChunkBuilder13DoBoundsCheckEPNS0_12HBoundsCheckE @2147
    _ZN2v88internal13LChunkBuilder13DoCallRuntimeEPNS0_12HCallRuntimeE @2148
    _ZN2v88internal13LChunkBuilder13DoCheckNonSmiEPNS0_12HCheckNonSmiE @2149
    _ZN2v88internal13LChunkBuilder13DoClassOfTestEPNS0_12HClassOfTestE @2150
    _ZN2v88internal13LChunkBuilder13DoStoreGlobalEPNS0_12HStoreGlobalE @2151
    _ZN2v88internal13LChunkBuilder13ToUnallocatedENS0_11XMMRegisterE @2152
    _ZN2v88internal13LChunkBuilder13ToUnallocatedENS0_8RegisterE @2153
    _ZN2v88internal13LChunkBuilder13UseOrConstantEPNS0_6HValueE @2154
    _ZN2v88internal13LChunkBuilder14DoAbnormalExitEPNS0_13HAbnormalExitE @2155
    _ZN2v88internal13LChunkBuilder14DoArrayLiteralEPNS0_13HArrayLiteralE @2156
    _ZN2v88internal13LChunkBuilder14DoCallFunctionEPNS0_13HCallFunctionE @2157
    _ZN2v88internal13LChunkBuilder14DoEnterInlinedEPNS0_13HEnterInlinedE @2158
    _ZN2v88internal13LChunkBuilder14DoGlobalObjectEPNS0_13HGlobalObjectE @2159
    _ZN2v88internal13LChunkBuilder14DoLeaveInlinedEPNS0_13HLeaveInlinedE @2160
    _ZN2v88internal13LChunkBuilder14DoLoadElementsEPNS0_13HLoadElementsE @2161
    _ZN2v88internal13LChunkBuilder14DoOuterContextEPNS0_13HOuterContextE @2162
    _ZN2v88internal13LChunkBuilder14DoPushArgumentEPNS0_13HPushArgumentE @2163
    _ZN2v88internal13LChunkBuilder14DoStringLengthEPNS0_13HStringLengthE @2164
    _ZN2v88internal13LChunkBuilder14UseFixedDoubleEPNS0_6HValueENS0_11XMMRegisterE @2165
    _ZN2v88internal13LChunkBuilder15DoCheckFunctionEPNS0_14HCheckFunctionE @2166
    _ZN2v88internal13LChunkBuilder15DoJSArrayLengthEPNS0_14HJSArrayLengthE @2167
    _ZN2v88internal13LChunkBuilder15DoObjectLiteralEPNS0_14HObjectLiteralE @2168
    _ZN2v88internal13LChunkBuilder15DoRegExpLiteralEPNS0_14HRegExpLiteralE @2169
    _ZN2v88internal13LChunkBuilder15UseTempRegisterEPNS0_6HValueE @2170
    _ZN2v88internal13LChunkBuilder16AssignPointerMapEPNS0_12LInstructionE @2171
    _ZN2v88internal13LChunkBuilder16DoApplyArgumentsEPNS0_15HApplyArgumentsE @2172
    _ZN2v88internal13LChunkBuilder16DoDeletePropertyEPNS0_15HDeletePropertyE @2173
    _ZN2v88internal13LChunkBuilder16DoGlobalReceiverEPNS0_15HGlobalReceiverE @2174
    _ZN2v88internal13LChunkBuilder16DoLoadNamedFieldEPNS0_15HLoadNamedFieldE @2175
    _ZN2v88internal13LChunkBuilder16VisitInstructionEPNS0_12HInstructionE @2176
    _ZN2v88internal13LChunkBuilder17AssignEnvironmentEPNS0_12LInstructionE @2177
    _ZN2v88internal13LChunkBuilder17CreateEnvironmentEPNS0_12HEnvironmentE @2178
    _ZN2v88internal13LChunkBuilder17DoArgumentsLengthEPNS0_16HArgumentsLengthE @2179
    _ZN2v88internal13LChunkBuilder17DoArgumentsObjectEPNS0_16HArgumentsObjectE @2180
    _ZN2v88internal13LChunkBuilder17DoCallKnownGlobalEPNS0_16HCallKnownGlobalE @2181
    _ZN2v88internal13LChunkBuilder17DoFunctionLiteralEPNS0_16HFunctionLiteralE @2182
    _ZN2v88internal13LChunkBuilder17DoHasInstanceTypeEPNS0_16HHasInstanceTypeE @2183
    _ZN2v88internal13LChunkBuilder17DoIsConstructCallEPNS0_16HIsConstructCallE @2184
    _ZN2v88internal13LChunkBuilder17DoLoadContextSlotEPNS0_16HLoadContextSlotE @2185
    _ZN2v88internal13LChunkBuilder17DoStoreNamedFieldEPNS0_16HStoreNamedFieldE @2186
    _ZN2v88internal13LChunkBuilder17DoUnknownOSRValueEPNS0_16HUnknownOSRValueE @2187
    _ZN2v88internal13LChunkBuilder17MarkAsSaveDoublesEPNS0_12LInstructionE @2188
    _ZN2v88internal13LChunkBuilder18DoFixedArrayLengthEPNS0_17HFixedArrayLengthE @2189
    _ZN2v88internal13LChunkBuilder18DoLoadKeyedGenericEPNS0_17HLoadKeyedGenericE @2190
    _ZN2v88internal13LChunkBuilder18DoLoadNamedGenericEPNS0_17HLoadNamedGenericE @2191
    _ZN2v88internal13LChunkBuilder18DoPixelArrayLengthEPNS0_17HPixelArrayLengthE @2192
    _ZN2v88internal13LChunkBuilder18DoStoreContextSlotEPNS0_17HStoreContextSlotE @2193
    _ZN2v88internal13LChunkBuilder18DoStringCharCodeAtEPNS0_17HStringCharCodeAtE @2194
    _ZN2v88internal13LChunkBuilder18UseRegisterAtStartEPNS0_6HValueE @2195
    _ZN2v88internal13LChunkBuilder19DoAccessArgumentsAtEPNS0_18HAccessArgumentsAtE @2196
    _ZN2v88internal13LChunkBuilder19DoArgumentsElementsEPNS0_18HArgumentsElementsE @2197
    _ZN2v88internal13LChunkBuilder19DoCheckInstanceTypeEPNS0_18HCheckInstanceTypeE @2198
    _ZN2v88internal13LChunkBuilder19DoCompareJSObjectEqEPNS0_18HCompareJSObjectEqE @2199
    _ZN2v88internal13LChunkBuilder19DoStoreKeyedGenericEPNS0_18HStoreKeyedGenericE @2200
    _ZN2v88internal13LChunkBuilder19DoStoreNamedGenericEPNS0_18HStoreNamedGenericE @2201
    _ZN2v88internal13LChunkBuilder20DoCheckPrototypeMapsEPNS0_19HCheckPrototypeMapsE @2202
    _ZN2v88internal13LChunkBuilder20DoUnaryMathOperationEPNS0_19HUnaryMathOperationE @2203
    _ZN2v88internal13LChunkBuilder20UseOrConstantAtStartEPNS0_6HValueE @2204
    _ZN2v88internal13LChunkBuilder21DoGetCachedArrayIndexEPNS0_20HGetCachedArrayIndexE @2205
    _ZN2v88internal13LChunkBuilder21DoHasCachedArrayIndexEPNS0_20HHasCachedArrayIndexE @2206
    _ZN2v88internal13LChunkBuilder21UseRegisterOrConstantEPNS0_6HValueE @2207
    _ZN2v88internal13LChunkBuilder22DoCallConstantFunctionEPNS0_21HCallConstantFunctionE @2208
    _ZN2v88internal13LChunkBuilder22DoLoadKeyedFastElementEPNS0_21HLoadKeyedFastElementE @2209
    _ZN2v88internal13LChunkBuilder23DoInstanceOfKnownGlobalEPNS0_22HInstanceOfKnownGlobalE @2210
    _ZN2v88internal13LChunkBuilder23DoLoadFunctionPrototypeEPNS0_22HLoadFunctionPrototypeE @2211
    _ZN2v88internal13LChunkBuilder23DoLoadPixelArrayElementEPNS0_22HLoadPixelArrayElementE @2212
    _ZN2v88internal13LChunkBuilder23DoStoreKeyedFastElementEPNS0_22HStoreKeyedFastElementE @2213
    _ZN2v88internal13LChunkBuilder24DoStorePixelArrayElementEPNS0_23HStorePixelArrayElementE @2214
    _ZN2v88internal13LChunkBuilder28UseRegisterOrConstantAtStartEPNS0_6HValueE @2215
    _ZN2v88internal13LChunkBuilder31DoLoadPixelArrayExternalPointerEPNS0_30HLoadPixelArrayExternalPointerE @2216
    _ZN2v88internal13LChunkBuilder3UseEPNS0_6HValueE @2217
    _ZN2v88internal13LChunkBuilder3UseEPNS0_6HValueEPNS0_12LUnallocatedE @2218
    _ZN2v88internal13LChunkBuilder46SetInstructionPendingDeoptimizationEnvironmentEPNS0_12LInstructionEi @2219
    _ZN2v88internal13LChunkBuilder48ClearInstructionPendingDeoptimizationEnvironmentEv @2220
    _ZN2v88internal13LChunkBuilder5AbortEPKcz @2221
    _ZN2v88internal13LChunkBuilder5BuildEv @2222
    _ZN2v88internal13LChunkBuilder5DoAddEPNS0_4HAddE @2223
    _ZN2v88internal13LChunkBuilder5DoBitENS0_5Token5ValueEPNS0_23HBitwiseBinaryOperationE @2224
    _ZN2v88internal13LChunkBuilder5DoDivEPNS0_4HDivE @2225
    _ZN2v88internal13LChunkBuilder5DoModEPNS0_4HModE @2226
    _ZN2v88internal13LChunkBuilder5DoMulEPNS0_4HMulE @2227
    _ZN2v88internal13LChunkBuilder5DoSarEPNS0_4HSarE @2228
    _ZN2v88internal13LChunkBuilder5DoShlEPNS0_4HShlE @2229
    _ZN2v88internal13LChunkBuilder5DoShrEPNS0_4HShrE @2230
    _ZN2v88internal13LChunkBuilder5DoSubEPNS0_4HSubE @2231
    _ZN2v88internal13LChunkBuilder6DoGotoEPNS0_5HGotoE @2232
    _ZN2v88internal13LChunkBuilder6DoTestEPNS0_5HTestE @2233
    _ZN2v88internal13LChunkBuilder6UseAnyEPNS0_6HValueE @2234
    _ZN2v88internal13LChunkBuilder7DoBitOrEPNS0_6HBitOrE @2235
    _ZN2v88internal13LChunkBuilder7DoIsSmiEPNS0_6HIsSmiE @2236
    _ZN2v88internal13LChunkBuilder7DoPowerEPNS0_6HPowerE @2237
    _ZN2v88internal13LChunkBuilder7DoShiftENS0_5Token5ValueEPNS0_23HBitwiseBinaryOperationE @2238
    _ZN2v88internal13LChunkBuilder7DoThrowEPNS0_6HThrowE @2239
    _ZN2v88internal13LChunkBuilder8DoBitAndEPNS0_7HBitAndE @2240
    _ZN2v88internal13LChunkBuilder8DoBitNotEPNS0_7HBitNotE @2241
    _ZN2v88internal13LChunkBuilder8DoBitXorEPNS0_7HBitXorE @2242
    _ZN2v88internal13LChunkBuilder8DoChangeEPNS0_7HChangeE @2243
    _ZN2v88internal13LChunkBuilder8DoIsNullEPNS0_7HIsNullE @2244
    _ZN2v88internal13LChunkBuilder8DoReturnEPNS0_7HReturnE @2245
    _ZN2v88internal13LChunkBuilder8DoTypeofEPNS0_7HTypeofE @2246
    _ZN2v88internal13LChunkBuilder8UseFixedEPNS0_6HValueENS0_8RegisterE @2247
    _ZN2v88internal13LChunkBuilder9DoCallNewEPNS0_8HCallNewE @2248
    _ZN2v88internal13LChunkBuilder9DoCompareEPNS0_8HCompareE @2249
    _ZN2v88internal13LChunkBuilder9DoContextEPNS0_8HContextE @2250
    _ZN2v88internal13LChunkBuilder9DoValueOfEPNS0_8HValueOfE @2251
    _ZN2v88internal13LChunkBuilder9FixedTempENS0_11XMMRegisterE @2252
    _ZN2v88internal13LChunkBuilder9FixedTempENS0_8RegisterE @2253
    _ZN2v88internal13LChunkBuilder9ToOperandENS0_8RegisterE @2254
    _ZN2v88internal13LDeferredCodeD0Ev @2255
    _ZN2v88internal13LDeferredCodeD1Ev @2256
    _ZN2v88internal13LGlobalObject15CompileToNativeEPNS0_8LCodeGenE @2257
    _ZN2v88internal13LGlobalObjectD0Ev @2258
    _ZN2v88internal13LGlobalObjectD1Ev @2259
    _ZN2v88internal13LLoadElements15CompileToNativeEPNS0_8LCodeGenE @2260
    _ZN2v88internal13LLoadElementsD0Ev @2261
    _ZN2v88internal13LLoadElementsD1Ev @2262
    _ZN2v88internal13LNumberUntagD15CompileToNativeEPNS0_8LCodeGenE @2263
    _ZN2v88internal13LNumberUntagDD0Ev @2264
    _ZN2v88internal13LNumberUntagDD1Ev @2265
    _ZN2v88internal13LOuterContext15CompileToNativeEPNS0_8LCodeGenE @2266
    _ZN2v88internal13LOuterContextD0Ev @2267
    _ZN2v88internal13LOuterContextD1Ev @2268
    _ZN2v88internal13LPushArgument15CompileToNativeEPNS0_8LCodeGenE @2269
    _ZN2v88internal13LPushArgumentD0Ev @2270
    _ZN2v88internal13LPushArgumentD1Ev @2271
    _ZN2v88internal13LStringLength15CompileToNativeEPNS0_8LCodeGenE @2272
    _ZN2v88internal13LStringLengthD0Ev @2273
    _ZN2v88internal13LStringLengthD1Ev @2274
    _ZN2v88internal13ObjectLiteral15AsObjectLiteralEv @2275
    _ZN2v88internal13ObjectLiteral18CalculateEmitStoreEv @2276
    _ZN2v88internal13ObjectLiteral6AcceptEPNS0_10AstVisitorE @2277
    _ZN2v88internal13ObjectLiteral8Property10emit_storeEv @2278
    _ZN2v88internal13ObjectLiteral8Property14set_emit_storeEb @2279
    _ZN2v88internal13ObjectLiteral8Property18IsCompileTimeValueEv @2280
    _ZN2v88internal13ObjectLiteral8PropertyC1EPNS0_7LiteralEPNS0_10ExpressionE @2281
    _ZN2v88internal13ObjectLiteral8PropertyC1EbPNS0_15FunctionLiteralE @2282
    _ZN2v88internal13ObjectLiteral8PropertyC2EPNS0_7LiteralEPNS0_10ExpressionE @2283
    _ZN2v88internal13ObjectLiteral8PropertyC2EbPNS0_15FunctionLiteralE @2284
    _ZN2v88internal13ObjectLiteralD0Ev @2285
    _ZN2v88internal13ObjectLiteralD1Ev @2286
    _ZN2v88internal13ObjectVisitor12VisitPointerEPPNS0_6ObjectE @2287
    _ZN2v88internal13ObjectVisitor14VisitCodeEntryEPh @2288
    _ZN2v88internal13ObjectVisitor15VisitCodeTargetEPNS0_9RelocInfoE @2289
    _ZN2v88internal13ObjectVisitor16VisitDebugTargetEPNS0_9RelocInfoE @2290
    _ZN2v88internal13ObjectVisitor17VisitRuntimeEntryEPNS0_9RelocInfoE @2291
    _ZN2v88internal13ObjectVisitor23VisitExternalReferencesEPPhS3_ @2292
    _ZN2v88internal13ObjectVisitor23VisitGlobalPropertyCellEPNS0_9RelocInfoE @2293
    _ZN2v88internal13ObjectVisitor24VisitExternalAsciiStringEPPNS_6String27ExternalAsciiStringResourceE @2294
    _ZN2v88internal13ObjectVisitor26VisitExternalTwoByteStringEPPNS_6String22ExternalStringResourceE @2295
    _ZN2v88internal13ObjectVisitorD0Ev @2296
    _ZN2v88internal13ObjectVisitorD1Ev @2297
    _ZN2v88internal13OffsetsVector22static_offsets_vector_E @2298 DATA
    _ZN2v88internal13ParserMessageD1Ev @2299
    _ZN2v88internal13ParserMessageD2Ev @2300
    _ZN2v88internal13PcToCodeCache13GetCacheEntryEPh @2301
    _ZN2v88internal13PcToCodeCache16GcSafeCastToCodeEPNS0_10HeapObjectEPh @2302
    _ZN2v88internal13PcToCodeCache19GcSafeFindCodeForPcEPh @2303
    _ZN2v88internal13PcToCodeCache6cache_E @2304 DATA
    _ZN2v88internal13RegExpBuilder10FlushTermsEv @2305
    _ZN2v88internal13RegExpBuilder12AddAssertionEPNS0_10RegExpTreeE @2306
    _ZN2v88internal13RegExpBuilder12AddCharacterEt @2307
    _ZN2v88internal13RegExpBuilder14NewAlternativeEv @2308
    _ZN2v88internal13RegExpBuilder15FlushCharactersEv @2309
    _ZN2v88internal13RegExpBuilder19AddQuantifierToAtomEiiNS0_16RegExpQuantifier4TypeE @2310
    _ZN2v88internal13RegExpBuilder7AddAtomEPNS0_10RegExpTreeE @2311
    _ZN2v88internal13RegExpBuilder8AddEmptyEv @2312
    _ZN2v88internal13RegExpBuilder8ToRegExpEv @2313
    _ZN2v88internal13RegExpBuilder9FlushTextEv @2314
    _ZN2v88internal13RegExpBuilderC1Ev @2315
    _ZN2v88internal13RegExpBuilderC2Ev @2316
    _ZN2v88internal13RegExpCapture15IsAnchoredAtEndEv @2317
    _ZN2v88internal13RegExpCapture16CaptureRegistersEv @2318
    _ZN2v88internal13RegExpCapture17IsAnchoredAtStartEv @2319
    _ZN2v88internal13RegExpCapture6AcceptEPNS0_13RegExpVisitorEPv @2320
    _ZN2v88internal13RegExpCapture6ToNodeEPNS0_10RegExpTreeEiPNS0_14RegExpCompilerEPNS0_10RegExpNodeE @2321
    _ZN2v88internal13RegExpCapture6ToNodeEPNS0_14RegExpCompilerEPNS0_10RegExpNodeE @2322
    _ZN2v88internal13RegExpCapture9AsCaptureEv @2323
    _ZN2v88internal13RegExpCapture9IsCaptureEv @2324
    _ZN2v88internal13RegExpCapture9max_matchEv @2325
    _ZN2v88internal13RegExpCapture9min_matchEv @2326
    _ZN2v88internal13RegExpCaptureD0Ev @2327
    _ZN2v88internal13RegExpCaptureD1Ev @2328
    _ZN2v88internal13RegExpLiteral15AsRegExpLiteralEv @2329
    _ZN2v88internal13RegExpLiteral6AcceptEPNS0_10AstVisitorE @2330
    _ZN2v88internal13RegExpLiteralD0Ev @2331
    _ZN2v88internal13RegExpLiteralD1Ev @2332
    _ZN2v88internal13RegExpVisitorD0Ev @2333
    _ZN2v88internal13RegExpVisitorD1Ev @2334
    _ZN2v88internal13RelocIterator15AdvanceReadDataEv @2335
    _ZN2v88internal13RelocIterator31AdvanceReadVariableLengthPCJumpEv @2336
    _ZN2v88internal13RelocIterator4nextEv @2337
    _ZN2v88internal13RelocIteratorC1EPNS0_4CodeEi @2338
    _ZN2v88internal13RelocIteratorC1ERKNS0_8CodeDescEi @2339
    _ZN2v88internal13RelocIteratorC2EPNS0_4CodeEi @2340
    _ZN2v88internal13RelocIteratorC2ERKNS0_8CodeDescEi @2341
    _ZN2v88internal13ScopeIterator11ScopeObjectEv @2342
    _ZN2v88internal13SeqRegExpNodeD0Ev @2343
    _ZN2v88internal13SeqRegExpNodeD1Ev @2344
    _ZN2v88internal13SetOwnElementENS0_6HandleINS0_8JSObjectEEEjNS1_INS0_6ObjectEEE @2345
    _ZN2v88internal13SpaceIterator14CreateIteratorEv @2346
    _ZN2v88internal13SpaceIterator4nextEv @2347
    _ZN2v88internal13SpaceIterator8has_nextEv @2348
    _ZN2v88internal13SpaceIteratorC1EPFiPNS0_10HeapObjectEE @2349
    _ZN2v88internal13SpaceIteratorC1Ev @2350
    _ZN2v88internal13SpaceIteratorC2EPFiPNS0_10HeapObjectEE @2351
    _ZN2v88internal13SpaceIteratorC2Ev @2352
    _ZN2v88internal13SpaceIteratorD0Ev @2353
    _ZN2v88internal13SpaceIteratorD1Ev @2354
    _ZN2v88internal13SpaceIteratorD2Ev @2355
    _ZN2v88internal13StandardFrame11SetCallerFpEPh @2356
    _ZN2v88internal13StandardFrameD0Ev @2357
    _ZN2v88internal13StandardFrameD1Ev @2358
    _ZN2v88internal13StringAddStub23GenerateConvertArgumentEPNS0_14MacroAssemblerEiNS0_8RegisterES4_S4_S4_PNS0_5LabelE @2359
    _ZN2v88internal13StringAddStub8GenerateEPNS0_14MacroAssemblerE @2360
    _ZN2v88internal13StringAddStub8MajorKeyEv @2361
    _ZN2v88internal13StringAddStub8MinorKeyEv @2362
    _ZN2v88internal13StringAddStubD0Ev @2363
    _ZN2v88internal13StringAddStubD1Ev @2364
    _ZN2v88internal13StringBuilder10AddPaddingEci @2365
    _ZN2v88internal13StringBuilder12AddFormattedEPKcz @2366
    _ZN2v88internal13StringBuilder12AddSubstringEPKci @2367
    _ZN2v88internal13StringBuilder16AddFormattedListEPKcPc @2368
    _ZN2v88internal13StringBuilder8FinalizeEv @2369
    _ZN2v88internal13StringBuilder9AddStringEPKc @2370
    _ZN2v88internal13StringBuilderC1Ei @2371
    _ZN2v88internal13StringBuilderC2Ei @2372
    _ZN2v88internal13SubStringStub8GenerateEPNS0_14MacroAssemblerE @2373
    _ZN2v88internal13SubStringStub8MajorKeyEv @2374
    _ZN2v88internal13SubStringStub8MinorKeyEv @2375
    _ZN2v88internal13SubStringStubD0Ev @2376
    _ZN2v88internal13SubStringStubD1Ev @2377
    _ZN2v88internal13ThreadManager10IsArchivedEv @2378
    _ZN2v88internal13ThreadManager12mutex_owner_E @2379 DATA
    _ZN2v88internal13ThreadManager13ArchiveThreadEv @2380
    _ZN2v88internal13ThreadManager13RestoreThreadEv @2381
    _ZN2v88internal13ThreadManager18TerminateExecutionEi @2382
    _ZN2v88internal13ThreadManager19FreeThreadResourcesEv @2383
    _ZN2v88internal13ThreadManager20EagerlyArchiveThreadEv @2384
    _ZN2v88internal13ThreadManager22IterateArchivedThreadsEPNS0_13ThreadVisitorE @2385
    _ZN2v88internal13ThreadManager23lazily_archived_thread_E @2386 DATA
    _ZN2v88internal13ThreadManager29lazily_archived_thread_state_E @2387 DATA
    _ZN2v88internal13ThreadManager4LockEv @2388
    _ZN2v88internal13ThreadManager5HasIdEv @2389
    _ZN2v88internal13ThreadManager6UnlockEv @2390
    _ZN2v88internal13ThreadManager6mutex_E @2391 DATA
    _ZN2v88internal13ThreadManager7IterateEPNS0_13ObjectVisitorE @2392
    _ZN2v88internal13ThreadManager8AssignIdEv @2393
    _ZN2v88internal13ThreadManager8last_id_E @2394 DATA
    _ZN2v88internal13ThreadManager9CurrentIdEv @2395
    _ZN2v88internal13ThreadVisitorD0Ev @2396
    _ZN2v88internal13ThreadVisitorD1Ev @2397
    _ZN2v88internal13ToBooleanStub8GenerateEPNS0_14MacroAssemblerE @2398
    _ZN2v88internal13ToBooleanStub8MajorKeyEv @2399
    _ZN2v88internal13ToBooleanStub8MinorKeyEv @2400
    _ZN2v88internal13ToBooleanStubD0Ev @2401
    _ZN2v88internal13ToBooleanStubD1Ev @2402
    _ZN2v88internal13Utf8SymbolKey13HashForObjectEPNS0_6ObjectE @2403
    _ZN2v88internal13Utf8SymbolKey4HashEv @2404
    _ZN2v88internal13Utf8SymbolKey7IsMatchEPNS0_6ObjectE @2405
    _ZN2v88internal13Utf8SymbolKey8AsObjectEv @2406
    _ZN2v88internal13Utf8SymbolKeyD0Ev @2407
    _ZN2v88internal13Utf8SymbolKeyD1Ev @2408
    _ZN2v88internal13VariableProxy10AsPropertyEv @2409
    _ZN2v88internal13VariableProxy10AsVariableEv @2410
    _ZN2v88internal13VariableProxy11IsArgumentsEv @2411
    _ZN2v88internal13VariableProxy15AsVariableProxyEv @2412
    _ZN2v88internal13VariableProxy19IsValidLeftHandSideEv @2413
    _ZN2v88internal13VariableProxy6AcceptEPNS0_10AstVisitorE @2414
    _ZN2v88internal13VariableProxy6BindToEPNS0_8VariableE @2415
    _ZN2v88internal13VariableProxy9IsTrivialEv @2416
    _ZN2v88internal13VariableProxyC1ENS0_6HandleINS0_6StringEEEbb @2417
    _ZN2v88internal13VariableProxyC1EPNS0_8VariableE @2418
    _ZN2v88internal13VariableProxyC1Eb @2419
    _ZN2v88internal13VariableProxyC2ENS0_6HandleINS0_6StringEEEbb @2420
    _ZN2v88internal13VariableProxyC2EPNS0_8VariableE @2421
    _ZN2v88internal13VariableProxyC2Eb @2422
    _ZN2v88internal13VariableProxyD0Ev @2423
    _ZN2v88internal13VariableProxyD1Ev @2424
    _ZN2v88internal13VirtualMemory10IsReservedEv @2425
    _ZN2v88internal13VirtualMemory6CommitEPvjb @2426
    _ZN2v88internal13VirtualMemory8UncommitEPvj @2427
    _ZN2v88internal13VirtualMemoryC1Ej @2428
    _ZN2v88internal13VirtualMemoryC2Ej @2429
    _ZN2v88internal13VirtualMemoryD1Ev @2430
    _ZN2v88internal13VirtualMemoryD2Ev @2431
    _ZN2v88internal13ZoneAllocator3NewEj @2432
    _ZN2v88internal13ZoneAllocator6DeleteEPv @2433
    _ZN2v88internal13ZoneAllocatorD0Ev @2434
    _ZN2v88internal13ZoneAllocatorD1Ev @2435
    _ZN2v88internal13top_addressesE @2436 DATA
    _ZN2v88internal14AsciiSymbolKey7IsMatchEPNS0_6ObjectE @2437
    _ZN2v88internal14AsciiSymbolKey8AsObjectEv @2438
    _ZN2v88internal14AsciiSymbolKeyD0Ev @2439
    _ZN2v88internal14AsciiSymbolKeyD1Ev @2440
    _ZN2v88internal14BinaryOp_PatchENS0_9ArgumentsE @2441
    _ZN2v88internal14BreakPointInfo13SetBreakPointENS0_6HandleIS1_EENS2_INS0_6ObjectEEE @2442
    _ZN2v88internal14BreakPointInfo15ClearBreakPointENS0_6HandleIS1_EENS2_INS0_6ObjectEEE @2443
    _ZN2v88internal14BreakPointInfo18GetBreakPointCountEv @2444
    _ZN2v88internal14BreakPointInfo19HasBreakPointObjectENS0_6HandleIS1_EENS2_INS0_6ObjectEEE @2445
    _ZN2v88internal14BreakStatement16AsBreakStatementEv @2446
    _ZN2v88internal14BreakStatement6AcceptEPNS0_10AstVisitorE @2447
    _ZN2v88internal14BreakStatementD0Ev @2448
    _ZN2v88internal14BreakStatementD1Ev @2449
    _ZN2v88internal14CharacterRange11IsCanonicalEPNS0_8ZoneListIS1_EE @2450
    _ZN2v88internal14CharacterRange12CanonicalizeEPNS0_8ZoneListIS1_EE @2451
    _ZN2v88internal14CharacterRange13GetWordBoundsEv @2452
    _ZN2v88internal14CharacterRange14AddClassEscapeEtPNS0_8ZoneListIS1_EE @2453
    _ZN2v88internal14CharacterRange18AddCaseEquivalentsEPNS0_8ZoneListIS1_EEb @2454
    _ZN2v88internal14CharacterRange21WordCharacterRelationEPNS0_8ZoneListIS1_EE @2455
    _ZN2v88internal14CharacterRange5MergeEPNS0_8ZoneListIS1_EES4_S4_S4_S4_ @2456
    _ZN2v88internal14CharacterRange5SplitEPNS0_8ZoneListIS1_EENS0_6VectorIKtEEPS4_S8_ @2457
    _ZN2v88internal14CharacterRange6NegateEPNS0_8ZoneListIS1_EES4_ @2458
    _ZN2v88internal14CommandMessage3NewERKNS0_6VectorItEEPNS_5Debug10ClientDataE @2459
    _ZN2v88internal14CommandMessage7DisposeEv @2460
    _ZN2v88internal14CommandMessageC1ERKNS0_6VectorItEEPNS_5Debug10ClientDataE @2461
    _ZN2v88internal14CommandMessageC1Ev @2462
    _ZN2v88internal14CommandMessageC2ERKNS0_6VectorItEEPNS_5Debug10ClientDataE @2463
    _ZN2v88internal14CommandMessageC2Ev @2464
    _ZN2v88internal14CommandMessageD1Ev @2465
    _ZN2v88internal14CommandMessageD2Ev @2466
    _ZN2v88internal14CompareIC_MissENS0_9ArgumentsE @2467
    _ZN2v88internal14ConstructFrameD0Ev @2468
    _ZN2v88internal14ConstructFrameD1Ev @2469
    _ZN2v88internal14CountOperation15MarkAsStatementEv @2470
    _ZN2v88internal14CountOperation16AsCountOperationEv @2471
    _ZN2v88internal14CountOperation6AcceptEPNS0_10AstVisitorE @2472
    _ZN2v88internal14CountOperationD0Ev @2473
    _ZN2v88internal14CountOperationD1Ev @2474
    _ZN2v88internal14CreateStackMapEv @2475
    _ZN2v88internal14DeletePropertyENS0_6HandleINS0_8JSObjectEEENS1_INS0_6StringEEE @2476
    _ZN2v88internal14DoubleConstant10minus_zeroE @2477 DATA
    _ZN2v88internal14DoubleConstant17negative_infinityE @2478 DATA
    _ZN2v88internal14DoubleConstant7min_intE @2479 DATA
    _ZN2v88internal14DoubleConstant8one_halfE @2480 DATA
    _ZN2v88internal14EmptyStatement16AsEmptyStatementEv @2481
    _ZN2v88internal14EmptyStatement6AcceptEPNS0_10AstVisitorE @2482
    _ZN2v88internal14EmptyStatementD0Ev @2483
    _ZN2v88internal14EmptyStatementD1Ev @2484
    _ZN2v88internal14EnsureCompiledENS0_6HandleINS0_18SharedFunctionInfoEEENS0_18ClearExceptionFlagE @2485
    _ZN2v88internal14FLAG_expose_gcE @2486 DATA
    _ZN2v88internal14FLAG_gc_globalE @2487 DATA
    _ZN2v88internal14FLAG_prof_autoE @2488 DATA
    _ZN2v88internal14FLAG_prof_lazyE @2489 DATA
    _ZN2v88internal14FLAG_trace_gvnE @2490 DATA
    _ZN2v88internal14FLAG_trace_optE @2491 DATA
    _ZN2v88internal14FLAG_trace_osrE @2492 DATA
    _ZN2v88internal14FLAG_trace_simE @2493 DATA
    _ZN2v88internal14FLAG_use_rangeE @2494 DATA
    _ZN2v88internal14ForInStatement16AsForInStatementEv @2495
    _ZN2v88internal14ForInStatement6AcceptEPNS0_10AstVisitorE @2496
    _ZN2v88internal14ForInStatementC1EPNS0_8ZoneListINS0_6HandleINS0_6StringEEEEE @2497
    _ZN2v88internal14ForInStatementD0Ev @2498
    _ZN2v88internal14ForInStatementD1Ev @2499
    _ZN2v88internal14HCheckFunction10DataEqualsEPNS0_6HValueE @2500
    _ZN2v88internal14HCheckFunction11PrintDataToEPNS0_12StringStreamE @2501
    _ZN2v88internal14HCheckFunction16CompileToLithiumEPNS0_13LChunkBuilderE @2502
    _ZN2v88internal14HCheckFunction21CalculateInferredTypeEv @2503
    _ZN2v88internal14HCheckFunctionD0Ev @2504
    _ZN2v88internal14HCheckFunctionD1Ev @2505
    _ZN2v88internal14HJSArrayLength10DataEqualsEPNS0_6HValueE @2506
    _ZN2v88internal14HJSArrayLength16CompileToLithiumEPNS0_13LChunkBuilderE @2507
    _ZN2v88internal14HJSArrayLengthD0Ev @2508
    _ZN2v88internal14HJSArrayLengthD1Ev @2509
    _ZN2v88internal14HObjectLiteral16CompileToLithiumEPNS0_13LChunkBuilderE @2510
    _ZN2v88internal14HObjectLiteralD0Ev @2511
    _ZN2v88internal14HObjectLiteralD1Ev @2512
    _ZN2v88internal14HRangeAnalysis10InferRangeEPNS0_6HValueE @2513
    _ZN2v88internal14HRangeAnalysis10RollBackToEi @2514
    _ZN2v88internal14HRangeAnalysis10TraceRangeEPKcz @2515
    _ZN2v88internal14HRangeAnalysis13InferPhiRangeEPNS0_4HPhiE @2516
    _ZN2v88internal14HRangeAnalysis21InferControlFlowRangeENS0_5Token5ValueEPNS0_6HValueES5_ @2517
    _ZN2v88internal14HRangeAnalysis21InferControlFlowRangeEPNS0_5HTestEPNS0_11HBasicBlockE @2518
    _ZN2v88internal14HRangeAnalysis7AnalyzeEPNS0_11HBasicBlockE @2519
    _ZN2v88internal14HRangeAnalysis7AnalyzeEv @2520
    _ZN2v88internal14HRangeAnalysis8AddRangeEPNS0_6HValueEPNS0_5RangeE @2521
    _ZN2v88internal14HRegExpLiteral16CompileToLithiumEPNS0_13LChunkBuilderE @2522
    _ZN2v88internal14HRegExpLiteralD0Ev @2523
    _ZN2v88internal14HRegExpLiteralD1Ev @2524
    _ZN2v88internal14HeapEntriesMap14CountReferenceEPvS2_PiS3_ @2525
    _ZN2v88internal14HeapEntriesMap15AllocateEntriesEv @2526
    _ZN2v88internal14HeapEntriesMap15HeapThingsMatchEPvS2_ @2527
    _ZN2v88internal14HeapEntriesMap21kHeapEntryPlaceholderE @2528 DATA
    _ZN2v88internal14HeapEntriesMap3MapEPv @2529
    _ZN2v88internal14HeapEntriesMap4PairEPvPNS0_20HeapEntriesAllocatorEPNS0_9HeapEntryE @2530
    _ZN2v88internal14HeapEntriesMapC1Ev @2531
    _ZN2v88internal14HeapEntriesMapC2Ev @2532
    _ZN2v88internal14HeapEntriesMapD1Ev @2533
    _ZN2v88internal14HeapEntriesMapD2Ev @2534
    _ZN2v88internal14HeapObjectsMap10FindObjectEPh @2535
    _ZN2v88internal14HeapObjectsMap10MoveObjectEPhS2_ @2536
    _ZN2v88internal14HeapObjectsMap14AddressesMatchEPvS2_ @2537
    _ZN2v88internal14HeapObjectsMap16kGcRootsObjectIdE @2538 DATA
    _ZN2v88internal14HeapObjectsMap17RemoveDeadEntriesEv @2539
    _ZN2v88internal14HeapObjectsMap21kInternalRootObjectIdE @2540 DATA
    _ZN2v88internal14HeapObjectsMap23kFirstAvailableObjectIdE @2541 DATA
    _ZN2v88internal14HeapObjectsMap26SnapshotGenerationFinishedEv @2542
    _ZN2v88internal14HeapObjectsMap8AddEntryEPhy @2543
    _ZN2v88internal14HeapObjectsMap9FindEntryEPh @2544
    _ZN2v88internal14HeapObjectsMapC1Ev @2545
    _ZN2v88internal14HeapObjectsMapC2Ev @2546
    _ZN2v88internal14HeapObjectsMapD1Ev @2547
    _ZN2v88internal14HeapObjectsMapD2Ev @2548
    _ZN2v88internal14HeapObjectsSet5ClearEv @2549
    _ZN2v88internal14HeapObjectsSet6InsertEPNS0_6ObjectE @2550
    _ZN2v88internal14HeapObjectsSet8ContainsEPNS0_6ObjectE @2551
    _ZN2v88internal14HeapObjectsSetC1Ev @2552
    _ZN2v88internal14HeapObjectsSetC2Ev @2553
    _ZN2v88internal14HistogramTimer4StopEv @2554
    _ZN2v88internal14HistogramTimer5StartEv @2555
    _ZN2v88internal14InstanceofStub4leftEv @2556
    _ZN2v88internal14InstanceofStub5rightEv @2557
    _ZN2v88internal14InstanceofStub7GetNameEv @2558
    _ZN2v88internal14InstanceofStub8GenerateEPNS0_14MacroAssemblerE @2559
    _ZN2v88internal14InstanceofStub8MajorKeyEv @2560
    _ZN2v88internal14InstanceofStub8MinorKeyEv @2561
    _ZN2v88internal14InstanceofStubD0Ev @2562
    _ZN2v88internal14InstanceofStubD1Ev @2563
    _ZN2v88internal14IntegerConvertEPNS0_14MacroAssemblerENS0_8RegisterENS0_8TypeInfoEbPNS0_5LabelE @2564
    _ZN2v88internal14KeywordMatcher13first_states_E @2565 DATA
    _ZN2v88internal14KeywordMatcher4StepEj @2566
    _ZN2v88internal14LCheckFunction15CompileToNativeEPNS0_8LCodeGenE @2567
    _ZN2v88internal14LCheckFunctionD0Ev @2568
    _ZN2v88internal14LCheckFunctionD1Ev @2569
    _ZN2v88internal14LCmpJSObjectEq15CompileToNativeEPNS0_8LCodeGenE @2570
    _ZN2v88internal14LCmpJSObjectEqD0Ev @2571
    _ZN2v88internal14LCmpJSObjectEqD1Ev @2572
    _ZN2v88internal14LCmpTAndBranch15CompileToNativeEPNS0_8LCodeGenE @2573
    _ZN2v88internal14LCmpTAndBranchD0Ev @2574
    _ZN2v88internal14LCmpTAndBranchD1Ev @2575
    _ZN2v88internal14LJSArrayLength15CompileToNativeEPNS0_8LCodeGenE @2576
    _ZN2v88internal14LJSArrayLengthD0Ev @2577
    _ZN2v88internal14LJSArrayLengthD1Ev @2578
    _ZN2v88internal14LObjectLiteral15CompileToNativeEPNS0_8LCodeGenE @2579
    _ZN2v88internal14LObjectLiteralD0Ev @2580
    _ZN2v88internal14LObjectLiteralD1Ev @2581
    _ZN2v88internal14LRegExpLiteral15CompileToNativeEPNS0_8LCodeGenE @2582
    _ZN2v88internal14LRegExpLiteralD0Ev @2583
    _ZN2v88internal14LRegExpLiteralD1Ev @2584
    _ZN2v88internal14LoopChoiceNode11EatsAtLeastEiib @2585
    _ZN2v88internal14LoopChoiceNode18AddLoopAlternativeENS0_18GuardedAlternativeE @2586
    _ZN2v88internal14LoopChoiceNode20GetQuickCheckDetailsEPNS0_17QuickCheckDetailsEPNS0_14RegExpCompilerEib @2587
    _ZN2v88internal14LoopChoiceNode22AddContinueAlternativeENS0_18GuardedAlternativeE @2588
    _ZN2v88internal14LoopChoiceNode24ComputeFirstCharacterSetEi @2589
    _ZN2v88internal14LoopChoiceNode4EmitEPNS0_14RegExpCompilerEPNS0_5TraceE @2590
    _ZN2v88internal14LoopChoiceNode5CloneEv @2591
    _ZN2v88internal14LoopChoiceNode6AcceptEPNS0_11NodeVisitorE @2592
    _ZN2v88internal14LoopChoiceNodeD0Ev @2593
    _ZN2v88internal14LoopChoiceNodeD1Ev @2594
    _ZN2v88internal14MacroAssembler10AbortIfSmiENS0_8RegisterE @2595
    _ZN2v88internal14MacroAssembler10DebugBreakEv @2596
    _ZN2v88internal14MacroAssembler10EnterFrameENS0_10StackFrame4TypeE @2597
    _ZN2v88internal14MacroAssembler10InNewSpaceINS0_5LabelEEEvNS0_8RegisterES4_NS0_9ConditionEPT_ @2598
    _ZN2v88internal14MacroAssembler10InvokeCodeENS0_6HandleINS0_4CodeEEERKNS0_14ParameterCountES7_NS0_9RelocInfo4ModeE10InvokeFlagPNS0_17PostCallGeneratorE @2599
    _ZN2v88internal14MacroAssembler10InvokeCodeERKNS0_7OperandERKNS0_14ParameterCountES7_10InvokeFlagPNS0_17PostCallGeneratorE @2600
    _ZN2v88internal14MacroAssembler10LeaveFrameENS0_10StackFrame4TypeE @2601
    _ZN2v88internal14MacroAssembler10SetCounterEPNS0_12StatsCounterEi @2602
    _ZN2v88internal14MacroAssembler10StubReturnEi @2603
    _ZN2v88internal14MacroAssembler11CallRuntimeENS0_7Runtime10FunctionIdEi @2604
    _ZN2v88internal14MacroAssembler11CallRuntimeEPNS0_7Runtime8FunctionEi @2605
    _ZN2v88internal14MacroAssembler11LoadContextENS0_8RegisterEi @2606
    _ZN2v88internal14MacroAssembler11RecordWriteENS0_8RegisterES2_S2_ @2607
    _ZN2v88internal14MacroAssembler11RecordWriteENS0_8RegisterEiS2_S2_ @2608
    _ZN2v88internal14MacroAssembler11TryCallStubEPNS0_8CodeStubE @2609
    _ZN2v88internal14MacroAssembler12LoadPowerOf2ENS0_11XMMRegisterENS0_8RegisterEi @2610
    _ZN2v88internal14MacroAssembler12TailCallStubEPNS0_8CodeStubE @2611
    _ZN2v88internal14MacroAssembler13AbortIfNotSmiENS0_8RegisterE @2612
    _ZN2v88internal14MacroAssembler13CallCFunctionENS0_17ExternalReferenceEi @2613
    _ZN2v88internal14MacroAssembler13CallCFunctionENS0_8RegisterEi @2614
    _ZN2v88internal14MacroAssembler13CmpObjectTypeENS0_8RegisterENS0_12InstanceTypeES2_ @2615
    _ZN2v88internal14MacroAssembler13IndexFromHashENS0_8RegisterES2_ @2616
    _ZN2v88internal14MacroAssembler13InvokeBuiltinENS0_8Builtins10JavaScriptE10InvokeFlagPNS0_17PostCallGeneratorE @2617
    _ZN2v88internal14MacroAssembler13PopTryHandlerEv @2618
    _ZN2v88internal14MacroAssembler14ConvertToInt32ENS0_8RegisterES2_S2_NS0_8TypeInfoEPNS0_5LabelE @2619
    _ZN2v88internal14MacroAssembler14EnterExitFrameEb @2620
    _ZN2v88internal14MacroAssembler14InvokeFunctionENS0_8RegisterERKNS0_14ParameterCountE10InvokeFlagPNS0_17PostCallGeneratorE @2621
    _ZN2v88internal14MacroAssembler14InvokeFunctionEPNS0_10JSFunctionERKNS0_14ParameterCountE10InvokeFlagPNS0_17PostCallGeneratorE @2622
    _ZN2v88internal14MacroAssembler14InvokePrologueERKNS0_14ParameterCountES4_NS0_6HandleINS0_4CodeEEERKNS0_7OperandEPNS0_5LabelE10InvokeFlagPNS0_17PostCallGeneratorE @2623
    _ZN2v88internal14MacroAssembler14LeaveExitFrameEb @2624
    _ZN2v88internal14MacroAssembler14PushTryHandlerE12CodeLocation11HandlerType @2625
    _ZN2v88internal14MacroAssembler14TryCallRuntimeENS0_7Runtime10FunctionIdEi @2626
    _ZN2v88internal14MacroAssembler14TryCallRuntimeEPNS0_7Runtime8FunctionEi @2627
    _ZN2v88internal14MacroAssembler15CmpInstanceTypeENS0_8RegisterENS0_12InstanceTypeE @2628
    _ZN2v88internal14MacroAssembler15GetBuiltinEntryENS0_8RegisterENS0_8Builtins10JavaScriptE @2629
    _ZN2v88internal14MacroAssembler15JumpIfNotNumberENS0_8RegisterENS0_8TypeInfoEPNS0_5LabelE @2630
    _ZN2v88internal14MacroAssembler15TailCallRuntimeENS0_7Runtime10FunctionIdEii @2631
    _ZN2v88internal14MacroAssembler15TryTailCallStubEPNS0_8CodeStubE @2632
    _ZN2v88internal14MacroAssembler16AbortIfNotNumberENS0_8RegisterE @2633
    _ZN2v88internal14MacroAssembler16AbortIfNotStringENS0_8RegisterE @2634
    _ZN2v88internal14MacroAssembler16DecrementCounterENS0_9ConditionEPNS0_12StatsCounterEi @2635
    _ZN2v88internal14MacroAssembler16DecrementCounterEPNS0_12StatsCounterEi @2636
    _ZN2v88internal14MacroAssembler16IllegalOperationEi @2637
    _ZN2v88internal14MacroAssembler16IncrementCounterENS0_9ConditionEPNS0_12StatsCounterEi @2638
    _ZN2v88internal14MacroAssembler16IncrementCounterEPNS0_12StatsCounterEi @2639
    _ZN2v88internal14MacroAssembler16NegativeZeroTestENS0_8RegisterES2_PNS0_5LabelE @2640
    _ZN2v88internal14MacroAssembler16NegativeZeroTestENS0_8RegisterES2_S2_S2_PNS0_5LabelE @2641
    _ZN2v88internal14MacroAssembler16NegativeZeroTestEPNS0_13CodeGeneratorENS0_8RegisterES4_PNS0_10JumpTargetE @2642
    _ZN2v88internal14MacroAssembler16ThrowUncatchableE24UncatchableExceptionTypeNS0_8RegisterE @2643
    _ZN2v88internal14MacroAssembler17EnterApiExitFrameEi @2644
    _ZN2v88internal14MacroAssembler17LeaveApiExitFrameEv @2645
    _ZN2v88internal14MacroAssembler17RecordWriteHelperENS0_8RegisterES2_S2_ @2646
    _ZN2v88internal14MacroAssembler18AllocateConsStringENS0_8RegisterES2_S2_PNS0_5LabelE @2647
    _ZN2v88internal14MacroAssembler18AllocateHeapNumberENS0_8RegisterES2_S2_PNS0_5LabelE @2648
    _ZN2v88internal14MacroAssembler18AllocateInNewSpaceENS0_8RegisterES2_S2_S2_PNS0_5LabelENS0_15AllocationFlagsE @2649
    _ZN2v88internal14MacroAssembler18AllocateInNewSpaceEiNS0_11ScaleFactorENS0_8RegisterES3_S3_S3_PNS0_5LabelENS0_15AllocationFlagsE @2650
    _ZN2v88internal14MacroAssembler18AllocateInNewSpaceEiNS0_8RegisterES2_S2_PNS0_5LabelENS0_15AllocationFlagsE @2651
    _ZN2v88internal14MacroAssembler18AssertFastElementsENS0_8RegisterE @2652
    _ZN2v88internal14MacroAssembler18GetBuiltinFunctionENS0_8RegisterENS0_8Builtins10JavaScriptE @2653
    _ZN2v88internal14MacroAssembler18IsObjectStringTypeENS0_8RegisterES2_S2_ @2654
    _ZN2v88internal14MacroAssembler18LoadGlobalFunctionEiNS0_8RegisterE @2655
    _ZN2v88internal14MacroAssembler18TryTailCallRuntimeENS0_7Runtime10FunctionIdEii @2656
    _ZN2v88internal14MacroAssembler19AllocateAsciiStringENS0_8RegisterES2_S2_S2_S2_PNS0_5LabelE @2657
    _ZN2v88internal14MacroAssembler19AllocateAsciiStringENS0_8RegisterEiS2_S2_PNS0_5LabelE @2658
    _ZN2v88internal14MacroAssembler19CheckStackAlignmentEv @2659
    _ZN2v88internal14MacroAssembler20IsObjectJSObjectTypeENS0_8RegisterES2_S2_PNS0_5LabelE @2660
    _ZN2v88internal14MacroAssembler20PrepareCallCFunctionEiNS0_8RegisterE @2661
    _ZN2v88internal14MacroAssembler21AllocateTwoByteStringENS0_8RegisterES2_S2_S2_S2_PNS0_5LabelE @2662
    _ZN2v88internal14MacroAssembler21CallExternalReferenceENS0_17ExternalReferenceEi @2663
    _ZN2v88internal14MacroAssembler21SafepointRegisterSlotENS0_8RegisterE @2664
    _ZN2v88internal14MacroAssembler22CallRuntimeSaveDoublesENS0_7Runtime10FunctionIdE @2665
    _ZN2v88internal14MacroAssembler22CheckAccessGlobalProxyENS0_8RegisterES2_PNS0_5LabelE @2666
    _ZN2v88internal14MacroAssembler22EnterExitFrameEpilogueEib @2667
    _ZN2v88internal14MacroAssembler22EnterExitFramePrologueEv @2668
    _ZN2v88internal14MacroAssembler22IsInstanceJSObjectTypeENS0_8RegisterES2_PNS0_5LabelE @2669
    _ZN2v88internal14MacroAssembler22LeaveExitFrameEpilogueEv @2670
    _ZN2v88internal14MacroAssembler22PrepareCallApiFunctionEiNS0_8RegisterE @2671
    _ZN2v88internal14MacroAssembler23AllocateAsciiConsStringENS0_8RegisterES2_S2_PNS0_5LabelE @2672
    _ZN2v88internal14MacroAssembler23JumpToExternalReferenceERKNS0_17ExternalReferenceE @2673
    _ZN2v88internal14MacroAssembler23LoadAllocationTopHelperENS0_8RegisterES2_NS0_15AllocationFlagsE @2674
    _ZN2v88internal14MacroAssembler23TryGetFunctionPrototypeENS0_8RegisterES2_S2_PNS0_5LabelE @2675
    _ZN2v88internal14MacroAssembler24UndoAllocationInNewSpaceENS0_8RegisterE @2676
    _ZN2v88internal14MacroAssembler25TailCallExternalReferenceERKNS0_17ExternalReferenceEii @2677
    _ZN2v88internal14MacroAssembler25UpdateAllocationTopHelperENS0_8RegisterES2_ @2678
    _ZN2v88internal14MacroAssembler26TryJumpToExternalReferenceERKNS0_17ExternalReferenceE @2679
    _ZN2v88internal14MacroAssembler27SafepointRegisterStackIndexEi @2680
    _ZN2v88internal14MacroAssembler27TryCallApiFunctionAndReturnEPNS_11ApiFunctionEi @2681
    _ZN2v88internal14MacroAssembler28LoadGlobalFunctionInitialMapENS0_8RegisterES2_ @2682
    _ZN2v88internal14MacroAssembler28StoreToSafepointRegisterSlotENS0_8RegisterENS0_9ImmediateE @2683
    _ZN2v88internal14MacroAssembler28StoreToSafepointRegisterSlotENS0_8RegisterES2_ @2684
    _ZN2v88internal14MacroAssembler28TryTailCallExternalReferenceERKNS0_17ExternalReferenceEii @2685
    _ZN2v88internal14MacroAssembler29LoadFromSafepointRegisterSlotENS0_8RegisterES2_ @2686
    _ZN2v88internal14MacroAssembler35JumpIfNotBothSequentialAsciiStringsENS0_8RegisterES2_S2_S2_PNS0_5LabelE @2687
    _ZN2v88internal14MacroAssembler38JumpIfInstanceTypeIsNotSequentialAsciiENS0_8RegisterES2_PNS0_5LabelE @2688
    _ZN2v88internal14MacroAssembler3RetEiNS0_8RegisterE @2689
    _ZN2v88internal14MacroAssembler3RetEv @2690
    _ZN2v88internal14MacroAssembler3SetENS0_8RegisterERKNS0_9ImmediateE @2691
    _ZN2v88internal14MacroAssembler3SetERKNS0_7OperandERKNS0_9ImmediateE @2692
    _ZN2v88internal14MacroAssembler4DropEi @2693
    _ZN2v88internal14MacroAssembler4FCmpEv @2694
    _ZN2v88internal14MacroAssembler4MoveENS0_8RegisterENS0_6HandleINS0_6ObjectEEE @2695
    _ZN2v88internal14MacroAssembler4MoveENS0_8RegisterES2_ @2696
    _ZN2v88internal14MacroAssembler5AbortEPKc @2697
    _ZN2v88internal14MacroAssembler5CheckENS0_9ConditionEPKc @2698
    _ZN2v88internal14MacroAssembler5ThrowENS0_8RegisterE @2699
    _ZN2v88internal14MacroAssembler6AssertENS0_9ConditionEPKc @2700
    _ZN2v88internal14MacroAssembler8CallStubEPNS0_8CodeStubE @2701
    _ZN2v88internal14MacroAssembler8CheckMapENS0_8RegisterENS0_6HandleINS0_3MapEEEPNS0_5LabelEb @2702
    _ZN2v88internal14MacroAssembler9CopyBytesENS0_8RegisterES2_S2_S2_ @2703
    _ZN2v88internal14MacroAssemblerC1EPvi @2704
    _ZN2v88internal14MacroAssemblerC2EPvi @2705
    _ZN2v88internal14MarkingVisitor12VisitPointerEPPNS0_6ObjectE @2706
    _ZN2v88internal14MarkingVisitor13VisitPointersEPPNS0_6ObjectES4_ @2707
    _ZN2v88internal14MarkingVisitor15VisitCodeTargetEPNS0_9RelocInfoE @2708
    _ZN2v88internal14MarkingVisitor16VisitDebugTargetEPNS0_9RelocInfoE @2709
    _ZN2v88internal14MarkingVisitor23VisitGlobalPropertyCellEPNS0_9RelocInfoE @2710
    _ZN2v88internal14MarkingVisitorD0Ev @2711
    _ZN2v88internal14MarkingVisitorD1Ev @2712
    _ZN2v88internal14MessageHandler10GetMessageENS0_6HandleINS0_6ObjectEEE @2713
    _ZN2v88internal14MessageHandler13ReportMessageEPKc @2714
    _ZN2v88internal14MessageHandler13ReportMessageEPNS0_15MessageLocationENS0_6HandleINS0_6ObjectEEE @2715
    _ZN2v88internal14MessageHandler17MakeMessageObjectEPKcPNS0_15MessageLocationENS0_6VectorINS0_6HandleINS0_6ObjectEEEEENS7_INS0_6StringEEENS7_INS0_7JSArrayEEE @2716
    _ZN2v88internal14MessageHandler19GetLocalizedMessageENS0_6HandleINS0_6ObjectEEE @2717
    _ZN2v88internal14MessageHandler20DefaultMessageReportEPKNS0_15MessageLocationENS0_6HandleINS0_6ObjectEEE @2718
    _ZN2v88internal14ObjectIteratorD0Ev @2719
    _ZN2v88internal14ObjectIteratorD1Ev @2720
    _ZN2v88internal14OptimizedFrame12GetFunctionsEPNS0_4ListIPNS0_10JSFunctionENS0_25FreeStoreAllocationPolicyEEE @2721
    _ZN2v88internal14OptimizedFrame21GetDeoptimizationDataEPi @2722
    _ZN2v88internal14OptimizedFrame9SummarizeEPNS0_4ListINS0_12FrameSummaryENS0_25FreeStoreAllocationPolicyEEE @2723
    _ZN2v88internal14OptimizedFrameD0Ev @2724
    _ZN2v88internal14OptimizedFrameD1Ev @2725
    _ZN2v88internal14ParserRecorder13LogUC16SymbolEiNS0_6VectorIKtEE @2726
    _ZN2v88internal14ParserRecorder14LogAsciiSymbolEiNS0_6VectorIKcEE @2727
    _ZN2v88internal14ParserRecorderD0Ev @2728
    _ZN2v88internal14ParserRecorderD1Ev @2729
    _ZN2v88internal14RegExpCompiler8AssembleEPNS0_20RegExpMacroAssemblerEPNS0_10RegExpNodeEiNS0_6HandleINS0_6StringEEE @2730
    _ZN2v88internal14RegExpCompilerC1Eibb @2731
    _ZN2v88internal14RegExpCompilerC2Eibb @2732
    _ZN2v88internal14RegExpExecStub7GetNameEv @2733
    _ZN2v88internal14RegExpExecStub8GenerateEPNS0_14MacroAssemblerE @2734
    _ZN2v88internal14RegExpExecStub8MajorKeyEv @2735
    _ZN2v88internal14RegExpExecStub8MinorKeyEv @2736
    _ZN2v88internal14RegExpExecStubD0Ev @2737
    _ZN2v88internal14RegExpExecStubD1Ev @2738
    _ZN2v88internal14RegExpUnparser10VisitEmptyEPNS0_11RegExpEmptyEPv @2739
    _ZN2v88internal14RegExpUnparser12VisitCaptureEPNS0_13RegExpCaptureEPv @2740
    _ZN2v88internal14RegExpUnparser14VisitAssertionEPNS0_15RegExpAssertionEPv @2741
    _ZN2v88internal14RegExpUnparser14VisitLookaheadEPNS0_15RegExpLookaheadEPv @2742
    _ZN2v88internal14RegExpUnparser15VisitQuantifierEPNS0_16RegExpQuantifierEPv @2743
    _ZN2v88internal14RegExpUnparser16VisitAlternativeEPNS0_17RegExpAlternativeEPv @2744
    _ZN2v88internal14RegExpUnparser16VisitDisjunctionEPNS0_17RegExpDisjunctionEPv @2745
    _ZN2v88internal14RegExpUnparser18VisitBackReferenceEPNS0_19RegExpBackReferenceEPv @2746
    _ZN2v88internal14RegExpUnparser19VisitCharacterClassEPNS0_20RegExpCharacterClassEPv @2747
    _ZN2v88internal14RegExpUnparser19VisitCharacterRangeENS0_14CharacterRangeE @2748
    _ZN2v88internal14RegExpUnparser9VisitAtomEPNS0_10RegExpAtomEPv @2749
    _ZN2v88internal14RegExpUnparser9VisitTextEPNS0_10RegExpTextEPv @2750
    _ZN2v88internal14RegExpUnparserC1Ev @2751
    _ZN2v88internal14RegExpUnparserC2Ev @2752
    _ZN2v88internal14RegExpUnparserD0Ev @2753
    _ZN2v88internal14RegExpUnparserD1Ev @2754
    _ZN2v88internal14SafepointTable9PrintBitsEhi @2755
    _ZN2v88internal14SafepointTableC1EPNS0_4CodeE @2756
    _ZN2v88internal14SafepointTableC2EPNS0_4CodeE @2757
    _ZN2v88internal14ScriptDataImpl10InitializeEv @2758
    _ZN2v88internal14ScriptDataImpl10ReadNumberEPPh @2759
    _ZN2v88internal14ScriptDataImpl10ReadStringEPjPi @2760
    _ZN2v88internal14ScriptDataImpl11ReadAddressEi @2761
    _ZN2v88internal14ScriptDataImpl11SanityCheckEv @2762
    _ZN2v88internal14ScriptDataImpl12BuildMessageEv @2763
    _ZN2v88internal14ScriptDataImpl15MessageLocationEv @2764
    _ZN2v88internal14ScriptDataImpl16GetFunctionEntryEi @2765
    _ZN2v88internal14ScriptDataImpl19GetSymbolIdentifierEv @2766
    _ZN2v88internal14ScriptDataImpl4DataEv @2767
    _ZN2v88internal14ScriptDataImpl4ReadEi @2768
    _ZN2v88internal14ScriptDataImpl6LengthEv @2769
    _ZN2v88internal14ScriptDataImpl8HasErrorEv @2770
    _ZN2v88internal14ScriptDataImpl9BuildArgsEv @2771
    _ZN2v88internal14ScriptDataImplD0Ev @2772
    _ZN2v88internal14ScriptDataImplD1Ev @2773
    _ZN2v88internal14ScriptDataImplD2Ev @2774
    _ZN2v88internal14SnapshotFiller14FindOrAddEntryEPv @2775
    _ZN2v88internal14SnapshotFiller17SetNamedReferenceENS0_13HeapGraphEdge4TypeEPvPNS0_9HeapEntryEPKcS4_S6_ @2776
    _ZN2v88internal14SnapshotFiller19SetIndexedReferenceENS0_13HeapGraphEdge4TypeEPvPNS0_9HeapEntryEiS4_S6_ @2777
    _ZN2v88internal14SnapshotFiller26SetNamedAutoIndexReferenceENS0_13HeapGraphEdge4TypeEPvPNS0_9HeapEntryES4_S6_ @2778
    _ZN2v88internal14SnapshotFiller28SetIndexedAutoIndexReferenceENS0_13HeapGraphEdge4TypeEPvPNS0_9HeapEntryES4_S6_ @2779
    _ZN2v88internal14SnapshotFiller8AddEntryEPv @2780
    _ZN2v88internal14SnapshotFillerD0Ev @2781
    _ZN2v88internal14SnapshotFillerD1Ev @2782
    _ZN2v88internal14StackCheckStub7GetNameEv @2783
    _ZN2v88internal14StackCheckStub8GenerateEPNS0_14MacroAssemblerE @2784
    _ZN2v88internal14StackCheckStub8MajorKeyEv @2785
    _ZN2v88internal14StackCheckStub8MinorKeyEv @2786
    _ZN2v88internal14StackCheckStubD0Ev @2787
    _ZN2v88internal14StackCheckStubD1Ev @2788
    _ZN2v88internal14StringToDoubleENS0_6VectorIKcEEid @2789
    _ZN2v88internal14StringToDoubleEPKcid @2790
    _ZN2v88internal14StringToDoubleEPNS0_6StringEid @2791
    _ZN2v88internal14StringsStorage12StringsMatchEPvS2_ @2792
    _ZN2v88internal14StringsStorage7GetNameEPNS0_6StringE @2793
    _ZN2v88internal14StringsStorage7GetNameEi @2794
    _ZN2v88internal14StringsStorageC1Ev @2795
    _ZN2v88internal14StringsStorageC2Ev @2796
    _ZN2v88internal14StringsStorageD1Ev @2797
    _ZN2v88internal14StringsStorageD2Ev @2798
    _ZN2v88internal14TemporaryScopeC1EPPS1_ @2799
    _ZN2v88internal14TemporaryScopeC2EPPS1_ @2800
    _ZN2v88internal14TemporaryScopeD1Ev @2801
    _ZN2v88internal14TemporaryScopeD2Ev @2802
    _ZN2v88internal14ThreadLocalTop10InitializeEv @2803
    _ZN2v88internal14ThreadLocalTop15TryCatchHandlerEv @2804
    _ZN2v88internal14UnaryOperation16AsUnaryOperationEv @2805
    _ZN2v88internal14UnaryOperation22ResultOverwriteAllowedEv @2806
    _ZN2v88internal14UnaryOperation6AcceptEPNS0_10AstVisitorE @2807
    _ZN2v88internal14UnaryOperationD0Ev @2808
    _ZN2v88internal14UnaryOperationD1Ev @2809
    _ZN2v88internal14V8HeapExplorer13AllocateEntryEPvii @2810
    _ZN2v88internal14V8HeapExplorer14AddRootEntriesEPNS0_23SnapshotFillerInterfaceE @2811
    _ZN2v88internal14V8HeapExplorer14kGcRootsObjectE @2812 DATA
    _ZN2v88internal14V8HeapExplorer17ExtractReferencesEPNS0_10HeapObjectE @2813
    _ZN2v88internal14V8HeapExplorer18SetHiddenReferenceEPNS0_10HeapObjectEPNS0_9HeapEntryEiPNS0_6ObjectE @2814
    _ZN2v88internal14V8HeapExplorer19SetClosureReferenceEPNS0_10HeapObjectEPNS0_9HeapEntryEPNS0_6StringEPNS0_6ObjectE @2815
    _ZN2v88internal14V8HeapExplorer19SetElementReferenceEPNS0_10HeapObjectEPNS0_9HeapEntryEiPNS0_6ObjectE @2816
    _ZN2v88internal14V8HeapExplorer19SetGcRootsReferenceEPNS0_6ObjectE @2817
    _ZN2v88internal14V8HeapExplorer19kInternalRootObjectE @2818 DATA
    _ZN2v88internal14V8HeapExplorer20EstimateObjectsCountEv @2819
    _ZN2v88internal14V8HeapExplorer20SetInternalReferenceEPNS0_10HeapObjectEPNS0_9HeapEntryEPKcPNS0_6ObjectE @2820
    _ZN2v88internal14V8HeapExplorer20SetInternalReferenceEPNS0_10HeapObjectEPNS0_9HeapEntryEiPNS0_6ObjectE @2821
    _ZN2v88internal14V8HeapExplorer20SetPropertyReferenceEPNS0_10HeapObjectEPNS0_9HeapEntryEPNS0_6StringEPNS0_6ObjectE @2822
    _ZN2v88internal14V8HeapExplorer23SetRootGcRootsReferenceEv @2823
    _ZN2v88internal14V8HeapExplorer24ExtractClosureReferencesEPNS0_8JSObjectEPNS0_9HeapEntryE @2824
    _ZN2v88internal14V8HeapExplorer24ExtractElementReferencesEPNS0_8JSObjectEPNS0_9HeapEntryE @2825
    _ZN2v88internal14V8HeapExplorer24SetRootShortcutReferenceEPNS0_6ObjectE @2826
    _ZN2v88internal14V8HeapExplorer25ExtractInternalReferencesEPNS0_8JSObjectEPNS0_9HeapEntryE @2827
    _ZN2v88internal14V8HeapExplorer25ExtractPropertyReferencesEPNS0_8JSObjectEPNS0_9HeapEntryE @2828
    _ZN2v88internal14V8HeapExplorer27IterateAndExtractReferencesEPNS0_23SnapshotFillerInterfaceE @2829
    _ZN2v88internal14V8HeapExplorer28SetPropertyShortcutReferenceEPNS0_10HeapObjectEPNS0_9HeapEntryEPNS0_6StringEPNS0_6ObjectE @2830
    _ZN2v88internal14V8HeapExplorer8AddEntryEPNS0_10HeapObjectENS0_9HeapEntry4TypeEPKcii @2831
    _ZN2v88internal14V8HeapExplorer8AddEntryEPNS0_10HeapObjectEii @2832
    _ZN2v88internal14V8HeapExplorer8GetEntryEPNS0_6ObjectE @2833
    _ZN2v88internal14V8HeapExplorerC1EPNS0_12HeapSnapshotEPNS0_38SnapshottingProgressReportingInterfaceE @2834
    _ZN2v88internal14V8HeapExplorerC2EPNS0_12HeapSnapshotEPNS0_38SnapshottingProgressReportingInterfaceE @2835
    _ZN2v88internal14V8HeapExplorerD0Ev @2836
    _ZN2v88internal14V8HeapExplorerD1Ev @2837
    _ZN2v88internal14V8HeapExplorerD2Ev @2838
    _ZN2v88internal14WhileStatement16AsWhileStatementEv @2839
    _ZN2v88internal14WhileStatement6AcceptEPNS0_10AstVisitorE @2840
    _ZN2v88internal14WhileStatementD0Ev @2841
    _ZN2v88internal14WhileStatementD1Ev @2842
    _ZN2v88internal15BinaryOperation17AsBinaryOperationEv @2843
    _ZN2v88internal15BinaryOperation22ResultOverwriteAllowedEv @2844
    _ZN2v88internal15BinaryOperation6AcceptEPNS0_10AstVisitorE @2845
    _ZN2v88internal15BinaryOperationC1EPNS0_10AssignmentE @2846
    _ZN2v88internal15BinaryOperationC2EPNS0_10AssignmentE @2847
    _ZN2v88internal15BinaryOperationD0Ev @2848
    _ZN2v88internal15BinaryOperationD1Ev @2849
    _ZN2v88internal15ClustersCoarser15ClusterBackRefs16SortRefsIteratorEPS2_ @2850
    _ZN2v88internal15ClustersCoarser15HasAnEquivalentERKNS0_16JSObjectsClusterE @2851
    _ZN2v88internal15ClustersCoarser16FillEqualityTreeEv @2852
    _ZN2v88internal15ClustersCoarser18ClusterBackRefsCmpEPKNS1_15ClusterBackRefsES4_ @2853
    _ZN2v88internal15ClustersCoarser19GetCoarseEquivalentERKNS0_16JSObjectsClusterE @2854
    _ZN2v88internal15ClustersCoarser21ClusterEqualityConfig6kNoKeyE @2855 DATA
    _ZN2v88internal15ClustersCoarser21ClusterEqualityConfig8kNoValueE @2856 DATA
    _ZN2v88internal15ClustersCoarser4CallERKNS0_16JSObjectsClusterEPNS0_13ZoneSplayTreeINS0_26JSObjectsClusterTreeConfigEEE @2857
    _ZN2v88internal15ClustersCoarser4CallERKNS0_16JSObjectsClusterERKNS0_17NumberAndSizeInfoE @2858
    _ZN2v88internal15ClustersCoarser7ProcessEPNS0_13ZoneSplayTreeINS0_27JSObjectsRetainerTreeConfigEEE @2859
    _ZN2v88internal15ClustersCoarser9DoProcessEPNS0_13ZoneSplayTreeINS0_27JSObjectsRetainerTreeConfigEEE @2860
    _ZN2v88internal15ClustersCoarserC1Ev @2861
    _ZN2v88internal15ClustersCoarserC2Ev @2862
    _ZN2v88internal15CompilationInfo19DisableOptimizationEv @2863
    _ZN2v88internal15CompilationInfoC1ENS0_6HandleINS0_10JSFunctionEEE @2864
    _ZN2v88internal15CompilationInfoC1ENS0_6HandleINS0_18SharedFunctionInfoEEE @2865
    _ZN2v88internal15CompilationInfoC1ENS0_6HandleINS0_6ScriptEEE @2866
    _ZN2v88internal15CompilationInfoC2ENS0_6HandleINS0_10JSFunctionEEE @2867
    _ZN2v88internal15CompilationInfoC2ENS0_6HandleINS0_18SharedFunctionInfoEEE @2868
    _ZN2v88internal15CompilationInfoC2ENS0_6HandleINS0_6ScriptEEE @2869
    _ZN2v88internal15ContextSwitcher10singleton_E @2870 DATA
    _ZN2v88internal15ContextSwitcher14StopPreemptionEv @2871
    _ZN2v88internal15ContextSwitcher15StartPreemptionEi @2872
    _ZN2v88internal15ContextSwitcher18PreemptionReceivedEv @2873
    _ZN2v88internal15ContextSwitcher3RunEv @2874
    _ZN2v88internal15ContextSwitcherC1Ei @2875
    _ZN2v88internal15ContextSwitcherC2Ei @2876
    _ZN2v88internal15ContextSwitcherD0Ev @2877
    _ZN2v88internal15ContextSwitcherD1Ev @2878
    _ZN2v88internal15CustomArguments15IterateInstanceEPNS0_13ObjectVisitorE @2879
    _ZN2v88internal15CustomArgumentsD0Ev @2880
    _ZN2v88internal15CustomArgumentsD1Ev @2881
    _ZN2v88internal15CygwinSemaphore4WaitEi @2882
    _ZN2v88internal15CygwinSemaphore4WaitEv @2883
    _ZN2v88internal15CygwinSemaphore6SignalEv @2884
    _ZN2v88internal15CygwinSemaphoreD0Ev @2885
    _ZN2v88internal15CygwinSemaphoreD1Ev @2886
    _ZN2v88internal15DescriptorArray10CopyInsertEPNS0_10DescriptorENS0_14TransitionFlagE @2887
    _ZN2v88internal15DescriptorArray12BinarySearchEPNS0_6StringEii @2888
    _ZN2v88internal15DescriptorArray12LinearSearchEPNS0_6StringEi @2889
    _ZN2v88internal15DescriptorArray12SetEnumCacheEPNS0_10FixedArrayES3_ @2890
    _ZN2v88internal15DescriptorArray13SortUncheckedEv @2891
    _ZN2v88internal15DescriptorArray15SearchWithCacheEPNS0_6StringE @2892
    _ZN2v88internal15DescriptorArray17RemoveTransitionsEv @2893
    _ZN2v88internal15DescriptorArray3SetEiPNS0_10DescriptorE @2894
    _ZN2v88internal15DescriptorArray4SortEv @2895
    _ZN2v88internal15DescriptorArray8AllocateEi @2896
    _ZN2v88internal15DoubleToCStringEdNS0_6VectorIcEE @2897
    _ZN2v88internal15FLAG_always_optE @2898 DATA
    _ZN2v88internal15FLAG_crankshaftE @2899 DATA
    _ZN2v88internal15FLAG_debug_codeE @2900 DATA
    _ZN2v88internal15FLAG_debug_infoE @2901 DATA
    _ZN2v88internal15FLAG_flush_codeE @2902 DATA
    _ZN2v88internal15FLAG_inline_newE @2903 DATA
    _ZN2v88internal15FLAG_log_regexpE @2904 DATA
    _ZN2v88internal15FLAG_preemptionE @2905 DATA
    _ZN2v88internal15FLAG_stack_sizeE @2906 DATA
    _ZN2v88internal15FunctionLiteral17AsFunctionLiteralEv @2907
    _ZN2v88internal15FunctionLiteral21AllowsLazyCompilationEv @2908
    _ZN2v88internal15FunctionLiteral6AcceptEPNS0_10AstVisitorE @2909
    _ZN2v88internal15FunctionLiteralD0Ev @2910
    _ZN2v88internal15FunctionLiteralD1Ev @2911
    _ZN2v88internal15GetBinaryOpStubEiNS0_10BinaryOpIC8TypeInfoE @2912
    _ZN2v88internal15HApplyArguments16CompileToLithiumEPNS0_13LChunkBuilderE @2913
    _ZN2v88internal15HApplyArgumentsC1EPNS0_6HValueES3_S3_S3_ @2914
    _ZN2v88internal15HApplyArgumentsD0Ev @2915
    _ZN2v88internal15HApplyArgumentsD1Ev @2916
    _ZN2v88internal15HDeleteProperty16CompileToLithiumEPNS0_13LChunkBuilderE @2917
    _ZN2v88internal15HDeletePropertyD0Ev @2918
    _ZN2v88internal15HDeletePropertyD1Ev @2919
    _ZN2v88internal15HGlobalReceiver10DataEqualsEPNS0_6HValueE @2920
    _ZN2v88internal15HGlobalReceiver16CompileToLithiumEPNS0_13LChunkBuilderE @2921
    _ZN2v88internal15HGlobalReceiverD0Ev @2922
    _ZN2v88internal15HGlobalReceiverD1Ev @2923
    _ZN2v88internal15HLoadNamedField10DataEqualsEPNS0_6HValueE @2924
    _ZN2v88internal15HLoadNamedField11PrintDataToEPNS0_12StringStreamE @2925
    _ZN2v88internal15HLoadNamedField16CompileToLithiumEPNS0_13LChunkBuilderE @2926
    _ZN2v88internal15HLoadNamedFieldD0Ev @2927
    _ZN2v88internal15HLoadNamedFieldD1Ev @2928
    _ZN2v88internal15HUnaryOperation11PrintDataToEPNS0_12StringStreamE @2929
    _ZN2v88internal15HUnaryOperationC2EPNS0_6HValueE @2930
    _ZN2v88internal15HUnaryOperationD0Ev @2931
    _ZN2v88internal15HUnaryOperationD1Ev @2932
    _ZN2v88internal15HUnaryPredicate21CalculateInferredTypeEv @2933
    _ZN2v88internal15HUnaryPredicateD0Ev @2934
    _ZN2v88internal15HUnaryPredicateD1Ev @2935
    _ZN2v88internal15JavaScriptFrame12GetFunctionsEPNS0_4ListIPNS0_10JSFunctionENS0_25FreeStoreAllocationPolicyEEE @2936
    _ZN2v88internal15JavaScriptFrame9SummarizeEPNS0_4ListINS0_12FrameSummaryENS0_25FreeStoreAllocationPolicyEEE @2937
    _ZN2v88internal15JavaScriptFrameD0Ev @2938
    _ZN2v88internal15JavaScriptFrameD1Ev @2939
    _ZN2v88internal15LApplyArguments15CompileToNativeEPNS0_8LCodeGenE @2940
    _ZN2v88internal15LApplyArgumentsD0Ev @2941
    _ZN2v88internal15LApplyArgumentsD1Ev @2942
    _ZN2v88internal15LCmpIDAndBranch11PrintDataToEPNS0_12StringStreamE @2943
    _ZN2v88internal15LCmpIDAndBranch15CompileToNativeEPNS0_8LCodeGenE @2944
    _ZN2v88internal15LCmpIDAndBranchD0Ev @2945
    _ZN2v88internal15LCmpIDAndBranchD1Ev @2946
    _ZN2v88internal15LDeleteProperty15CompileToNativeEPNS0_8LCodeGenE @2947
    _ZN2v88internal15LDeletePropertyD0Ev @2948
    _ZN2v88internal15LDeletePropertyD1Ev @2949
    _ZN2v88internal15LDoubleRegister10SetupCacheEv @2950
    _ZN2v88internal15LDoubleRegister5cacheE @2951 DATA
    _ZN2v88internal15LGlobalReceiver15CompileToNativeEPNS0_8LCodeGenE @2952
    _ZN2v88internal15LGlobalReceiverD0Ev @2953
    _ZN2v88internal15LGlobalReceiverD1Ev @2954
    _ZN2v88internal15LIsSmiAndBranch11PrintDataToEPNS0_12StringStreamE @2955
    _ZN2v88internal15LIsSmiAndBranch15CompileToNativeEPNS0_8LCodeGenE @2956
    _ZN2v88internal15LIsSmiAndBranchD0Ev @2957
    _ZN2v88internal15LIsSmiAndBranchD1Ev @2958
    _ZN2v88internal15LLoadNamedField15CompileToNativeEPNS0_8LCodeGenE @2959
    _ZN2v88internal15LLoadNamedFieldD0Ev @2960
    _ZN2v88internal15LLoadNamedFieldD1Ev @2961
    _ZN2v88internal15MemoryAllocator11CommitBlockEPhjNS0_13ExecutabilityE @2962
    _ZN2v88internal15MemoryAllocator11CommitPagesEPhjPNS0_10PagedSpaceEPi @2963
    _ZN2v88internal15MemoryAllocator11DeleteChunkEi @2964
    _ZN2v88internal15MemoryAllocator12FreeAllPagesEPNS0_10PagedSpaceE @2965
    _ZN2v88internal15MemoryAllocator12chunk_table_E @2966 DATA
    _ZN2v88internal15MemoryAllocator13AllocatePagesEiPiPNS0_10PagedSpaceE @2967
    _ZN2v88internal15MemoryAllocator13FreeRawMemoryEPvjNS0_13ExecutabilityE @2968
    _ZN2v88internal15MemoryAllocator13UncommitBlockEPhj @2969
    _ZN2v88internal15MemoryAllocator14initial_chunk_E @2970 DATA
    _ZN2v88internal15MemoryAllocator15FreeChunkTablesEPjii @2971
    _ZN2v88internal15MemoryAllocator15free_chunk_ids_E @2972 DATA
    _ZN2v88internal15MemoryAllocator15max_nof_chunks_E @2973 DATA
    _ZN2v88internal15MemoryAllocator16size_executable_E @2974 DATA
    _ZN2v88internal15MemoryAllocator17AllocateRawMemoryEjPjNS0_13ExecutabilityE @2975
    _ZN2v88internal15MemoryAllocator17InAllocatedChunksEPh @2976
    _ZN2v88internal15MemoryAllocator18RelinkPagesInChunkEiPhjPNS0_4PageEPS4_ @2977
    _ZN2v88internal15MemoryAllocator18SafeIsInAPageChunkEPh @2978
    _ZN2v88internal15MemoryAllocator19ReserveInitialChunkEj @2979
    _ZN2v88internal15MemoryAllocator20AddChunkUsingAddressEjj @2980
    _ZN2v88internal15MemoryAllocator20AddToAllocatedChunksEPhi @2981
    _ZN2v88internal15MemoryAllocator20capacity_executable_E @2982 DATA
    _ZN2v88internal15MemoryAllocator21AllocatedChunksFinderEPjjiNS1_12CreateTablesE @2983
    _ZN2v88internal15MemoryAllocator22InitializePagesInChunkEiiPNS0_10PagedSpaceE @2984
    _ZN2v88internal15MemoryAllocator23FindLastPageInSameChunkEPNS0_4PageE @2985
    _ZN2v88internal15MemoryAllocator24FindFirstPageInSameChunkEPNS0_4PageE @2986
    _ZN2v88internal15MemoryAllocator25PerformAllocationCallbackENS_11ObjectSpaceENS_16AllocationActionEj @2987
    _ZN2v88internal15MemoryAllocator25RemoveFromAllocatedChunksEPhi @2988
    _ZN2v88internal15MemoryAllocator26RelinkPageListInChunkOrderEPNS0_10PagedSpaceEPPNS0_4PageES6_S6_ @2989
    _ZN2v88internal15MemoryAllocator27AddMemoryAllocationCallbackEPFvNS_11ObjectSpaceENS_16AllocationActionEiES2_S3_ @2990
    _ZN2v88internal15MemoryAllocator28RemoveChunkFoundUsingAddressEjj @2991
    _ZN2v88internal15MemoryAllocator28memory_allocation_callbacks_E @2992 DATA
    _ZN2v88internal15MemoryAllocator30RemoveMemoryAllocationCallbackEPFvNS_11ObjectSpaceENS_16AllocationActionEiE @2993
    _ZN2v88internal15MemoryAllocator34MemoryAllocationCallbackRegisteredEPFvNS_11ObjectSpaceENS_16AllocationActionEiE @2994
    _ZN2v88internal15MemoryAllocator3PopEv @2995
    _ZN2v88internal15MemoryAllocator4PushEi @2996
    _ZN2v88internal15MemoryAllocator4top_E @2997 DATA
    _ZN2v88internal15MemoryAllocator5SetupEii @2998
    _ZN2v88internal15MemoryAllocator5size_E @2999 DATA
    _ZN2v88internal15MemoryAllocator7chunks_E @3000 DATA
    _ZN2v88internal15MemoryAllocator8TearDownEv @3001
    _ZN2v88internal15MemoryAllocator8ZapBlockEPhj @3002
    _ZN2v88internal15MemoryAllocator9FreePagesEPNS0_4PageE @3003
    _ZN2v88internal15MemoryAllocator9capacity_E @3004 DATA
    _ZN2v88internal15PendingListNode12WeakCallbackENS_10PersistentINS_5ValueEEEPv @3005
    _ZN2v88internal15PendingListNode7DestroyEv @3006
    _ZN2v88internal15PendingListNodeC1EPNS0_10JSFunctionE @3007
    _ZN2v88internal15PendingListNodeC2EPNS0_10JSFunctionE @3008
    _ZN2v88internal15RegExpAssertion11AsAssertionEv @3009
    _ZN2v88internal15RegExpAssertion11IsAssertionEv @3010
    _ZN2v88internal15RegExpAssertion15IsAnchoredAtEndEv @3011
    _ZN2v88internal15RegExpAssertion17IsAnchoredAtStartEv @3012
    _ZN2v88internal15RegExpAssertion6AcceptEPNS0_13RegExpVisitorEPv @3013
    _ZN2v88internal15RegExpAssertion6ToNodeEPNS0_14RegExpCompilerEPNS0_10RegExpNodeE @3014
    _ZN2v88internal15RegExpAssertion9max_matchEv @3015
    _ZN2v88internal15RegExpAssertion9min_matchEv @3016
    _ZN2v88internal15RegExpAssertionD0Ev @3017
    _ZN2v88internal15RegExpAssertionD1Ev @3018
    _ZN2v88internal15RegExpLookahead11AsLookaheadEv @3019
    _ZN2v88internal15RegExpLookahead11IsLookaheadEv @3020
    _ZN2v88internal15RegExpLookahead16CaptureRegistersEv @3021
    _ZN2v88internal15RegExpLookahead17IsAnchoredAtStartEv @3022
    _ZN2v88internal15RegExpLookahead6AcceptEPNS0_13RegExpVisitorEPv @3023
    _ZN2v88internal15RegExpLookahead6ToNodeEPNS0_14RegExpCompilerEPNS0_10RegExpNodeE @3024
    _ZN2v88internal15RegExpLookahead9max_matchEv @3025
    _ZN2v88internal15RegExpLookahead9min_matchEv @3026
    _ZN2v88internal15RegExpLookaheadD0Ev @3027
    _ZN2v88internal15RegExpLookaheadD1Ev @3028
    _ZN2v88internal15RelocInfoWriter5WriteEPKNS0_9RelocInfoE @3029
    _ZN2v88internal15ReturnStatement17AsReturnStatementEv @3030
    _ZN2v88internal15ReturnStatement6AcceptEPNS0_10AstVisitorE @3031
    _ZN2v88internal15ReturnStatementD0Ev @3032
    _ZN2v88internal15ReturnStatementD1Ev @3033
    _ZN2v88internal15RuntimeProfiler10NotifyTickEv @3034
    _ZN2v88internal15RuntimeProfiler11OptimizeNowEv @3035
    _ZN2v88internal15RuntimeProfiler12OptimizeSoonEPNS0_10JSFunctionE @3036
    _ZN2v88internal15RuntimeProfiler17RemoveDeadSamplesEv @3037
    _ZN2v88internal15RuntimeProfiler17SamplerWindowSizeEv @3038
    _ZN2v88internal15RuntimeProfiler25UpdateSamplesAfterCompactEPNS0_13ObjectVisitorE @3039
    _ZN2v88internal15RuntimeProfiler26UpdateSamplesAfterScavengeEv @3040
    _ZN2v88internal15RuntimeProfiler5ResetEv @3041
    _ZN2v88internal15RuntimeProfiler5SetupEv @3042
    _ZN2v88internal15RuntimeProfiler8TearDownEv @3043
    _ZN2v88internal15ScavengeVisitor12VisitPointerEPPNS0_6ObjectE @3044
    _ZN2v88internal15ScavengeVisitor13VisitPointersEPPNS0_6ObjectES4_ @3045
    _ZN2v88internal15ScavengeVisitorD0Ev @3046
    _ZN2v88internal15ScavengeVisitorD1Ev @3047
    _ZN2v88internal15SnapshotCounter14FindOrAddEntryEPv @3048
    _ZN2v88internal15SnapshotCounter17SetNamedReferenceENS0_13HeapGraphEdge4TypeEPvPNS0_9HeapEntryEPKcS4_S6_ @3049
    _ZN2v88internal15SnapshotCounter19SetIndexedReferenceENS0_13HeapGraphEdge4TypeEPvPNS0_9HeapEntryEiS4_S6_ @3050
    _ZN2v88internal15SnapshotCounter26SetNamedAutoIndexReferenceENS0_13HeapGraphEdge4TypeEPvPNS0_9HeapEntryES4_S6_ @3051
    _ZN2v88internal15SnapshotCounter28SetIndexedAutoIndexReferenceENS0_13HeapGraphEdge4TypeEPvPNS0_9HeapEntryES4_S6_ @3052
    _ZN2v88internal15SnapshotCounter8AddEntryEPv @3053
    _ZN2v88internal15SnapshotCounterD0Ev @3054
    _ZN2v88internal15SnapshotCounterD1Ev @3055
    _ZN2v88internal15StringAllocatorD0Ev @3056
    _ZN2v88internal15StringAllocatorD1Ev @3057
    _ZN2v88internal15StringSharedKey13HashForObjectEPNS0_6ObjectE @3058
    _ZN2v88internal15StringSharedKey4HashEv @3059
    _ZN2v88internal15StringSharedKey7IsMatchEPNS0_6ObjectE @3060
    _ZN2v88internal15StringSharedKey8AsObjectEv @3061
    _ZN2v88internal15StringSharedKeyD0Ev @3062
    _ZN2v88internal15StringSharedKeyD1Ev @3063
    _ZN2v88internal15SwitchStatement17AsSwitchStatementEv @3064
    _ZN2v88internal15SwitchStatement6AcceptEPNS0_10AstVisitorE @3065
    _ZN2v88internal15SwitchStatementD0Ev @3066
    _ZN2v88internal15SwitchStatementD1Ev @3067
    _ZN2v88internal15TargetCollector17AsTargetCollectorEv @3068
    _ZN2v88internal15TargetCollector6AcceptEPNS0_10AstVisitorE @3069
    _ZN2v88internal15TargetCollector9AddTargetEPNS0_11BreakTargetE @3070
    _ZN2v88internal15TargetCollectorD0Ev @3071
    _ZN2v88internal15TargetCollectorD1Ev @3072
    _ZN2v88internal15TokenEnumerator10GetTokenIdEPNS0_6ObjectE @3073
    _ZN2v88internal15TokenEnumerator12TokenRemovedEPPNS0_6ObjectE @3074
    _ZN2v88internal15TokenEnumerator20TokenRemovedCallbackENS_10PersistentINS_5ValueEEEPv @3075
    _ZN2v88internal15TokenEnumeratorC1Ev @3076
    _ZN2v88internal15TokenEnumeratorC2Ev @3077
    _ZN2v88internal15TokenEnumeratorD1Ev @3078
    _ZN2v88internal15TokenEnumeratorD2Ev @3079
    _ZN2v88internal15UpdatingVisitor12VisitPointerEPPNS0_6ObjectE @3080
    _ZN2v88internal15UpdatingVisitor13VisitPointersEPPNS0_6ObjectES4_ @3081
    _ZN2v88internal15UpdatingVisitor15VisitCodeTargetEPNS0_9RelocInfoE @3082
    _ZN2v88internal15UpdatingVisitor16VisitDebugTargetEPNS0_9RelocInfoE @3083
    _ZN2v88internal15UpdatingVisitorD0Ev @3084
    _ZN2v88internal15UpdatingVisitorD1Ev @3085
    _ZN2v88internal15kLogEventsNamesE @3086 DATA
    _ZN2v88internal16AddDispatchRange4CallEiNS0_13DispatchTable5EntryE @3087
    _ZN2v88internal16BufferedZoneListINS0_10RegExpTreeELi2EE10RemoveLastEv @3088
    _ZN2v88internal16BufferedZoneListINS0_10RegExpTreeELi2EE3AddEPS2_ @3089
    _ZN2v88internal16CallFunctionStub6InLoopEv @3090
    _ZN2v88internal16CallFunctionStub8GenerateEPNS0_14MacroAssemblerE @3091
    _ZN2v88internal16CallFunctionStub8MajorKeyEv @3092
    _ZN2v88internal16CallFunctionStub8MinorKeyEv @3093
    _ZN2v88internal16CallFunctionStubD0Ev @3094
    _ZN2v88internal16CallFunctionStubD1Ev @3095
    _ZN2v88internal16CallOptimization10InitializeEPNS0_10JSFunctionE @3096
    _ZN2v88internal16CallOptimization26AnalyzePossibleApiFunctionEPNS0_10JSFunctionE @3097
    _ZN2v88internal16CallOptimizationC1EPNS0_10JSFunctionE @3098
    _ZN2v88internal16CallOptimizationC1EPNS0_12LookupResultE @3099
    _ZN2v88internal16CallOptimizationC2EPNS0_10JSFunctionE @3100
    _ZN2v88internal16CallOptimizationC2EPNS0_12LookupResultE @3101
    _ZN2v88internal16CallStubCompiler16CompileCallFieldEPNS0_8JSObjectES3_iPNS0_6StringE @3102
    _ZN2v88internal16CallStubCompiler17CompileCallGlobalEPNS0_8JSObjectEPNS0_12GlobalObjectEPNS0_20JSGlobalPropertyCellEPNS0_10JSFunctionEPNS0_6StringE @3103
    _ZN2v88internal16CallStubCompiler17CompileCustomCallENS0_17BuiltinFunctionIdEPNS0_6ObjectEPNS0_8JSObjectEPNS0_20JSGlobalPropertyCellEPNS0_10JSFunctionEPNS0_6StringE @3104
    _ZN2v88internal16CallStubCompiler17GenerateNameCheckEPNS0_6StringEPNS0_5LabelE @3105
    _ZN2v88internal16CallStubCompiler18CompileMathAbsCallEPNS0_6ObjectEPNS0_8JSObjectEPNS0_20JSGlobalPropertyCellEPNS0_10JSFunctionEPNS0_6StringE @3106
    _ZN2v88internal16CallStubCompiler18GenerateMissBranchEv @3107
    _ZN2v88internal16CallStubCompiler19CompileArrayPopCallEPNS0_6ObjectEPNS0_8JSObjectEPNS0_20JSGlobalPropertyCellEPNS0_10JSFunctionEPNS0_6StringE @3108
    _ZN2v88internal16CallStubCompiler19CompileCallConstantEPNS0_6ObjectEPNS0_8JSObjectEPNS0_10JSFunctionEPNS0_6StringENS0_9CheckTypeE @3109
    _ZN2v88internal16CallStubCompiler20CompileArrayPushCallEPNS0_6ObjectEPNS0_8JSObjectEPNS0_20JSGlobalPropertyCellEPNS0_10JSFunctionEPNS0_6StringE @3110
    _ZN2v88internal16CallStubCompiler20CompileMathFloorCallEPNS0_6ObjectEPNS0_8JSObjectEPNS0_20JSGlobalPropertyCellEPNS0_10JSFunctionEPNS0_6StringE @3111
    _ZN2v88internal16CallStubCompiler22CompileCallInterceptorEPNS0_8JSObjectES3_PNS0_6StringE @3112
    _ZN2v88internal16CallStubCompiler22HasCustomCallGeneratorENS0_17BuiltinFunctionIdE @3113
    _ZN2v88internal16CallStubCompiler23CompileStringCharAtCallEPNS0_6ObjectEPNS0_8JSObjectEPNS0_20JSGlobalPropertyCellEPNS0_10JSFunctionEPNS0_6StringE @3114
    _ZN2v88internal16CallStubCompiler27CompileStringCharCodeAtCallEPNS0_6ObjectEPNS0_8JSObjectEPNS0_20JSGlobalPropertyCellEPNS0_10JSFunctionEPNS0_6StringE @3115
    _ZN2v88internal16CallStubCompiler27GenerateGlobalReceiverCheckEPNS0_8JSObjectES3_PNS0_6StringEPNS0_5LabelE @3116
    _ZN2v88internal16CallStubCompiler28GenerateLoadFunctionFromCellEPNS0_20JSGlobalPropertyCellEPNS0_10JSFunctionEPNS0_5LabelE @3117
    _ZN2v88internal16CallStubCompiler29CompileStringFromCharCodeCallEPNS0_6ObjectEPNS0_8JSObjectEPNS0_20JSGlobalPropertyCellEPNS0_10JSFunctionEPNS0_6StringE @3118
    _ZN2v88internal16CallStubCompiler7GetCodeENS0_12PropertyTypeEPNS0_6StringE @3119
    _ZN2v88internal16CallStubCompiler7GetCodeEPNS0_10JSFunctionE @3120
    _ZN2v88internal16CallStubCompilerC1EiNS0_10InLoopFlagENS0_4Code4KindEiNS0_21InlineCacheHolderFlagE @3121
    _ZN2v88internal16CallStubCompilerC2EiNS0_10InLoopFlagENS0_4Code4KindEiNS0_21InlineCacheHolderFlagE @3122
    _ZN2v88internal16CompareOperation18AsCompareOperationEv @3123
    _ZN2v88internal16CompareOperation18RecordTypeFeedbackEPNS0_18TypeFeedbackOracleE @3124
    _ZN2v88internal16CompareOperation6AcceptEPNS0_10AstVisitorE @3125
    _ZN2v88internal16CompareOperationD0Ev @3126
    _ZN2v88internal16CompareOperationD1Ev @3127
    _ZN2v88internal16CompilationCache10LookupEvalENS0_6HandleINS0_6StringEEENS2_INS0_7ContextEEEbNS0_14StrictModeFlagE @3128
    _ZN2v88internal16CompilationCache12LookupRegExpENS0_6HandleINS0_6StringEEENS0_8JSRegExp5FlagsE @3129
    _ZN2v88internal16CompilationCache12LookupScriptENS0_6HandleINS0_6StringEEENS2_INS0_6ObjectEEEii @3130
    _ZN2v88internal16CompilationCache16IterateFunctionsEPNS0_13ObjectVisitorE @3131
    _ZN2v88internal16CompilationCache19MarkCompactPrologueEv @3132
    _ZN2v88internal16CompilationCache21MarkForLazyOptimizingENS0_6HandleINS0_10JSFunctionEEE @3133
    _ZN2v88internal16CompilationCache21ShouldOptimizeEagerlyENS0_6HandleINS0_10JSFunctionEEE @3134
    _ZN2v88internal16CompilationCache22MarkForEagerOptimizingENS0_6HandleINS0_10JSFunctionEEE @3135
    _ZN2v88internal16CompilationCache24ResetEagerOptimizingDataEv @3136
    _ZN2v88internal16CompilationCache5ClearEv @3137
    _ZN2v88internal16CompilationCache6EnableEv @3138
    _ZN2v88internal16CompilationCache6RemoveENS0_6HandleINS0_18SharedFunctionInfoEEE @3139
    _ZN2v88internal16CompilationCache7DisableEv @3140
    _ZN2v88internal16CompilationCache7IterateEPNS0_13ObjectVisitorE @3141
    _ZN2v88internal16CompilationCache7PutEvalENS0_6HandleINS0_6StringEEENS2_INS0_7ContextEEEbNS2_INS0_18SharedFunctionInfoEEE @3142
    _ZN2v88internal16CompilationCache9PutRegExpENS0_6HandleINS0_6StringEEENS0_8JSRegExp5FlagsENS2_INS0_10FixedArrayEEE @3143
    _ZN2v88internal16CompilationCache9PutScriptENS0_6HandleINS0_6StringEEENS2_INS0_18SharedFunctionInfoEEE @3144
    _ZN2v88internal16CompileOptimizedENS0_6HandleINS0_10JSFunctionEEEiNS0_18ClearExceptionFlagE @3145
    _ZN2v88internal16CompileTimeValue11GetElementsENS0_6HandleINS0_10FixedArrayEEE @3146
    _ZN2v88internal16CompileTimeValue18IsCompileTimeValueEPNS0_10ExpressionE @3147
    _ZN2v88internal16CompileTimeValue38ArrayLiteralElementNeedsInitializationEPNS0_10ExpressionE @3148
    _ZN2v88internal16CompileTimeValue7GetTypeENS0_6HandleINS0_10FixedArrayEEE @3149
    _ZN2v88internal16CompileTimeValue8GetValueEPNS0_10ExpressionE @3150
    _ZN2v88internal16ContextSlotCache5ClearEv @3151
    _ZN2v88internal16ContextSlotCache5keys_E @3152 DATA
    _ZN2v88internal16ContextSlotCache6LookupEPNS0_6ObjectEPNS0_6StringEPNS0_8Variable4ModeE @3153
    _ZN2v88internal16ContextSlotCache6UpdateEPNS0_6ObjectEPNS0_6StringENS0_8Variable4ModeEi @3154
    _ZN2v88internal16ContextSlotCache7values_E @3155 DATA
    _ZN2v88internal16DoWhileStatement18AsDoWhileStatementEv @3156
    _ZN2v88internal16DoWhileStatement6AcceptEPNS0_10AstVisitorE @3157
    _ZN2v88internal16DoWhileStatementD0Ev @3158
    _ZN2v88internal16DoWhileStatementD1Ev @3159
    _ZN2v88internal16EncodeFreeRegionEPhi @3160
    _ZN2v88internal16EventDetailsImplC1ENS_10DebugEventENS0_6HandleINS0_8JSObjectEEES5_NS3_INS0_6ObjectEEEPNS_5Debug10ClientDataE @3161
    _ZN2v88internal16EventDetailsImplC2ENS_10DebugEventENS0_6HandleINS0_8JSObjectEEES5_NS3_INS0_6ObjectEEEPNS_5Debug10ClientDataE @3162
    _ZN2v88internal16EventDetailsImplD0Ev @3163
    _ZN2v88internal16EventDetailsImplD1Ev @3164
    _ZN2v88internal16ExternalIntArray8SetValueEjPNS0_6ObjectE @3165
    _ZN2v88internal16FLAG_enable_cmovE @3166 DATA
    _ZN2v88internal16FLAG_enable_sahfE @3167 DATA
    _ZN2v88internal16FLAG_enable_sse2E @3168 DATA
    _ZN2v88internal16FLAG_enable_sse3E @3169 DATA
    _ZN2v88internal16FLAG_enable_vfp3E @3170 DATA
    _ZN2v88internal16FLAG_gc_intervalE @3171 DATA
    _ZN2v88internal16FLAG_gdbjit_dumpE @3172 DATA
    _ZN2v88internal16FLAG_gdbjit_fullE @3173 DATA
    _ZN2v88internal16FLAG_log_handlesE @3174 DATA
    _ZN2v88internal16FLAG_log_runtimeE @3175 DATA
    _ZN2v88internal16FLAG_log_suspectE @3176 DATA
    _ZN2v88internal16FLAG_opt_eagerlyE @3177 DATA
    _ZN2v88internal16FLAG_random_seedE @3178 DATA
    _ZN2v88internal16FLAG_stop_sim_atE @3179 DATA
    _ZN2v88internal16FLAG_stress_runsE @3180 DATA
    _ZN2v88internal16FLAG_strict_modeE @3181 DATA
    _ZN2v88internal16FLAG_trace_allocE @3182 DATA
    _ZN2v88internal16FLAG_trace_deoptE @3183 DATA
    _ZN2v88internal16FLAG_trace_rangeE @3184 DATA
    _ZN2v88internal16FLAG_use_lithiumE @3185 DATA
    _ZN2v88internal16FixedBodyVisitorINS0_17NewSpaceScavengerENS0_19FixedBodyDescriptorILi12ELi20ELi20EEEiE5VisitEPNS0_3MapEPNS0_10HeapObjectE @3186
    _ZN2v88internal16FixedBodyVisitorINS0_17NewSpaceScavengerENS0_19FixedBodyDescriptorILi4ELi48ELi92EEEiE5VisitEPNS0_3MapEPNS0_10HeapObjectE @3187
    _ZN2v88internal16FixedBodyVisitorINS0_17NewSpaceScavengerENS0_19FixedBodyDescriptorILi8ELi220ELi220EEEiE5VisitEPNS0_3MapEPNS0_10HeapObjectE @3188
    _ZN2v88internal16FixedBodyVisitorINS0_20StaticMarkingVisitorENS0_19FixedBodyDescriptorILi12ELi20ELi20EEEvE5VisitEPNS0_3MapEPNS0_10HeapObjectE @3189
    _ZN2v88internal16FixedBodyVisitorINS0_20StaticMarkingVisitorENS0_19FixedBodyDescriptorILi12ELi28ELi32EEEvE5VisitEPNS0_3MapEPNS0_10HeapObjectE @3190
    _ZN2v88internal16FixedBodyVisitorINS0_20StaticMarkingVisitorENS0_19FixedBodyDescriptorILi4ELi12ELi12EEEvE5VisitEPNS0_3MapEPNS0_10HeapObjectE @3191
    _ZN2v88internal16FixedBodyVisitorINS0_20StaticMarkingVisitorENS0_19FixedBodyDescriptorILi4ELi8ELi8EEEvE5VisitEPNS0_3MapEPNS0_10HeapObjectE @3192
    _ZN2v88internal16FixedBodyVisitorINS0_20StaticMarkingVisitorENS0_19FixedBodyDescriptorILi8ELi212ELi220EEEvE5VisitEPNS0_3MapEPNS0_10HeapObjectE @3193
    _ZN2v88internal16FixedBodyVisitorINS0_37StaticPointersToNewGenUpdatingVisitorENS0_19FixedBodyDescriptorILi12ELi20ELi20EEEiE5VisitEPNS0_3MapEPNS0_10HeapObjectE @3194
    _ZN2v88internal16FixedBodyVisitorINS0_37StaticPointersToNewGenUpdatingVisitorENS0_19FixedBodyDescriptorILi4ELi48ELi92EEEiE5VisitEPNS0_3MapEPNS0_10HeapObjectE @3195
    _ZN2v88internal16FixedBodyVisitorINS0_37StaticPointersToNewGenUpdatingVisitorENS0_19FixedBodyDescriptorILi8ELi220ELi220EEEiE5VisitEPNS0_3MapEPNS0_10HeapObjectE @3196
    _ZN2v88internal16FlatStringReader21PostGarbageCollectionEv @3197
    _ZN2v88internal16FlatStringReaderC1ENS0_6HandleINS0_6StringEEE @3198
    _ZN2v88internal16FlatStringReaderC1ENS0_6VectorIKcEE @3199
    _ZN2v88internal16FlatStringReaderC2ENS0_6HandleINS0_6StringEEE @3200
    _ZN2v88internal16FlatStringReaderC2ENS0_6VectorIKcEE @3201
    _ZN2v88internal16FlatStringReaderD0Ev @3202
    _ZN2v88internal16FlatStringReaderD1Ev @3203
    _ZN2v88internal16FlattenGetStringENS0_6HandleINS0_6StringEEE @3204
    _ZN2v88internal16ForceSetPropertyENS0_6HandleINS0_8JSObjectEEENS1_INS0_6ObjectEEES5_18PropertyAttributes @3205
    _ZN2v88internal16FrameDescription22GetOffsetFromSlotIndexEPNS0_11DeoptimizerEi @3206
    _ZN2v88internal16FrameDescriptionC1EjPNS0_10JSFunctionE @3207
    _ZN2v88internal16FrameDescriptionC2EjPNS0_10JSFunctionE @3208
    _ZN2v88internal16FuncNameInferrer11AddFunctionEPNS0_15FunctionLiteralE @3209
    _ZN2v88internal16FuncNameInferrer15PushLiteralNameENS0_6HandleINS0_6StringEEE @3210
    _ZN2v88internal16FuncNameInferrer16PushVariableNameENS0_6HandleINS0_6StringEEE @3211
    _ZN2v88internal16FuncNameInferrer17MakeNameFromStackEv @3212
    _ZN2v88internal16FuncNameInferrer17PushEnclosingNameENS0_6HandleINS0_6StringEEE @3213
    _ZN2v88internal16FuncNameInferrer19InferFunctionsNamesEv @3214
    _ZN2v88internal16FuncNameInferrer23MakeNameFromStackHelperEiNS0_6HandleINS0_6StringEEE @3215
    _ZN2v88internal16GetScriptWrapperENS0_6HandleINS0_6ScriptEEE @3216
    _ZN2v88internal16HArgumentsLength10DataEqualsEPNS0_6HValueE @3217
    _ZN2v88internal16HArgumentsLength16CompileToLithiumEPNS0_13LChunkBuilderE @3218
    _ZN2v88internal16HArgumentsLengthC1EPNS0_6HValueE @3219
    _ZN2v88internal16HArgumentsLengthD0Ev @3220
    _ZN2v88internal16HArgumentsLengthD1Ev @3221
    _ZN2v88internal16HArgumentsObject16CompileToLithiumEPNS0_13LChunkBuilderE @3222
    _ZN2v88internal16HArgumentsObjectD0Ev @3223
    _ZN2v88internal16HArgumentsObjectD1Ev @3224
    _ZN2v88internal16HBinaryOperation11PrintDataToEPNS0_12StringStreamE @3225
    _ZN2v88internal16HBinaryOperationC2EPNS0_6HValueES3_ @3226
    _ZN2v88internal16HBinaryOperationD0Ev @3227
    _ZN2v88internal16HBinaryOperationD1Ev @3228
    _ZN2v88internal16HCallKnownGlobal11PrintDataToEPNS0_12StringStreamE @3229
    _ZN2v88internal16HCallKnownGlobal16CompileToLithiumEPNS0_13LChunkBuilderE @3230
    _ZN2v88internal16HCallKnownGlobalD0Ev @3231
    _ZN2v88internal16HCallKnownGlobalD1Ev @3232
    _ZN2v88internal16HFunctionLiteral16CompileToLithiumEPNS0_13LChunkBuilderE @3233
    _ZN2v88internal16HFunctionLiteralD0Ev @3234
    _ZN2v88internal16HFunctionLiteralD1Ev @3235
    _ZN2v88internal16HHasInstanceType10DataEqualsEPNS0_6HValueE @3236
    _ZN2v88internal16HHasInstanceType11PrintDataToEPNS0_12StringStreamE @3237
    _ZN2v88internal16HHasInstanceType16CompileToLithiumEPNS0_13LChunkBuilderE @3238
    _ZN2v88internal16HHasInstanceTypeD0Ev @3239
    _ZN2v88internal16HHasInstanceTypeD1Ev @3240
    _ZN2v88internal16HIsConstructCall10DataEqualsEPNS0_6HValueE @3241
    _ZN2v88internal16HIsConstructCall16CompileToLithiumEPNS0_13LChunkBuilderE @3242
    _ZN2v88internal16HIsConstructCallD0Ev @3243
    _ZN2v88internal16HIsConstructCallD1Ev @3244
    _ZN2v88internal16HLoadContextSlot10DataEqualsEPNS0_6HValueE @3245
    _ZN2v88internal16HLoadContextSlot11PrintDataToEPNS0_12StringStreamE @3246
    _ZN2v88internal16HLoadContextSlot16CompileToLithiumEPNS0_13LChunkBuilderE @3247
    _ZN2v88internal16HLoadContextSlotD0Ev @3248
    _ZN2v88internal16HLoadContextSlotD1Ev @3249
    _ZN2v88internal16HLoopInformation16RegisterBackEdgeEPNS0_11HBasicBlockE @3250
    _ZN2v88internal16HLoopInformation8AddBlockEPNS0_11HBasicBlockE @3251
    _ZN2v88internal16HLoopInformationD0Ev @3252
    _ZN2v88internal16HLoopInformationD1Ev @3253
    _ZN2v88internal16HStoreNamedField11PrintDataToEPNS0_12StringStreamE @3254
    _ZN2v88internal16HStoreNamedField16CompileToLithiumEPNS0_13LChunkBuilderE @3255
    _ZN2v88internal16HStoreNamedFieldD0Ev @3256
    _ZN2v88internal16HStoreNamedFieldD1Ev @3257
    _ZN2v88internal16HUnknownOSRValue16CompileToLithiumEPNS0_13LChunkBuilderE @3258
    _ZN2v88internal16HUnknownOSRValueD0Ev @3259
    _ZN2v88internal16HUnknownOSRValueD1Ev @3260
    _ZN2v88internal16JSObjectsCluster7CompareEPKS1_S3_ @3261
    _ZN2v88internal16KeyedCallIC_MissENS0_9ArgumentsE @3262
    _ZN2v88internal16KeyedLoadIC_MissENS0_9ArgumentsE @3263
    _ZN2v88internal16KeyedLookupCache14field_offsets_E @3264 DATA
    _ZN2v88internal16KeyedLookupCache5ClearEv @3265
    _ZN2v88internal16KeyedLookupCache5keys_E @3266 DATA
    _ZN2v88internal16KeyedLookupCache6LookupEPNS0_3MapEPNS0_6StringE @3267
    _ZN2v88internal16KeyedLookupCache6UpdateEPNS0_3MapEPNS0_6StringEi @3268
    _ZN2v88internal16LArgumentsLength15CompileToNativeEPNS0_8LCodeGenE @3269
    _ZN2v88internal16LArgumentsLengthD0Ev @3270
    _ZN2v88internal16LArgumentsLengthD1Ev @3271
    _ZN2v88internal16LCallKnownGlobal11PrintDataToEPNS0_12StringStreamE @3272
    _ZN2v88internal16LCallKnownGlobal15CompileToNativeEPNS0_8LCodeGenE @3273
    _ZN2v88internal16LCallKnownGlobalD0Ev @3274
    _ZN2v88internal16LCallKnownGlobalD1Ev @3275
    _ZN2v88internal16LCmpMapAndBranch15CompileToNativeEPNS0_8LCodeGenE @3276
    _ZN2v88internal16LCmpMapAndBranchD0Ev @3277
    _ZN2v88internal16LCmpMapAndBranchD1Ev @3278
    _ZN2v88internal16LConstantOperand10SetupCacheEv @3279
    _ZN2v88internal16LConstantOperand5cacheE @3280 DATA
    _ZN2v88internal16LDoubleStackSlot10SetupCacheEv @3281
    _ZN2v88internal16LDoubleStackSlot5cacheE @3282 DATA
    _ZN2v88internal16LFunctionLiteral15CompileToNativeEPNS0_8LCodeGenE @3283
    _ZN2v88internal16LFunctionLiteralD0Ev @3284
    _ZN2v88internal16LFunctionLiteralD1Ev @3285
    _ZN2v88internal16LHasInstanceType15CompileToNativeEPNS0_8LCodeGenE @3286
    _ZN2v88internal16LHasInstanceTypeD0Ev @3287
    _ZN2v88internal16LHasInstanceTypeD1Ev @3288
    _ZN2v88internal16LIsConstructCall15CompileToNativeEPNS0_8LCodeGenE @3289
    _ZN2v88internal16LIsConstructCallD0Ev @3290
    _ZN2v88internal16LIsConstructCallD1Ev @3291
    _ZN2v88internal16LIsNullAndBranch11PrintDataToEPNS0_12StringStreamE @3292
    _ZN2v88internal16LIsNullAndBranch15CompileToNativeEPNS0_8LCodeGenE @3293
    _ZN2v88internal16LIsNullAndBranchD0Ev @3294
    _ZN2v88internal16LIsNullAndBranchD1Ev @3295
    _ZN2v88internal16LLoadContextSlot11PrintDataToEPNS0_12StringStreamE @3296
    _ZN2v88internal16LLoadContextSlot15CompileToNativeEPNS0_8LCodeGenE @3297
    _ZN2v88internal16LLoadContextSlotD0Ev @3298
    _ZN2v88internal16LLoadContextSlotD1Ev @3299
    _ZN2v88internal16LStoreNamedField11PrintDataToEPNS0_12StringStreamE @3300
    _ZN2v88internal16LStoreNamedField15CompileToNativeEPNS0_8LCodeGenE @3301
    _ZN2v88internal16LStoreNamedFieldD0Ev @3302
    _ZN2v88internal16LStoreNamedFieldD1Ev @3303
    _ZN2v88internal16LUnknownOSRValue15CompileToNativeEPNS0_8LCodeGenE @3304
    _ZN2v88internal16LUnknownOSRValueD0Ev @3305
    _ZN2v88internal16LUnknownOSRValueD1Ev @3306
    _ZN2v88internal16LargeObjectChunk12ChunkSizeForEi @3307
    _ZN2v88internal16LargeObjectChunk3NewEiNS0_13ExecutabilityE @3308
    _ZN2v88internal16LargeObjectSpace10FindObjectEPh @3309
    _ZN2v88internal16LargeObjectSpace11AllocateRawEi @3310
    _ZN2v88internal16LargeObjectSpace12ReserveSpaceEi @3311
    _ZN2v88internal16LargeObjectSpace13SizeOfObjectsEv @3312
    _ZN2v88internal16LargeObjectSpace15AllocateRawCodeEi @3313
    _ZN2v88internal16LargeObjectSpace19AllocateRawInternalEiiNS0_13ExecutabilityE @3314
    _ZN2v88internal16LargeObjectSpace19FreeUnmarkedObjectsEv @3315
    _ZN2v88internal16LargeObjectSpace19IterateDirtyRegionsEPFvPPNS0_10HeapObjectEE @3316
    _ZN2v88internal16LargeObjectSpace21AllocateRawFixedArrayEi @3317
    _ZN2v88internal16LargeObjectSpace21FindChunkContainingPcEPh @3318
    _ZN2v88internal16LargeObjectSpace4SizeEv @3319
    _ZN2v88internal16LargeObjectSpace5SetupEv @3320
    _ZN2v88internal16LargeObjectSpace8ContainsEPNS0_10HeapObjectE @3321
    _ZN2v88internal16LargeObjectSpace8TearDownEv @3322
    _ZN2v88internal16LargeObjectSpaceC1ENS0_15AllocationSpaceE @3323
    _ZN2v88internal16LargeObjectSpaceC2ENS0_15AllocationSpaceE @3324
    _ZN2v88internal16LargeObjectSpaceD0Ev @3325
    _ZN2v88internal16LargeObjectSpaceD1Ev @3326
    _ZN2v88internal16LoadStubCompiler16CompileLoadFieldEPNS0_8JSObjectES3_iPNS0_6StringE @3327
    _ZN2v88internal16LoadStubCompiler17CompileLoadGlobalEPNS0_8JSObjectEPNS0_12GlobalObjectEPNS0_20JSGlobalPropertyCellEPNS0_6StringEb @3328
    _ZN2v88internal16LoadStubCompiler19CompileLoadCallbackEPNS0_6StringEPNS0_8JSObjectES5_PNS0_12AccessorInfoE @3329
    _ZN2v88internal16LoadStubCompiler19CompileLoadConstantEPNS0_8JSObjectES3_PNS0_6ObjectEPNS0_6StringE @3330
    _ZN2v88internal16LoadStubCompiler22CompileLoadInterceptorEPNS0_8JSObjectES3_PNS0_6StringE @3331
    _ZN2v88internal16LoadStubCompiler22CompileLoadNonexistentEPNS0_6StringEPNS0_8JSObjectES5_ @3332
    _ZN2v88internal16LoadStubCompiler7GetCodeENS0_12PropertyTypeEPNS0_6StringE @3333
    _ZN2v88internal16LogDynamicBuffer13WriteInternalEPKci @3334
    _ZN2v88internal16LogDynamicBuffer4ReadEiPci @3335
    _ZN2v88internal16LogDynamicBuffer4SealEv @3336
    _ZN2v88internal16LogDynamicBuffer5WriteEPKci @3337
    _ZN2v88internal16LogDynamicBufferC1EiiPKci @3338
    _ZN2v88internal16LogDynamicBufferC2EiiPKci @3339
    _ZN2v88internal16LogDynamicBufferD1Ev @3340
    _ZN2v88internal16LogDynamicBufferD2Ev @3341
    _ZN2v88internal16NumberDictionary11AtNumberPutEjPNS0_6ObjectE @3342
    _ZN2v88internal16NumberDictionary14AddNumberEntryEjPNS0_6ObjectENS0_15PropertyDetailsE @3343
    _ZN2v88internal16NumberDictionary18UpdateMaxNumberKeyEj @3344
    _ZN2v88internal16NumberDictionary19RemoveNumberEntriesEjj @3345
    _ZN2v88internal16NumberDictionary3SetEjPNS0_6ObjectENS0_15PropertyDetailsE @3346
    _ZN2v88internal16OldSpaceFreeList15RebuildSizeListEv @3347
    _ZN2v88internal16OldSpaceFreeList4FreeEPhi @3348
    _ZN2v88internal16OldSpaceFreeList5ResetEv @3349
    _ZN2v88internal16OldSpaceFreeList8AllocateEiPi @3350
    _ZN2v88internal16OldSpaceFreeList9MarkNodesEv @3351
    _ZN2v88internal16OldSpaceFreeListC1ENS0_15AllocationSpaceE @3352
    _ZN2v88internal16OldSpaceFreeListC2ENS0_15AllocationSpaceE @3353
    _ZN2v88internal16PowersOfTenCache19kMaxDecimalExponentE @3354 DATA
    _ZN2v88internal16PowersOfTenCache19kMinDecimalExponentE @3355 DATA
    _ZN2v88internal16PowersOfTenCache24kDecimalExponentDistanceE @3356 DATA
    _ZN2v88internal16PowersOfTenCache32GetCachedPowerForDecimalExponentEiPNS0_5DiyFpEPi @3357
    _ZN2v88internal16PowersOfTenCache36GetCachedPowerForBinaryExponentRangeEiiPNS0_5DiyFpEPi @3358
    _ZN2v88internal16ProfileGenerator16RecordTickSampleERKNS0_10TickSampleE @3359
    _ZN2v88internal16ProfileGenerator17kProgramEntryNameE @3360 DATA
    _ZN2v88internal16ProfileGenerator22kAnonymousFunctionNameE @3361 DATA
    _ZN2v88internal16ProfileGenerator26kGarbageCollectorEntryNameE @3362 DATA
    _ZN2v88internal16ProfileGeneratorC1EPNS0_21CpuProfilesCollectionE @3363
    _ZN2v88internal16ProfileGeneratorC2EPNS0_21CpuProfilesCollectionE @3364
    _ZN2v88internal16RegExpQuantifier12AsQuantifierEv @3365
    _ZN2v88internal16RegExpQuantifier12IsQuantifierEv @3366
    _ZN2v88internal16RegExpQuantifier16CaptureRegistersEv @3367
    _ZN2v88internal16RegExpQuantifier6AcceptEPNS0_13RegExpVisitorEPv @3368
    _ZN2v88internal16RegExpQuantifier6ToNodeEPNS0_14RegExpCompilerEPNS0_10RegExpNodeE @3369
    _ZN2v88internal16RegExpQuantifier6ToNodeEiibPNS0_10RegExpTreeEPNS0_14RegExpCompilerEPNS0_10RegExpNodeEb @3370
    _ZN2v88internal16RegExpQuantifier9max_matchEv @3371
    _ZN2v88internal16RegExpQuantifier9min_matchEv @3372
    _ZN2v88internal16RegExpQuantifierD0Ev @3373
    _ZN2v88internal16RegExpQuantifierD1Ev @3374
    _ZN2v88internal16ScannerConstants12IsIdentifierEPN7unibrow15CharacterStreamE @3375
    _ZN2v88internal16ScannerConstants13kIsWhiteSpaceE @3376 DATA
    _ZN2v88internal16ScannerConstants13utf8_decoder_E @3377 DATA
    _ZN2v88internal16ScannerConstants17kIsIdentifierPartE @3378 DATA
    _ZN2v88internal16ScannerConstants17kIsLineTerminatorE @3379 DATA
    _ZN2v88internal16ScannerConstants18kIsIdentifierStartE @3380 DATA
    _ZN2v88internal16SeqTwoByteString23SeqTwoByteStringGetDataEj @3381
    _ZN2v88internal16SeqTwoByteString35SeqTwoByteStringReadBlockIntoBufferEPNS0_6String15ReadBlockBufferEPjj @3382
    _ZN2v88internal16SnapshotByteSink6PutIntEjPKc @3383
    _ZN2v88internal16StringCharAtStub8GenerateEPNS0_14MacroAssemblerE @3384
    _ZN2v88internal16StringCharAtStub8MajorKeyEv @3385
    _ZN2v88internal16StringCharAtStub8MinorKeyEv @3386
    _ZN2v88internal16StringCharAtStubD0Ev @3387
    _ZN2v88internal16StringCharAtStubD1Ev @3388
    _ZN2v88internal16StringDictionary14CopyEnumKeysToEPNS0_10FixedArrayES3_ @3389
    _ZN2v88internal16StringDictionary28TransformPropertiesToFastForEPNS0_8JSObjectEi @3390
    _ZN2v88internal16StringDictionary9FindEntryEPNS0_6StringE @3391
    _ZN2v88internal16StringSearchBase12kSuffixTableE @3392 DATA
    _ZN2v88internal16StringSearchBase18kBadCharShiftTableE @3393 DATA
    _ZN2v88internal16StringSearchBase21kGoodSuffixShiftTableE @3394 DATA
    _ZN2v88internal16TwoByteSymbolKey7IsMatchEPNS0_6ObjectE @3395
    _ZN2v88internal16TwoByteSymbolKey8AsObjectEv @3396
    _ZN2v88internal16TwoByteSymbolKeyD0Ev @3397
    _ZN2v88internal16TwoByteSymbolKeyD1Ev @3398
    _ZN2v88internal16WriteCharsToFileEPKciP9__sFILE64 @3399
    _ZN2v88internal16power_double_intEdi @3400
    _ZN2v88internal17AllocateRawStringINS0_14SeqAsciiStringEEEPNS0_11MaybeObjectEi @3401
    _ZN2v88internal17AllocateRawStringINS0_16SeqTwoByteStringEEEPNS0_11MaybeObjectEi @3402
    _ZN2v88internal17BackReferenceNode11EatsAtLeastEiib @3403
    _ZN2v88internal17BackReferenceNode20GetQuickCheckDetailsEPNS0_17QuickCheckDetailsEPNS0_14RegExpCompilerEib @3404
    _ZN2v88internal17BackReferenceNode24ComputeFirstCharacterSetEi @3405
    _ZN2v88internal17BackReferenceNode4EmitEPNS0_14RegExpCompilerEPNS0_5TraceE @3406
    _ZN2v88internal17BackReferenceNode5CloneEv @3407
    _ZN2v88internal17BackReferenceNode6AcceptEPNS0_11NodeVisitorE @3408
    _ZN2v88internal17BackReferenceNodeD0Ev @3409
    _ZN2v88internal17BackReferenceNodeD1Ev @3410
    _ZN2v88internal17CalculateLineEndsENS0_6HandleINS0_6StringEEEb @3411
    _ZN2v88internal17CompileLazyInLoopENS0_6HandleINS0_10JSFunctionEEENS0_18ClearExceptionFlagE @3412
    _ZN2v88internal17CompileLazySharedENS0_6HandleINS0_18SharedFunctionInfoEEENS0_18ClearExceptionFlagE @3413
    _ZN2v88internal17ContinueStatement19AsContinueStatementEv @3414
    _ZN2v88internal17ContinueStatement6AcceptEPNS0_10AstVisitorE @3415
    _ZN2v88internal17ContinueStatementD0Ev @3416
    _ZN2v88internal17ContinueStatementD1Ev @3417
    _ZN2v88internal17DebugInfoListNodeC1EPNS0_9DebugInfoE @3418
    _ZN2v88internal17DebugInfoListNodeC2EPNS0_9DebugInfoE @3419
    _ZN2v88internal17DebugInfoListNodeD0Ev @3420
    _ZN2v88internal17DebugInfoListNodeD1Ev @3421
    _ZN2v88internal17DebugInfoListNodeD2Ev @3422
    _ZN2v88internal17DebuggerAgentUtil10ReceiveAllEPKNS0_6SocketEPci @3423
    _ZN2v88internal17DebuggerAgentUtil11SendMessageEPKNS0_6SocketENS0_6VectorItEE @3424
    _ZN2v88internal17DebuggerAgentUtil11SendMessageEPKNS0_6SocketENS_6HandleINS_6StringEEE @3425
    _ZN2v88internal17DebuggerAgentUtil14ReceiveMessageEPKNS0_6SocketE @3426
    _ZN2v88internal17DebuggerAgentUtil14kContentLengthE @3427 DATA
    _ZN2v88internal17DebuggerAgentUtil18SendConnectMessageEPKNS0_6SocketEPKc @3428
    _ZN2v88internal17DebuggerAgentUtil18kContentLengthSizeE @3429 DATA
    _ZN2v88internal17DebuggerStatement19AsDebuggerStatementEv @3430
    _ZN2v88internal17DebuggerStatement6AcceptEPNS0_10AstVisitorE @3431
    _ZN2v88internal17DebuggerStatementD0Ev @3432
    _ZN2v88internal17DebuggerStatementD1Ev @3433
    _ZN2v88internal17DeferredTaggedToI8GenerateEv @3434
    _ZN2v88internal17DeferredTaggedToID0Ev @3435
    _ZN2v88internal17DeferredTaggedToID1Ev @3436
    _ZN2v88internal17EnableSlowAssertsEv @3437
    _ZN2v88internal17ExternalByteArray8SetValueEjPNS0_6ObjectE @3438
    _ZN2v88internal17ExternalReference11debug_breakEv @3439
    _ZN2v88internal17ExternalReference11redirector_E @3440 DATA
    _ZN2v88internal17ExternalReference13re_grow_stackEv @3441
    _ZN2v88internal17ExternalReference13roots_addressEv @3442
    _ZN2v88internal17ExternalReference14new_space_maskEv @3443
    _ZN2v88internal17ExternalReference15compare_doublesEv @3444
    _ZN2v88internal17ExternalReference15new_space_startEv @3445
    _ZN2v88internal17ExternalReference18address_of_min_intEv @3446
    _ZN2v88internal17ExternalReference19address_of_one_halfEv @3447
    _ZN2v88internal17ExternalReference19double_fp_operationENS0_5Token5ValueE @3448
    _ZN2v88internal17ExternalReference19perform_gc_functionEv @3449
    _ZN2v88internal17ExternalReference20global_contexts_listEv @3450
    _ZN2v88internal17ExternalReference21address_of_minus_zeroEv @3451
    _ZN2v88internal17ExternalReference21re_word_character_mapEv @3452
    _ZN2v88internal17ExternalReference22address_of_stack_limitEv @3453
    _ZN2v88internal17ExternalReference22random_uint32_functionEv @3454
    _ZN2v88internal17ExternalReference23keyed_lookup_cache_keysEv @3455
    _ZN2v88internal17ExternalReference23the_hole_value_locationEv @3456
    _ZN2v88internal17ExternalReference24debug_step_in_fp_addressEv @3457
    _ZN2v88internal17ExternalReference24new_deoptimizer_functionEv @3458
    _ZN2v88internal17ExternalReference25arguments_marker_locationEv @3459
    _ZN2v88internal17ExternalReference25handle_scope_next_addressEv @3460
    _ZN2v88internal17ExternalReference25power_double_int_functionEv @3461
    _ZN2v88internal17ExternalReference26handle_scope_level_addressEv @3462
    _ZN2v88internal17ExternalReference26handle_scope_limit_addressEv @3463
    _ZN2v88internal17ExternalReference26re_check_stack_guard_stateEv @3464
    _ZN2v88internal17ExternalReference27address_of_real_stack_limitEv @3465
    _ZN2v88internal17ExternalReference27scheduled_exception_addressEv @3466
    _ZN2v88internal17ExternalReference28address_of_negative_infinityEv @3467
    _ZN2v88internal17ExternalReference28power_double_double_functionEv @3468
    _ZN2v88internal17ExternalReference29address_of_regexp_stack_limitEv @3469
    _ZN2v88internal17ExternalReference30compute_output_frames_functionEv @3470
    _ZN2v88internal17ExternalReference30delete_handle_scope_extensionsEv @3471
    _ZN2v88internal17ExternalReference32address_of_static_offsets_vectorEv @3472
    _ZN2v88internal17ExternalReference32heap_always_allocate_scope_depthEv @3473
    _ZN2v88internal17ExternalReference32keyed_lookup_cache_field_offsetsEv @3474
    _ZN2v88internal17ExternalReference32new_space_allocation_top_addressEv @3475
    _ZN2v88internal17ExternalReference32re_case_insensitive_compare_uc16Ev @3476
    _ZN2v88internal17ExternalReference34new_space_allocation_limit_addressEv @3477
    _ZN2v88internal17ExternalReference34transcendental_cache_array_addressEv @3478
    _ZN2v88internal17ExternalReference35address_of_regexp_stack_memory_sizeEv @3479
    _ZN2v88internal17ExternalReference37fill_heap_number_with_random_functionEv @3480
    _ZN2v88internal17ExternalReference38address_of_regexp_stack_memory_addressEv @3481
    _ZN2v88internal17ExternalReferenceC1ENS0_3Top9AddressIdE @3482
    _ZN2v88internal17ExternalReferenceC1ENS0_7Runtime10FunctionIdE @3483
    _ZN2v88internal17ExternalReferenceC1ENS0_8Builtins11CFunctionIdE @3484
    _ZN2v88internal17ExternalReferenceC1ENS0_8Builtins4NameE @3485
    _ZN2v88internal17ExternalReferenceC1EPNS0_12StatsCounterE @3486
    _ZN2v88internal17ExternalReferenceC1EPNS0_7Runtime8FunctionE @3487
    _ZN2v88internal17ExternalReferenceC1EPNS_11ApiFunctionENS1_4TypeE @3488
    _ZN2v88internal17ExternalReferenceC1ERKNS0_10IC_UtilityE @3489
    _ZN2v88internal17ExternalReferenceC1ERKNS0_13Debug_AddressE @3490
    _ZN2v88internal17ExternalReferenceC1ERKNS0_16SCTableReferenceE @3491
    _ZN2v88internal17ExternalReferenceC2ENS0_3Top9AddressIdE @3492
    _ZN2v88internal17ExternalReferenceC2ENS0_7Runtime10FunctionIdE @3493
    _ZN2v88internal17ExternalReferenceC2ENS0_8Builtins11CFunctionIdE @3494
    _ZN2v88internal17ExternalReferenceC2ENS0_8Builtins4NameE @3495
    _ZN2v88internal17ExternalReferenceC2EPNS0_12StatsCounterE @3496
    _ZN2v88internal17ExternalReferenceC2EPNS0_7Runtime8FunctionE @3497
    _ZN2v88internal17ExternalReferenceC2EPNS_11ApiFunctionENS1_4TypeE @3498
    _ZN2v88internal17ExternalReferenceC2ERKNS0_10IC_UtilityE @3499
    _ZN2v88internal17ExternalReferenceC2ERKNS0_13Debug_AddressE @3500
    _ZN2v88internal17ExternalReferenceC2ERKNS0_16SCTableReferenceE @3501
    _ZN2v88internal17FLAG_check_icacheE @3502 DATA
    _ZN2v88internal17FLAG_collect_mapsE @3503 DATA
    _ZN2v88internal17FLAG_enable_armv7E @3504 DATA
    _ZN2v88internal17FLAG_enable_rdtscE @3505 DATA
    _ZN2v88internal17FLAG_js_argumentsE @3506 DATA
    _ZN2v88internal17FLAG_loop_peelingE @3507 DATA
    _ZN2v88internal17FLAG_map_countersE @3508 DATA
    _ZN2v88internal17FLAG_new_snapshotE @3509 DATA
    _ZN2v88internal17FLAG_optimize_astE @3510 DATA
    _ZN2v88internal17FLAG_trace_gc_nvpE @3511 DATA
    _ZN2v88internal17FLAG_use_hydrogenE @3512 DATA
    _ZN2v88internal17FLAG_use_inliningE @3513 DATA
    _ZN2v88internal17FindStringIndicesIccEEvNS0_6VectorIKT_EENS2_IKT0_EEPNS0_8ZoneListIiEEj @3514
    _ZN2v88internal17FindStringIndicesIctEEvNS0_6VectorIKT_EENS2_IKT0_EEPNS0_8ZoneListIiEEj @3515
    _ZN2v88internal17FindStringIndicesItcEEvNS0_6VectorIKT_EENS2_IKT0_EEPNS0_8ZoneListIiEEj @3516
    _ZN2v88internal17FindStringIndicesIttEEvNS0_6VectorIKT_EENS2_IKT0_EEPNS0_8ZoneListIiEEj @3517
    _ZN2v88internal17FixedArrayBuilder9ToJSArrayENS0_6HandleINS0_7JSArrayEEE @3518
    _ZN2v88internal17FixedSizeFreeList4FreeEPh @3519
    _ZN2v88internal17FixedSizeFreeList5ResetEv @3520
    _ZN2v88internal17FixedSizeFreeList8AllocateEv @3521
    _ZN2v88internal17FixedSizeFreeList9MarkNodesEv @3522
    _ZN2v88internal17FixedSizeFreeListC1ENS0_15AllocationSpaceEi @3523
    _ZN2v88internal17FixedSizeFreeListC2ENS0_15AllocationSpaceEi @3524
    _ZN2v88internal17FullCodeGenerator10EmitCallICENS0_6HandleINS0_4CodeEEENS0_9RelocInfo4ModeE @3525
    _ZN2v88internal17FullCodeGenerator10EmitCallICENS0_6HandleINS0_4CodeEEEPNS0_13JumpPatchSiteE @3526
    _ZN2v88internal17FullCodeGenerator10SlotOffsetEPNS0_4SlotE @3527
    _ZN2v88internal17FullCodeGenerator10TryFinally12AsTryFinallyEv @3528
    _ZN2v88internal17FullCodeGenerator10TryFinally4ExitEi @3529
    _ZN2v88internal17FullCodeGenerator10TryFinallyD0Ev @3530
    _ZN2v88internal17FullCodeGenerator10TryFinallyD1Ev @3531
    _ZN2v88internal17FullCodeGenerator10VisitBlockEPNS0_5BlockE @3532
    _ZN2v88internal17FullCodeGenerator10VisitThrowEPNS0_5ThrowE @3533
    _ZN2v88internal17FullCodeGenerator11EmitClassOfEPNS0_8ZoneListIPNS0_10ExpressionEEE @3534
    _ZN2v88internal17FullCodeGenerator11EmitIsArrayEPNS0_8ZoneListIPNS0_10ExpressionEEE @3535
    _ZN2v88internal17FullCodeGenerator11EmitMathCosEPNS0_8ZoneListIPNS0_10ExpressionEEE @3536
    _ZN2v88internal17FullCodeGenerator11EmitMathLogEPNS0_8ZoneListIPNS0_10ExpressionEEE @3537
    _ZN2v88internal17FullCodeGenerator11EmitMathPowEPNS0_8ZoneListIPNS0_10ExpressionEEE @3538
    _ZN2v88internal17FullCodeGenerator11EmitMathSinEPNS0_8ZoneListIPNS0_10ExpressionEEE @3539
    _ZN2v88internal17FullCodeGenerator11EmitValueOfEPNS0_8ZoneListIPNS0_10ExpressionEEE @3540
    _ZN2v88internal17FullCodeGenerator11TestContextD0Ev @3541
    _ZN2v88internal17FullCodeGenerator11TestContextD1Ev @3542
    _ZN2v88internal17FullCodeGenerator12EmitBinaryOpENS0_5Token5ValueENS0_13OverwriteModeE @3543
    _ZN2v88internal17FullCodeGenerator12EmitIsObjectEPNS0_8ZoneListIPNS0_10ExpressionEEE @3544
    _ZN2v88internal17FullCodeGenerator12EmitIsRegExpEPNS0_8ZoneListIPNS0_10ExpressionEEE @3545
    _ZN2v88internal17FullCodeGenerator12EmitMathSqrtEPNS0_8ZoneListIPNS0_10ExpressionEEE @3546
    _ZN2v88internal17FullCodeGenerator12VisitCallNewEPNS0_7CallNewE @3547
    _ZN2v88internal17FullCodeGenerator12VisitLiteralEPNS0_7LiteralE @3548
    _ZN2v88internal17FullCodeGenerator13EffectContextD0Ev @3549
    _ZN2v88internal17FullCodeGenerator13EffectContextD1Ev @3550
    _ZN2v88internal17FullCodeGenerator13EmitArgumentsEPNS0_8ZoneListIPNS0_10ExpressionEEE @3551
    _ZN2v88internal17FullCodeGenerator13EmitStringAddEPNS0_8ZoneListIPNS0_10ExpressionEEE @3552
    _ZN2v88internal17FullCodeGenerator13EmitSubStringEPNS0_8ZoneListIPNS0_10ExpressionEEE @3553
    _ZN2v88internal17FullCodeGenerator13VisitPropertyEPNS0_8PropertyE @3554
    _ZN2v88internal17FullCodeGenerator14DeclareGlobalsENS0_6HandleINS0_10FixedArrayEEE @3555
    _ZN2v88internal17FullCodeGenerator14EmitAssignmentEPNS0_10ExpressionEi @3556
    _ZN2v88internal17FullCodeGenerator14EmitCallWithICEPNS0_4CallENS0_6HandleINS0_6ObjectEEENS0_9RelocInfo4ModeE @3557
    _ZN2v88internal17FullCodeGenerator14EmitIsFunctionEPNS0_8ZoneListIPNS0_10ExpressionEEE @3558
    _ZN2v88internal17FullCodeGenerator14EmitNewClosureENS0_6HandleINS0_18SharedFunctionInfoEEEb @3559
    _ZN2v88internal17FullCodeGenerator14EmitRegExpExecEPNS0_8ZoneListIPNS0_10ExpressionEEE @3560
    _ZN2v88internal17FullCodeGenerator14EmitSetValueOfEPNS0_8ZoneListIPNS0_10ExpressionEEE @3561
    _ZN2v88internal17FullCodeGenerator14EmitSlotSearchEPNS0_4SlotENS0_8RegisterE @3562
    _ZN2v88internal17FullCodeGenerator14EmitStackCheckEPNS0_18IterationStatementE @3563
    _ZN2v88internal17FullCodeGenerator14VisitForEffectEPNS0_10ExpressionE @3564
    _ZN2v88internal17FullCodeGenerator15EmitDeclarationEPNS0_8VariableENS2_4ModeEPNS0_15FunctionLiteralE @3565
    _ZN2v88internal17FullCodeGenerator15NestedStatement10AsTryCatchEv @3566
    _ZN2v88internal17FullCodeGenerator15NestedStatement11AsBreakableEv @3567
    _ZN2v88internal17FullCodeGenerator15NestedStatement11AsIterationEv @3568
    _ZN2v88internal17FullCodeGenerator15NestedStatement12AsTryFinallyEv @3569
    _ZN2v88internal17FullCodeGenerator15NestedStatement13IsBreakTargetEPNS0_9StatementE @3570
    _ZN2v88internal17FullCodeGenerator15NestedStatement16IsContinueTargetEPNS0_9StatementE @3571
    _ZN2v88internal17FullCodeGenerator15NestedStatement4ExitEi @3572
    _ZN2v88internal17FullCodeGenerator15NestedStatement7AsForInEv @3573
    _ZN2v88internal17FullCodeGenerator15NestedStatement9AsFinallyEv @3574
    _ZN2v88internal17FullCodeGenerator15NestedStatementD0Ev @3575
    _ZN2v88internal17FullCodeGenerator15NestedStatementD1Ev @3576
    _ZN2v88internal17FullCodeGenerator15VisitAssignmentEPNS0_10AssignmentE @3577
    _ZN2v88internal17FullCodeGenerator15result_registerEv @3578
    _ZN2v88internal17FullCodeGenerator16ClearAccumulatorEv @3579
    _ZN2v88internal17FullCodeGenerator16EmitCallFunctionEPNS0_8ZoneListIPNS0_10ExpressionEEE @3580
    _ZN2v88internal17FullCodeGenerator16EmitCallWithStubEPNS0_4CallE @3581
    _ZN2v88internal17FullCodeGenerator16EmitGetFromCacheEPNS0_8ZoneListIPNS0_10ExpressionEEE @3582
    _ZN2v88internal17FullCodeGenerator16EmitIsSpecObjectEPNS0_8ZoneListIPNS0_10ExpressionEEE @3583
    _ZN2v88internal17FullCodeGenerator16EmitObjectEqualsEPNS0_8ZoneListIPNS0_10ExpressionEEE @3584
    _ZN2v88internal17FullCodeGenerator16EmitStringCharAtEPNS0_8ZoneListIPNS0_10ExpressionEEE @3585
    _ZN2v88internal17FullCodeGenerator16EmitSwapElementsEPNS0_8ZoneListIPNS0_10ExpressionEEE @3586
    _ZN2v88internal17FullCodeGenerator16EmitVariableLoadEPNS0_8VariableE @3587
    _ZN2v88internal17FullCodeGenerator16ExitFinallyBlockEv @3588
    _ZN2v88internal17FullCodeGenerator16LoadContextFieldENS0_8RegisterEi @3589
    _ZN2v88internal17FullCodeGenerator16RecordStackCheckEi @3590
    _ZN2v88internal17FullCodeGenerator16VisitCallRuntimeEPNS0_11CallRuntimeE @3591
    _ZN2v88internal17FullCodeGenerator16VisitConditionalEPNS0_11ConditionalE @3592
    _ZN2v88internal17FullCodeGenerator16VisitDeclarationEPNS0_11DeclarationE @3593
    _ZN2v88internal17FullCodeGenerator16VisitIfStatementEPNS0_11IfStatementE @3594
    _ZN2v88internal17FullCodeGenerator16context_registerEv @3595
    _ZN2v88internal17FullCodeGenerator17EmitStringCompareEPNS0_8ZoneListIPNS0_10ExpressionEEE @3596
    _ZN2v88internal17FullCodeGenerator17EnterFinallyBlockEv @3597
    _ZN2v88internal17FullCodeGenerator17ExpressionContextD0Ev @3598
    _ZN2v88internal17FullCodeGenerator17ExpressionContextD1Ev @3599
    _ZN2v88internal17FullCodeGenerator17PrepareForBailoutEPNS0_7AstNodeENS1_5StateE @3600
    _ZN2v88internal17FullCodeGenerator17SetReturnPositionEPNS0_15FunctionLiteralE @3601
    _ZN2v88internal17FullCodeGenerator17SetSourcePositionEi @3602
    _ZN2v88internal17FullCodeGenerator17StackValueContextD0Ev @3603
    _ZN2v88internal17FullCodeGenerator17StackValueContextD1Ev @3604
    _ZN2v88internal17FullCodeGenerator17StoreToFrameFieldEiNS0_8RegisterE @3605
    _ZN2v88internal17FullCodeGenerator17TryLiteralCompareENS0_5Token5ValueEPNS0_10ExpressionES5_PNS0_5LabelES7_S7_ @3606
    _ZN2v88internal17FullCodeGenerator17VisitArrayLiteralEPNS0_12ArrayLiteralE @3607
    _ZN2v88internal17FullCodeGenerator17VisitDeclarationsEPNS0_8ZoneListIPNS0_11DeclarationEEE @3608
    _ZN2v88internal17FullCodeGenerator17VisitForStatementEPNS0_12ForStatementE @3609
    _ZN2v88internal17FullCodeGenerator17VisitThisFunctionEPNS0_12ThisFunctionE @3610
    _ZN2v88internal17FullCodeGenerator18EmitNumberToStringEPNS0_8ZoneListIPNS0_10ExpressionEEE @3611
    _ZN2v88internal17FullCodeGenerator18EmitReturnSequenceEv @3612
    _ZN2v88internal17FullCodeGenerator18RecordJSReturnSiteEPNS0_4CallE @3613
    _ZN2v88internal17FullCodeGenerator18VisitCompareToNullEPNS0_13CompareToNullE @3614
    _ZN2v88internal17FullCodeGenerator18VisitInTestContextEPNS0_10ExpressionE @3615
    _ZN2v88internal17FullCodeGenerator18VisitObjectLiteralEPNS0_13ObjectLiteralE @3616
    _ZN2v88internal17FullCodeGenerator18VisitRegExpLiteralEPNS0_13RegExpLiteralE @3617
    _ZN2v88internal17FullCodeGenerator18VisitVariableProxyEPNS0_13VariableProxyE @3618
    _ZN2v88internal17FullCodeGenerator19EmitArgumentsLengthEPNS0_8ZoneListIPNS0_10ExpressionEEE @3619
    _ZN2v88internal17FullCodeGenerator19EmitIsConstructCallEPNS0_8ZoneListIPNS0_10ExpressionEEE @3620
    _ZN2v88internal17FullCodeGenerator19EmitKeyedCallWithICEPNS0_4CallEPNS0_10ExpressionENS0_9RelocInfo4ModeE @3621
    _ZN2v88internal17FullCodeGenerator19EmitStackCheckTableEv @3622
    _ZN2v88internal17FullCodeGenerator19SetFunctionPositionEPNS0_15FunctionLiteralE @3623
    _ZN2v88internal17FullCodeGenerator19ShouldInlineSmiCaseENS0_5Token5ValueE @3624
    _ZN2v88internal17FullCodeGenerator19VisitBreakStatementEPNS0_14BreakStatementE @3625
    _ZN2v88internal17FullCodeGenerator19VisitCountOperationEPNS0_14CountOperationE @3626
    _ZN2v88internal17FullCodeGenerator19VisitEmptyStatementEPNS0_14EmptyStatementE @3627
    _ZN2v88internal17FullCodeGenerator19VisitForInStatementEPNS0_14ForInStatementE @3628
    _ZN2v88internal17FullCodeGenerator19VisitForTypeofValueEPNS0_10ExpressionE @3629
    _ZN2v88internal17FullCodeGenerator19VisitUnaryOperationEPNS0_14UnaryOperationE @3630
    _ZN2v88internal17FullCodeGenerator19VisitWhileStatementEPNS0_14WhileStatementE @3631
    _ZN2v88internal17FullCodeGenerator20EmitIsNonNegativeSmiEPNS0_8ZoneListIPNS0_10ExpressionEEE @3632
    _ZN2v88internal17FullCodeGenerator20EmitLogicalOperationEPNS0_15BinaryOperationE @3633
    _ZN2v88internal17FullCodeGenerator20EmitRandomHeapNumberEPNS0_8ZoneListIPNS0_10ExpressionEEE @3634
    _ZN2v88internal17FullCodeGenerator20EmitStringCharCodeAtEPNS0_8ZoneListIPNS0_10ExpressionEEE @3635
    _ZN2v88internal17FullCodeGenerator20SetStatementPositionEPNS0_9StatementE @3636
    _ZN2v88internal17FullCodeGenerator20SetStatementPositionEi @3637
    _ZN2v88internal17FullCodeGenerator20VisitBinaryOperationEPNS0_15BinaryOperationE @3638
    _ZN2v88internal17FullCodeGenerator20VisitFunctionLiteralEPNS0_15FunctionLiteralE @3639
    _ZN2v88internal17FullCodeGenerator20VisitReturnStatementEPNS0_15ReturnStatementE @3640
    _ZN2v88internal17FullCodeGenerator20VisitSwitchStatementEPNS0_15SwitchStatementE @3641
    _ZN2v88internal17FullCodeGenerator21EmitInlineRuntimeCallEPNS0_11CallRuntimeE @3642
    _ZN2v88internal17FullCodeGenerator21EmitInlineSmiBinaryOpEPNS0_10ExpressionENS0_5Token5ValueENS0_13OverwriteModeES3_S3_ @3643
    _ZN2v88internal17FullCodeGenerator21EmitKeyedPropertyLoadEPNS0_8PropertyE @3644
    _ZN2v88internal17FullCodeGenerator21EmitNamedPropertyLoadEPNS0_8PropertyE @3645
    _ZN2v88internal17FullCodeGenerator21ForwardBailoutToChildEPNS0_10ExpressionE @3646
    _ZN2v88internal17FullCodeGenerator21SetExpressionPositionEPNS0_10ExpressionEi @3647
    _ZN2v88internal17FullCodeGenerator21VisitCompareOperationEPNS0_16CompareOperationE @3648
    _ZN2v88internal17FullCodeGenerator21VisitDoWhileStatementEPNS0_16DoWhileStatementE @3649
    _ZN2v88internal17FullCodeGenerator22EmitFastAsciiArrayJoinEPNS0_8ZoneListIPNS0_10ExpressionEEE @3650
    _ZN2v88internal17FullCodeGenerator22EmitIsRegExpEquivalentEPNS0_8ZoneListIPNS0_10ExpressionEEE @3651
    _ZN2v88internal17FullCodeGenerator22EmitStringCharFromCodeEPNS0_8ZoneListIPNS0_10ExpressionEEE @3652
    _ZN2v88internal17FullCodeGenerator22EmitVariableAssignmentEPNS0_8VariableENS0_5Token5ValueE @3653
    _ZN2v88internal17FullCodeGenerator22HandleInNonTestContextEPNS0_10ExpressionENS1_5StateE @3654
    _ZN2v88internal17FullCodeGenerator22PrepareForBailoutForIdEiNS1_5StateE @3655
    _ZN2v88internal17FullCodeGenerator22VisitContinueStatementEPNS0_17ContinueStatementE @3656
    _ZN2v88internal17FullCodeGenerator22VisitDebuggerStatementEPNS0_17DebuggerStatementE @3657
    _ZN2v88internal17FullCodeGenerator22VisitTryCatchStatementEPNS0_17TryCatchStatementE @3658
    _ZN2v88internal17FullCodeGenerator22VisitWithExitStatementEPNS0_17WithExitStatementE @3659
    _ZN2v88internal17FullCodeGenerator23AccumulatorValueContextD0Ev @3660
    _ZN2v88internal17FullCodeGenerator23AccumulatorValueContextD1Ev @3661
    _ZN2v88internal17FullCodeGenerator23EmitGetCachedArrayIndexEPNS0_8ZoneListIPNS0_10ExpressionEEE @3662
    _ZN2v88internal17FullCodeGenerator23EmitHasCachedArrayIndexEPNS0_8ZoneListIPNS0_10ExpressionEEE @3663
    _ZN2v88internal17FullCodeGenerator23VisitIncrementOperationEPNS0_18IncrementOperationE @3664
    _ZN2v88internal17FullCodeGenerator23VisitWithEnterStatementEPNS0_18WithEnterStatementE @3665
    _ZN2v88internal17FullCodeGenerator24EmitIsUndetectableObjectEPNS0_8ZoneListIPNS0_10ExpressionEEE @3666
    _ZN2v88internal17FullCodeGenerator24VisitExpressionStatementEPNS0_19ExpressionStatementE @3667
    _ZN2v88internal17FullCodeGenerator24VisitTryFinallyStatementEPNS0_19TryFinallyStatementE @3668
    _ZN2v88internal17FullCodeGenerator25EmitRegExpConstructResultEPNS0_8ZoneListIPNS0_10ExpressionEEE @3669
    _ZN2v88internal17FullCodeGenerator25VisitCatchExtensionObjectEPNS0_20CatchExtensionObjectE @3670
    _ZN2v88internal17FullCodeGenerator25kInlineFunctionGeneratorsE @3671 DATA
    _ZN2v88internal17FullCodeGenerator26PopulateDeoptimizationDataENS0_6HandleINS0_4CodeEEE @3672
    _ZN2v88internal17FullCodeGenerator27EmitKeyedPropertyAssignmentEPNS0_10AssignmentE @3673
    _ZN2v88internal17FullCodeGenerator27EmitNamedPropertyAssignmentEPNS0_10AssignmentE @3674
    _ZN2v88internal17FullCodeGenerator27FindInlineFunctionGeneratorENS0_7Runtime10FunctionIdE @3675
    _ZN2v88internal17FullCodeGenerator28PrepareForBailoutBeforeSplitENS1_5StateEbPNS0_5LabelES4_ @3676
    _ZN2v88internal17FullCodeGenerator29EmitResolvePossiblyDirectEvalENS1_15ResolveEvalFlagEi @3677
    _ZN2v88internal17FullCodeGenerator30VisitSharedFunctionInfoLiteralEPNS0_25SharedFunctionInfoLiteralE @3678
    _ZN2v88internal17FullCodeGenerator31EmitDynamicLoadFromSlotFastCaseEPNS0_4SlotE11TypeofStatePNS0_5LabelES6_ @3679
    _ZN2v88internal17FullCodeGenerator33ContextSlotOperandCheckExtensionsEPNS0_4SlotEPNS0_5LabelE @3680
    _ZN2v88internal17FullCodeGenerator33EmitLoadGlobalSlotCheckExtensionsEPNS0_4SlotE11TypeofStatePNS0_5LabelE @3681
    _ZN2v88internal17FullCodeGenerator40EmitIsStringWrapperSafeForDefaultValueOfEPNS0_8ZoneListIPNS0_10ExpressionEEE @3682
    _ZN2v88internal17FullCodeGenerator4MoveENS0_8RegisterEPNS0_4SlotE @3683
    _ZN2v88internal17FullCodeGenerator4MoveEPNS0_4SlotENS0_8RegisterES4_S4_ @3684
    _ZN2v88internal17FullCodeGenerator5ForIn4ExitEi @3685
    _ZN2v88internal17FullCodeGenerator5ForIn7AsForInEv @3686
    _ZN2v88internal17FullCodeGenerator5ForInD0Ev @3687
    _ZN2v88internal17FullCodeGenerator5ForInD1Ev @3688
    _ZN2v88internal17FullCodeGenerator5SplitENS0_9ConditionEPNS0_5LabelES4_S4_ @3689
    _ZN2v88internal17FullCodeGenerator6DoTestEPNS0_5LabelES3_S3_ @3690
    _ZN2v88internal17FullCodeGenerator7EmitLogEPNS0_8ZoneListIPNS0_10ExpressionEEE @3691
    _ZN2v88internal17FullCodeGenerator7Finally4ExitEi @3692
    _ZN2v88internal17FullCodeGenerator7Finally9AsFinallyEv @3693
    _ZN2v88internal17FullCodeGenerator7FinallyD0Ev @3694
    _ZN2v88internal17FullCodeGenerator7FinallyD1Ev @3695
    _ZN2v88internal17FullCodeGenerator8GenerateEPNS0_15CompilationInfoE @3696
    _ZN2v88internal17FullCodeGenerator8MakeCodeEPNS0_15CompilationInfoE @3697
    _ZN2v88internal17FullCodeGenerator8TryCatch10AsTryCatchEv @3698
    _ZN2v88internal17FullCodeGenerator8TryCatch4ExitEi @3699
    _ZN2v88internal17FullCodeGenerator8TryCatchD0Ev @3700
    _ZN2v88internal17FullCodeGenerator8TryCatchD1Ev @3701
    _ZN2v88internal17FullCodeGenerator9Breakable11AsBreakableEv @3702
    _ZN2v88internal17FullCodeGenerator9Breakable13IsBreakTargetEPNS0_9StatementE @3703
    _ZN2v88internal17FullCodeGenerator9BreakableD0Ev @3704
    _ZN2v88internal17FullCodeGenerator9BreakableD1Ev @3705
    _ZN2v88internal17FullCodeGenerator9EmitIsSmiEPNS0_8ZoneListIPNS0_10ExpressionEEE @3706
    _ZN2v88internal17FullCodeGenerator9Iteration11AsIterationEv @3707
    _ZN2v88internal17FullCodeGenerator9Iteration16IsContinueTargetEPNS0_9StatementE @3708
    _ZN2v88internal17FullCodeGenerator9IterationD0Ev @3709
    _ZN2v88internal17FullCodeGenerator9IterationD1Ev @3710
    _ZN2v88internal17FullCodeGenerator9VisitCallEPNS0_4CallE @3711
    _ZN2v88internal17FullCodeGeneratorD0Ev @3712
    _ZN2v88internal17FullCodeGeneratorD1Ev @3713
    _ZN2v88internal17HFixedArrayLength10DataEqualsEPNS0_6HValueE @3714
    _ZN2v88internal17HFixedArrayLength16CompileToLithiumEPNS0_13LChunkBuilderE @3715
    _ZN2v88internal17HFixedArrayLengthD0Ev @3716
    _ZN2v88internal17HFixedArrayLengthD1Ev @3717
    _ZN2v88internal17HLoadKeyedGeneric11PrintDataToEPNS0_12StringStreamE @3718
    _ZN2v88internal17HLoadKeyedGeneric16CompileToLithiumEPNS0_13LChunkBuilderE @3719
    _ZN2v88internal17HLoadKeyedGenericD0Ev @3720
    _ZN2v88internal17HLoadKeyedGenericD1Ev @3721
    _ZN2v88internal17HLoadNamedGeneric16CompileToLithiumEPNS0_13LChunkBuilderE @3722
    _ZN2v88internal17HLoadNamedGenericD0Ev @3723
    _ZN2v88internal17HLoadNamedGenericD1Ev @3724
    _ZN2v88internal17HPixelArrayLength10DataEqualsEPNS0_6HValueE @3725
    _ZN2v88internal17HPixelArrayLength16CompileToLithiumEPNS0_13LChunkBuilderE @3726
    _ZN2v88internal17HPixelArrayLengthD0Ev @3727
    _ZN2v88internal17HPixelArrayLengthD1Ev @3728
    _ZN2v88internal17HStoreContextSlot11PrintDataToEPNS0_12StringStreamE @3729
    _ZN2v88internal17HStoreContextSlot16CompileToLithiumEPNS0_13LChunkBuilderE @3730
    _ZN2v88internal17HStoreContextSlotD0Ev @3731
    _ZN2v88internal17HStoreContextSlotD1Ev @3732
    _ZN2v88internal17HStringCharCodeAt10DataEqualsEPNS0_6HValueE @3733
    _ZN2v88internal17HStringCharCodeAt10InferRangeEv @3734
    _ZN2v88internal17HStringCharCodeAt16CompileToLithiumEPNS0_13LChunkBuilderE @3735
    _ZN2v88internal17HStringCharCodeAtD0Ev @3736
    _ZN2v88internal17HStringCharCodeAtD1Ev @3737
    _ZN2v88internal17HeapObjectTagMaskEv @3738
    _ZN2v88internal17HeapObjectsFilterD0Ev @3739
    _ZN2v88internal17HeapObjectsFilterD1Ev @3740
    _ZN2v88internal17HeapSnapshotsDiff11CreateRootsEii @3741
    _ZN2v88internal17JSCallerSavedCodeEi @3742
    _ZN2v88internal17JavaScriptScanner10ScanEscapeEv @3743
    _ZN2v88internal17JavaScriptScanner10ScanNumberEb @3744
    _ZN2v88internal17JavaScriptScanner10ScanStringEv @3745
    _ZN2v88internal17JavaScriptScanner11SeekForwardEi @3746
    _ZN2v88internal17JavaScriptScanner14SkipWhiteSpaceEv @3747
    _ZN2v88internal17JavaScriptScanner15ScanHtmlCommentEv @3748
    _ZN2v88internal17JavaScriptScanner15ScanRegExpFlagsEv @3749
    _ZN2v88internal17JavaScriptScanner17ScanDecimalDigitsEv @3750
    _ZN2v88internal17JavaScriptScanner17ScanRegExpPatternEb @3751
    _ZN2v88internal17JavaScriptScanner20ScanIdentifierSuffixEPNS1_12LiteralScopeE @3752
    _ZN2v88internal17JavaScriptScanner20SkipMultiLineCommentEv @3753
    _ZN2v88internal17JavaScriptScanner21SkipSingleLineCommentEv @3754
    _ZN2v88internal17JavaScriptScanner23ScanIdentifierOrKeywordEv @3755
    _ZN2v88internal17JavaScriptScanner27ScanIdentifierUnicodeEscapeEv @3756
    _ZN2v88internal17JavaScriptScanner4NextEv @3757
    _ZN2v88internal17JavaScriptScanner4ScanEv @3758
    _ZN2v88internal17JavaScriptScannerC1Ev @3759
    _ZN2v88internal17JavaScriptScannerC2Ev @3760
    _ZN2v88internal17KeyedStoreIC_MissENS0_9ArgumentsE @3761
    _ZN2v88internal17LFixedArrayLength15CompileToNativeEPNS0_8LCodeGenE @3762
    _ZN2v88internal17LFixedArrayLengthD0Ev @3763
    _ZN2v88internal17LFixedArrayLengthD1Ev @3764
    _ZN2v88internal17LLoadKeyedGeneric15CompileToNativeEPNS0_8LCodeGenE @3765
    _ZN2v88internal17LLoadKeyedGenericD0Ev @3766
    _ZN2v88internal17LLoadKeyedGenericD1Ev @3767
    _ZN2v88internal17LLoadNamedGeneric15CompileToNativeEPNS0_8LCodeGenE @3768
    _ZN2v88internal17LLoadNamedGenericD0Ev @3769
    _ZN2v88internal17LLoadNamedGenericD1Ev @3770
    _ZN2v88internal17LPixelArrayLength15CompileToNativeEPNS0_8LCodeGenE @3771
    _ZN2v88internal17LPixelArrayLengthD0Ev @3772
    _ZN2v88internal17LPixelArrayLengthD1Ev @3773
    _ZN2v88internal17LStoreContextSlot11PrintDataToEPNS0_12StringStreamE @3774
    _ZN2v88internal17LStoreContextSlot15CompileToNativeEPNS0_8LCodeGenE @3775
    _ZN2v88internal17LStoreContextSlotD0Ev @3776
    _ZN2v88internal17LStoreContextSlotD1Ev @3777
    _ZN2v88internal17LStringCharCodeAt15CompileToNativeEPNS0_8LCodeGenE @3778
    _ZN2v88internal17LStringCharCodeAtD0Ev @3779
    _ZN2v88internal17LStringCharCodeAtD1Ev @3780
    _ZN2v88internal17LogMessageBuilder13AppendAddressEPh @3781
    _ZN2v88internal17LogMessageBuilder14AppendDetailedEPNS0_6StringEb @3782
    _ZN2v88internal17LogMessageBuilder14WriteToLogFileEv @3783
    _ZN2v88internal17LogMessageBuilder16AppendStringPartEPKci @3784
    _ZN2v88internal17LogMessageBuilder21write_failure_handlerE @3785 DATA
    _ZN2v88internal17LogMessageBuilder6AppendEPKcz @3786
    _ZN2v88internal17LogMessageBuilder6AppendEPNS0_6StringE @3787
    _ZN2v88internal17LogMessageBuilder6AppendEc @3788
    _ZN2v88internal17LogMessageBuilder8AppendVAEPKcPc @3789
    _ZN2v88internal17LogMessageBuilderC1Ev @3790
    _ZN2v88internal17LogMessageBuilderC2Ev @3791
    _ZN2v88internal17NativesCollectionILNS0_10NativeTypeE0EE13GetScriptNameEi @3792
    _ZN2v88internal17NativesCollectionILNS0_10NativeTypeE0EE15GetScriptSourceEi @3793
    _ZN2v88internal17NativesCollectionILNS0_10NativeTypeE0EE16GetBuiltinsCountEv @3794
    _ZN2v88internal17NativesCollectionILNS0_10NativeTypeE0EE16GetDebuggerCountEv @3795
    _ZN2v88internal17NativesCollectionILNS0_10NativeTypeE0EE8GetIndexEPKc @3796
    _ZN2v88internal17NormalizeElementsENS0_6HandleINS0_8JSObjectEEE @3797
    _ZN2v88internal17PartialSerializer15SerializeObjectEPNS0_6ObjectENS0_22SerializerDeserializer9HowToCodeENS4_12WhereToPointE @3798
    _ZN2v88internal17PartialSerializer25PartialSnapshotCacheIndexEPNS0_10HeapObjectE @3799
    _ZN2v88internal17PartialSerializer33ShouldBeInThePartialSnapshotCacheEPNS0_10HeapObjectE @3800
    _ZN2v88internal17PartialSerializer9RootIndexEPNS0_10HeapObjectE @3801
    _ZN2v88internal17PartialSerializer9SerializeEPPNS0_6ObjectE @3802
    _ZN2v88internal17PartialSerializerD0Ev @3803
    _ZN2v88internal17PartialSerializerD1Ev @3804
    _ZN2v88internal17PositionsRecorder14RecordPositionEi @3805
    _ZN2v88internal17PositionsRecorder22WriteRecordedPositionsEv @3806
    _ZN2v88internal17PositionsRecorder23RecordStatementPositionEi @3807
    _ZN2v88internal17PostCallGeneratorD0Ev @3808
    _ZN2v88internal17PostCallGeneratorD1Ev @3809
    _ZN2v88internal17QuickCheckDetails11RationalizeEb @3810
    _ZN2v88internal17QuickCheckDetails5ClearEv @3811
    _ZN2v88internal17QuickCheckDetails5MergeEPS1_i @3812
    _ZN2v88internal17QuickCheckDetails7AdvanceEib @3813
    _ZN2v88internal17ReadCharsFromFileEPKcPiib @3814
    _ZN2v88internal17RegExpAlternative13AsAlternativeEv @3815
    _ZN2v88internal17RegExpAlternative13IsAlternativeEv @3816
    _ZN2v88internal17RegExpAlternative15IsAnchoredAtEndEv @3817
    _ZN2v88internal17RegExpAlternative16CaptureRegistersEv @3818
    _ZN2v88internal17RegExpAlternative17IsAnchoredAtStartEv @3819
    _ZN2v88internal17RegExpAlternative6AcceptEPNS0_13RegExpVisitorEPv @3820
    _ZN2v88internal17RegExpAlternative6ToNodeEPNS0_14RegExpCompilerEPNS0_10RegExpNodeE @3821
    _ZN2v88internal17RegExpAlternative9max_matchEv @3822
    _ZN2v88internal17RegExpAlternative9min_matchEv @3823
    _ZN2v88internal17RegExpAlternativeC1EPNS0_8ZoneListIPNS0_10RegExpTreeEEE @3824
    _ZN2v88internal17RegExpAlternativeC2EPNS0_8ZoneListIPNS0_10RegExpTreeEEE @3825
    _ZN2v88internal17RegExpAlternativeD0Ev @3826
    _ZN2v88internal17RegExpAlternativeD1Ev @3827
    _ZN2v88internal17RegExpDisjunction13AsDisjunctionEv @3828
    _ZN2v88internal17RegExpDisjunction13IsDisjunctionEv @3829
    _ZN2v88internal17RegExpDisjunction15IsAnchoredAtEndEv @3830
    _ZN2v88internal17RegExpDisjunction16CaptureRegistersEv @3831
    _ZN2v88internal17RegExpDisjunction17IsAnchoredAtStartEv @3832
    _ZN2v88internal17RegExpDisjunction6AcceptEPNS0_13RegExpVisitorEPv @3833
    _ZN2v88internal17RegExpDisjunction6ToNodeEPNS0_14RegExpCompilerEPNS0_10RegExpNodeE @3834
    _ZN2v88internal17RegExpDisjunction9max_matchEv @3835
    _ZN2v88internal17RegExpDisjunction9min_matchEv @3836
    _ZN2v88internal17RegExpDisjunctionC1EPNS0_8ZoneListIPNS0_10RegExpTreeEEE @3837
    _ZN2v88internal17RegExpDisjunctionC2EPNS0_8ZoneListIPNS0_10RegExpTreeEEE @3838
    _ZN2v88internal17RegExpDisjunctionD0Ev @3839
    _ZN2v88internal17RegExpDisjunctionD1Ev @3840
    _ZN2v88internal17RegisterAllocator23AllocateWithoutSpillingEv @3841
    _ZN2v88internal17RegisterAllocator35AllocateByteRegisterWithoutSpillingEv @3842
    _ZN2v88internal17RegisterAllocator8AllocateENS0_8RegisterE @3843
    _ZN2v88internal17RegisterAllocator8AllocateEv @3844
    _ZN2v88internal17RuntimeCallHelperD0Ev @3845
    _ZN2v88internal17RuntimeCallHelperD1Ev @3846
    _ZN2v88internal17ScavengingVisitor14EvacuateObjectILNS1_14ObjectContentsE0ELNS1_15SizeRestrictionE0EEEvPNS0_3MapEPPNS0_10HeapObjectES8_i @3847
    _ZN2v88internal17ScavengingVisitor14EvacuateObjectILNS1_14ObjectContentsE0ELNS1_15SizeRestrictionE1EEEvPNS0_3MapEPPNS0_10HeapObjectES8_i @3848
    _ZN2v88internal17ScavengingVisitor14EvacuateObjectILNS1_14ObjectContentsE1ELNS1_15SizeRestrictionE0EEEvPNS0_3MapEPPNS0_10HeapObjectES8_i @3849
    _ZN2v88internal17ScavengingVisitor14EvacuateObjectILNS1_14ObjectContentsE1ELNS1_15SizeRestrictionE1EEEvPNS0_3MapEPPNS0_10HeapObjectES8_i @3850
    _ZN2v88internal17ScavengingVisitor17EvacuateByteArrayEPNS0_3MapEPPNS0_10HeapObjectES5_ @3851
    _ZN2v88internal17ScavengingVisitor18EvacuateFixedArrayEPNS0_3MapEPPNS0_10HeapObjectES5_ @3852
    _ZN2v88internal17ScavengingVisitor22EvacuateSeqAsciiStringEPNS0_3MapEPPNS0_10HeapObjectES5_ @3853
    _ZN2v88internal17ScavengingVisitor24EvacuateSeqTwoByteStringEPNS0_3MapEPPNS0_10HeapObjectES5_ @3854
    _ZN2v88internal17ScavengingVisitor24ObjectEvacuationStrategyILNS1_14ObjectContentsE0EE16VisitSpecializedILi12EEEvPNS0_3MapEPPNS0_10HeapObjectES9_ @3855
    _ZN2v88internal17ScavengingVisitor24ObjectEvacuationStrategyILNS1_14ObjectContentsE0EE16VisitSpecializedILi16EEEvPNS0_3MapEPPNS0_10HeapObjectES9_ @3856
    _ZN2v88internal17ScavengingVisitor24ObjectEvacuationStrategyILNS1_14ObjectContentsE0EE16VisitSpecializedILi20EEEvPNS0_3MapEPPNS0_10HeapObjectES9_ @3857
    _ZN2v88internal17ScavengingVisitor24ObjectEvacuationStrategyILNS1_14ObjectContentsE0EE16VisitSpecializedILi24EEEvPNS0_3MapEPPNS0_10HeapObjectES9_ @3858
    _ZN2v88internal17ScavengingVisitor24ObjectEvacuationStrategyILNS1_14ObjectContentsE0EE16VisitSpecializedILi28EEEvPNS0_3MapEPPNS0_10HeapObjectES9_ @3859
    _ZN2v88internal17ScavengingVisitor24ObjectEvacuationStrategyILNS1_14ObjectContentsE0EE16VisitSpecializedILi32EEEvPNS0_3MapEPPNS0_10HeapObjectES9_ @3860
    _ZN2v88internal17ScavengingVisitor24ObjectEvacuationStrategyILNS1_14ObjectContentsE0EE16VisitSpecializedILi36EEEvPNS0_3MapEPPNS0_10HeapObjectES9_ @3861
    _ZN2v88internal17ScavengingVisitor24ObjectEvacuationStrategyILNS1_14ObjectContentsE0EE16VisitSpecializedILi8EEEvPNS0_3MapEPPNS0_10HeapObjectES9_ @3862
    _ZN2v88internal17ScavengingVisitor24ObjectEvacuationStrategyILNS1_14ObjectContentsE0EE5VisitEPNS0_3MapEPPNS0_10HeapObjectES8_ @3863
    _ZN2v88internal17ScavengingVisitor24ObjectEvacuationStrategyILNS1_14ObjectContentsE1EE16VisitSpecializedILi12EEEvPNS0_3MapEPPNS0_10HeapObjectES9_ @3864
    _ZN2v88internal17ScavengingVisitor24ObjectEvacuationStrategyILNS1_14ObjectContentsE1EE16VisitSpecializedILi16EEEvPNS0_3MapEPPNS0_10HeapObjectES9_ @3865
    _ZN2v88internal17ScavengingVisitor24ObjectEvacuationStrategyILNS1_14ObjectContentsE1EE16VisitSpecializedILi20EEEvPNS0_3MapEPPNS0_10HeapObjectES9_ @3866
    _ZN2v88internal17ScavengingVisitor24ObjectEvacuationStrategyILNS1_14ObjectContentsE1EE16VisitSpecializedILi220EEEvPNS0_3MapEPPNS0_10HeapObjectES9_ @3867
    _ZN2v88internal17ScavengingVisitor24ObjectEvacuationStrategyILNS1_14ObjectContentsE1EE16VisitSpecializedILi24EEEvPNS0_3MapEPPNS0_10HeapObjectES9_ @3868
    _ZN2v88internal17ScavengingVisitor24ObjectEvacuationStrategyILNS1_14ObjectContentsE1EE16VisitSpecializedILi28EEEvPNS0_3MapEPPNS0_10HeapObjectES9_ @3869
    _ZN2v88internal17ScavengingVisitor24ObjectEvacuationStrategyILNS1_14ObjectContentsE1EE16VisitSpecializedILi32EEEvPNS0_3MapEPPNS0_10HeapObjectES9_ @3870
    _ZN2v88internal17ScavengingVisitor24ObjectEvacuationStrategyILNS1_14ObjectContentsE1EE16VisitSpecializedILi36EEEvPNS0_3MapEPPNS0_10HeapObjectES9_ @3871
    _ZN2v88internal17ScavengingVisitor24ObjectEvacuationStrategyILNS1_14ObjectContentsE1EE16VisitSpecializedILi8EEEvPNS0_3MapEPPNS0_10HeapObjectES9_ @3872
    _ZN2v88internal17ScavengingVisitor24ObjectEvacuationStrategyILNS1_14ObjectContentsE1EE16VisitSpecializedILi92EEEvPNS0_3MapEPPNS0_10HeapObjectES9_ @3873
    _ZN2v88internal17ScavengingVisitor24ObjectEvacuationStrategyILNS1_14ObjectContentsE1EE5VisitEPNS0_3MapEPPNS0_10HeapObjectES8_ @3874
    _ZN2v88internal17ScavengingVisitor25EvacuateShortcutCandidateEPNS0_3MapEPPNS0_10HeapObjectES5_ @3875
    _ZN2v88internal17ScavengingVisitor6table_E @3876 DATA
    _ZN2v88internal17SemiSpaceIterator10InitializeEPNS0_8NewSpaceEPhS4_PFiPNS0_10HeapObjectEE @3877
    _ZN2v88internal17SemiSpaceIterator11next_objectEv @3878
    _ZN2v88internal17SemiSpaceIteratorC1EPNS0_8NewSpaceE @3879
    _ZN2v88internal17SemiSpaceIteratorC1EPNS0_8NewSpaceEPFiPNS0_10HeapObjectEE @3880
    _ZN2v88internal17SemiSpaceIteratorC1EPNS0_8NewSpaceEPh @3881
    _ZN2v88internal17SemiSpaceIteratorC2EPNS0_8NewSpaceE @3882
    _ZN2v88internal17SemiSpaceIteratorC2EPNS0_8NewSpaceEPFiPNS0_10HeapObjectEE @3883
    _ZN2v88internal17SemiSpaceIteratorC2EPNS0_8NewSpaceEPh @3884
    _ZN2v88internal17SemiSpaceIteratorD0Ev @3885
    _ZN2v88internal17SemiSpaceIteratorD1Ev @3886
    _ZN2v88internal17StackFrameLocator19FindJavaScriptFrameEi @3887
    _ZN2v88internal17StartupSerializer15SerializeObjectEPNS0_6ObjectENS0_22SerializerDeserializer9HowToCodeENS4_12WhereToPointE @3888
    _ZN2v88internal17StartupSerializer23SerializeWeakReferencesEv @3889
    _ZN2v88internal17StartupSerializer25SerializeStrongReferencesEv @3890
    _ZN2v88internal17StartupSerializer33ShouldBeInThePartialSnapshotCacheEPNS0_10HeapObjectE @3891
    _ZN2v88internal17StartupSerializer9RootIndexEPNS0_10HeapObjectE @3892
    _ZN2v88internal17StartupSerializerD0Ev @3893
    _ZN2v88internal17StartupSerializerD1Ev @3894
    _ZN2v88internal17StaticVisitorBase12GetVisitorIdEii @3895
    _ZN2v88internal17StatsCounterTimer4StopEv @3896
    _ZN2v88internal17StatsCounterTimer5StartEv @3897
    _ZN2v88internal17StoreStubCompiler17CompileStoreFieldEPNS0_8JSObjectEiPNS0_3MapEPNS0_6StringE @3898
    _ZN2v88internal17StoreStubCompiler18CompileStoreGlobalEPNS0_12GlobalObjectEPNS0_20JSGlobalPropertyCellEPNS0_6StringE @3899
    _ZN2v88internal17StoreStubCompiler20CompileStoreCallbackEPNS0_8JSObjectEPNS0_12AccessorInfoEPNS0_6StringE @3900
    _ZN2v88internal17StoreStubCompiler23CompileStoreInterceptorEPNS0_8JSObjectEPNS0_6StringE @3901
    _ZN2v88internal17StoreStubCompiler7GetCodeENS0_12PropertyTypeEPNS0_6StringE @3902
    _ZN2v88internal17StringCompareStub31GenerateCompareFlatAsciiStringsEPNS0_14MacroAssemblerENS0_8RegisterES4_S4_S4_S4_ @3903
    _ZN2v88internal17StringCompareStub8GenerateEPNS0_14MacroAssemblerE @3904
    _ZN2v88internal17StringCompareStub8MajorKeyEv @3905
    _ZN2v88internal17StringCompareStub8MinorKeyEv @3906
    _ZN2v88internal17StringCompareStubD0Ev @3907
    _ZN2v88internal17StringCompareStubD1Ev @3908
    _ZN2v88internal17StringInputBuffer4SeekEj @3909
    _ZN2v88internal17StringInputBufferD0Ev @3910
    _ZN2v88internal17StringInputBufferD1Ev @3911
    _ZN2v88internal17TranslationBuffer15CreateByteArrayEv @3912
    _ZN2v88internal17TranslationBuffer3AddEi @3913
    _ZN2v88internal17TryCatchStatement19AsTryCatchStatementEv @3914
    _ZN2v88internal17TryCatchStatement6AcceptEPNS0_10AstVisitorE @3915
    _ZN2v88internal17TryCatchStatementD0Ev @3916
    _ZN2v88internal17TryCatchStatementD1Ev @3917
    _ZN2v88internal17WithExitStatement19AsWithExitStatementEv @3918
    _ZN2v88internal17WithExitStatement6AcceptEPNS0_10AstVisitorE @3919
    _ZN2v88internal17WithExitStatementD0Ev @3920
    _ZN2v88internal17WithExitStatementD1Ev @3921
    _ZN2v88internal18AddKeysFromJSArrayENS0_6HandleINS0_10FixedArrayEEENS1_INS0_7JSArrayEEE @3922
    _ZN2v88internal18ArrayConcatVisitor17SetDictionaryModeEj @3923
    _ZN2v88internal18ArrayConcatVisitor5visitEjNS0_6HandleINS0_6ObjectEEE @3924
    _ZN2v88internal18ArrayConcatVisitor7ToArrayEv @3925
    _ZN2v88internal18BootstrapperActive12ArchiveStateEPc @3926
    _ZN2v88internal18BootstrapperActive12RestoreStateEPc @3927
    _ZN2v88internal18BootstrapperActive21ArchiveSpacePerThreadEv @3928
    _ZN2v88internal18BootstrapperActive8nesting_E @3929 DATA
    _ZN2v88internal18BreakableStatement20AsBreakableStatementEv @3930
    _ZN2v88internal18BreakableStatementD0Ev @3931
    _ZN2v88internal18BreakableStatementD1Ev @3932
    _ZN2v88internal18CodeCacheHashTable13RemoveByIndexEi @3933
    _ZN2v88internal18CodeCacheHashTable3PutEPNS0_6StringEPNS0_4CodeE @3934
    _ZN2v88internal18CodeCacheHashTable6LookupEPNS0_6StringENS0_4Code5FlagsE @3935
    _ZN2v88internal18CodeCacheHashTable8GetIndexEPNS0_6StringENS0_4Code5FlagsE @3936
    _ZN2v88internal18CodeGeneratorScope4top_E @3937 DATA
    _ZN2v88internal18CodeMarkingVisitor11VisitThreadEPNS0_14ThreadLocalTopE @3938
    _ZN2v88internal18CodeMarkingVisitorD0Ev @3939
    _ZN2v88internal18CodeMarkingVisitorD1Ev @3940
    _ZN2v88internal18ControlDestination5SplitENS0_9ConditionE @3941
    _ZN2v88internal18DeferredStackCheck8GenerateEv @3942
    _ZN2v88internal18DeferredStackCheckD0Ev @3943
    _ZN2v88internal18DeferredStackCheckD1Ev @3944
    _ZN2v88internal18ExternalFloatArray8SetValueEjPNS0_6ObjectE @3945
    _ZN2v88internal18ExternalShortArray8SetValueEjPNS0_6ObjectE @3946
    _ZN2v88internal18FLAG_alloc_lithiumE @3947 DATA
    _ZN2v88internal18FLAG_build_lithiumE @3948 DATA
    _ZN2v88internal18FLAG_code_commentsE @3949 DATA
    _ZN2v88internal18FLAG_debugger_portE @3950 DATA
    _ZN2v88internal18FLAG_dump_countersE @3951 DATA
    _ZN2v88internal18FLAG_enable_sse4_1E @3952 DATA
    _ZN2v88internal18FLAG_full_compilerE @3953 DATA
    _ZN2v88internal18FLAG_log_producersE @3954 DATA
    _ZN2v88internal18FLAG_never_compactE @3955 DATA
    _ZN2v88internal18FLAG_time_hydrogenE @3956 DATA
    _ZN2v88internal18FLAG_trace_bailoutE @3957 DATA
    _ZN2v88internal18FLAG_trace_regexpsE @3958 DATA
    _ZN2v88internal18FLAG_trap_on_deoptE @3959 DATA
    _ZN2v88internal18FastNewClosureStub7GetNameEv @3960
    _ZN2v88internal18FastNewClosureStub8GenerateEPNS0_14MacroAssemblerE @3961
    _ZN2v88internal18FastNewClosureStub8MajorKeyEv @3962
    _ZN2v88internal18FastNewClosureStub8MinorKeyEv @3963
    _ZN2v88internal18FastNewClosureStubD0Ev @3964
    _ZN2v88internal18FastNewClosureStubD1Ev @3965
    _ZN2v88internal18FastNewContextStub7GetNameEv @3966
    _ZN2v88internal18FastNewContextStub8GenerateEPNS0_14MacroAssemblerE @3967
    _ZN2v88internal18FastNewContextStub8MajorKeyEv @3968
    _ZN2v88internal18FastNewContextStub8MinorKeyEv @3969
    _ZN2v88internal18FastNewContextStubD0Ev @3970
    _ZN2v88internal18FastNewContextStubD1Ev @3971
    _ZN2v88internal18FrameRegisterStateC1EPNS0_12VirtualFrameE @3972
    _ZN2v88internal18FrameRegisterStateC2EPNS0_12VirtualFrameE @3973
    _ZN2v88internal18GenericUnaryOpStub7GetNameEv @3974
    _ZN2v88internal18GenericUnaryOpStub8GenerateEPNS0_14MacroAssemblerE @3975
    _ZN2v88internal18GenericUnaryOpStub8MajorKeyEv @3976
    _ZN2v88internal18GenericUnaryOpStub8MinorKeyEv @3977
    _ZN2v88internal18GenericUnaryOpStubD0Ev @3978
    _ZN2v88internal18GenericUnaryOpStubD1Ev @3979
    _ZN2v88internal18GuardedAlternative8AddGuardEPNS0_5GuardE @3980
    _ZN2v88internal18HAccessArgumentsAt10DataEqualsEPNS0_6HValueE @3981
    _ZN2v88internal18HAccessArgumentsAt11PrintDataToEPNS0_12StringStreamE @3982
    _ZN2v88internal18HAccessArgumentsAt16CompileToLithiumEPNS0_13LChunkBuilderE @3983
    _ZN2v88internal18HAccessArgumentsAtC1EPNS0_6HValueES3_S3_ @3984
    _ZN2v88internal18HAccessArgumentsAtD0Ev @3985
    _ZN2v88internal18HAccessArgumentsAtD1Ev @3986
    _ZN2v88internal18HArgumentsElements10DataEqualsEPNS0_6HValueE @3987
    _ZN2v88internal18HArgumentsElements16CompileToLithiumEPNS0_13LChunkBuilderE @3988
    _ZN2v88internal18HArgumentsElementsC1Ev @3989
    _ZN2v88internal18HArgumentsElementsD0Ev @3990
    _ZN2v88internal18HArgumentsElementsD1Ev @3991
    _ZN2v88internal18HCheckInstanceType10DataEqualsEPNS0_6HValueE @3992
    _ZN2v88internal18HCheckInstanceType16CompileToLithiumEPNS0_13LChunkBuilderE @3993
    _ZN2v88internal18HCheckInstanceType25NewIsJSObjectOrJSFunctionEPNS0_6HValueE @3994
    _ZN2v88internal18HCheckInstanceTypeC1EPNS0_6HValueENS0_12InstanceTypeES4_ @3995
    _ZN2v88internal18HCheckInstanceTypeD0Ev @3996
    _ZN2v88internal18HCheckInstanceTypeD1Ev @3997
    _ZN2v88internal18HCompareJSObjectEq10DataEqualsEPNS0_6HValueE @3998
    _ZN2v88internal18HCompareJSObjectEq16CompileToLithiumEPNS0_13LChunkBuilderE @3999
    _ZN2v88internal18HCompareJSObjectEq21CalculateInferredTypeEv @4000
    _ZN2v88internal18HCompareJSObjectEqD0Ev @4001
    _ZN2v88internal18HCompareJSObjectEqD1Ev @4002
    _ZN2v88internal18HStoreKeyedGeneric11PrintDataToEPNS0_12StringStreamE @4003
    _ZN2v88internal18HStoreKeyedGeneric16CompileToLithiumEPNS0_13LChunkBuilderE @4004
    _ZN2v88internal18HStoreKeyedGenericD0Ev @4005
    _ZN2v88internal18HStoreKeyedGenericD1Ev @4006
    _ZN2v88internal18HStoreNamedGeneric11PrintDataToEPNS0_12StringStreamE @4007
    _ZN2v88internal18HStoreNamedGeneric16CompileToLithiumEPNS0_13LChunkBuilderE @4008
    _ZN2v88internal18HStoreNamedGenericD0Ev @4009
    _ZN2v88internal18HStoreNamedGenericD1Ev @4010
    _ZN2v88internal18HeapObjectIterator10InitializeEPhS2_PFiPNS0_10HeapObjectEE @4011
    _ZN2v88internal18HeapObjectIterator11next_objectEv @4012
    _ZN2v88internal18HeapObjectIterator12FromNextPageEv @4013
    _ZN2v88internal18HeapObjectIteratorC1EPNS0_10PagedSpaceE @4014
    _ZN2v88internal18HeapObjectIteratorC1EPNS0_10PagedSpaceEPFiPNS0_10HeapObjectEE @4015
    _ZN2v88internal18HeapObjectIteratorC1EPNS0_10PagedSpaceEPh @4016
    _ZN2v88internal18HeapObjectIteratorC1EPNS0_10PagedSpaceEPhPFiPNS0_10HeapObjectEE @4017
    _ZN2v88internal18HeapObjectIteratorC1EPNS0_4PageEPFiPNS0_10HeapObjectEE @4018
    _ZN2v88internal18HeapObjectIteratorC2EPNS0_10PagedSpaceE @4019
    _ZN2v88internal18HeapObjectIteratorC2EPNS0_10PagedSpaceEPFiPNS0_10HeapObjectEE @4020
    _ZN2v88internal18HeapObjectIteratorC2EPNS0_10PagedSpaceEPh @4021
    _ZN2v88internal18HeapObjectIteratorC2EPNS0_10PagedSpaceEPhPFiPNS0_10HeapObjectEE @4022
    _ZN2v88internal18HeapObjectIteratorC2EPNS0_4PageEPFiPNS0_10HeapObjectEE @4023
    _ZN2v88internal18HeapObjectIteratorD0Ev @4024
    _ZN2v88internal18HeapObjectIteratorD1Ev @4025
    _ZN2v88internal18IncrementOperation20AsIncrementOperationEv @4026
    _ZN2v88internal18IncrementOperation6AcceptEPNS0_10AstVisitorE @4027
    _ZN2v88internal18IncrementOperationD0Ev @4028
    _ZN2v88internal18IncrementOperationD1Ev @4029
    _ZN2v88internal18InitScriptLineEndsENS0_6HandleINS0_6ScriptEEE @4030
    _ZN2v88internal18IterationStatement20AsIterationStatementEv @4031
    _ZN2v88internal18IterationStatementD0Ev @4032
    _ZN2v88internal18IterationStatementD1Ev @4033
    _ZN2v88internal18LAccessArgumentsAt11PrintDataToEPNS0_12StringStreamE @4034
    _ZN2v88internal18LAccessArgumentsAt15CompileToNativeEPNS0_8LCodeGenE @4035
    _ZN2v88internal18LAccessArgumentsAtD0Ev @4036
    _ZN2v88internal18LAccessArgumentsAtD1Ev @4037
    _ZN2v88internal18LArgumentsElements15CompileToNativeEPNS0_8LCodeGenE @4038
    _ZN2v88internal18LArgumentsElementsD0Ev @4039
    _ZN2v88internal18LArgumentsElementsD1Ev @4040
    _ZN2v88internal18LCheckInstanceType15CompileToNativeEPNS0_8LCodeGenE @4041
    _ZN2v88internal18LCheckInstanceTypeD0Ev @4042
    _ZN2v88internal18LCheckInstanceTypeD1Ev @4043
    _ZN2v88internal18LInteger32ToDouble15CompileToNativeEPNS0_8LCodeGenE @4044
    _ZN2v88internal18LInteger32ToDoubleD0Ev @4045
    _ZN2v88internal18LInteger32ToDoubleD1Ev @4046
    _ZN2v88internal18LIsObjectAndBranch11PrintDataToEPNS0_12StringStreamE @4047
    _ZN2v88internal18LIsObjectAndBranch15CompileToNativeEPNS0_8LCodeGenE @4048
    _ZN2v88internal18LIsObjectAndBranchD0Ev @4049
    _ZN2v88internal18LIsObjectAndBranchD1Ev @4050
    _ZN2v88internal18LStoreKeyedGeneric11PrintDataToEPNS0_12StringStreamE @4051
    _ZN2v88internal18LStoreKeyedGeneric15CompileToNativeEPNS0_8LCodeGenE @4052
    _ZN2v88internal18LStoreKeyedGenericD0Ev @4053
    _ZN2v88internal18LStoreKeyedGenericD1Ev @4054
    _ZN2v88internal18LStoreNamedGeneric11PrintDataToEPNS0_12StringStreamE @4055
    _ZN2v88internal18LStoreNamedGeneric15CompileToNativeEPNS0_8LCodeGenE @4056
    _ZN2v88internal18LStoreNamedGenericD0Ev @4057
    _ZN2v88internal18LStoreNamedGenericD1Ev @4058
    _ZN2v88internal18LTypeofIsAndBranch11PrintDataToEPNS0_12StringStreamE @4059
    _ZN2v88internal18LTypeofIsAndBranch15CompileToNativeEPNS0_8LCodeGenE @4060
    _ZN2v88internal18LTypeofIsAndBranchD0Ev @4061
    _ZN2v88internal18LTypeofIsAndBranchD1Ev @4062
    _ZN2v88internal18NormalizedMapCache3GetEPNS0_8JSObjectENS0_25PropertyNormalizationModeE @4063
    _ZN2v88internal18NormalizedMapCache4HashEPNS0_3MapE @4064
    _ZN2v88internal18NormalizedMapCache5ClearEv @4065
    _ZN2v88internal18NormalizedMapCache8CheckHitEPNS0_3MapES3_NS0_25PropertyNormalizationModeE @4066
    _ZN2v88internal18NumberToStringStub31GenerateLookupNumberStringCacheEPNS0_14MacroAssemblerENS0_8RegisterES4_S4_S4_bPNS0_5LabelE @4067
    _ZN2v88internal18NumberToStringStub7GetNameEv @4068
    _ZN2v88internal18NumberToStringStub8GenerateEPNS0_14MacroAssemblerE @4069
    _ZN2v88internal18NumberToStringStub8MajorKeyEv @4070
    _ZN2v88internal18NumberToStringStub8MinorKeyEv @4071
    _ZN2v88internal18NumberToStringStubD0Ev @4072
    _ZN2v88internal18NumberToStringStubD1Ev @4073
    _ZN2v88internal18RootMarkingVisitor12VisitPointerEPPNS0_6ObjectE @4074
    _ZN2v88internal18RootMarkingVisitor13VisitPointersEPPNS0_6ObjectES4_ @4075
    _ZN2v88internal18RootMarkingVisitorD0Ev @4076
    _ZN2v88internal18RootMarkingVisitorD1Ev @4077
    _ZN2v88internal18SafepointGenerator8GenerateEv @4078
    _ZN2v88internal18SafepointGeneratorD0Ev @4079
    _ZN2v88internal18SafepointGeneratorD1Ev @4080
    _ZN2v88internal18SharedFunctionInfo10SourceSizeEv @4081
    _ZN2v88internal18SharedFunctionInfo13GetSourceCodeEv @4082
    _ZN2v88internal18SharedFunctionInfo13HasSourceCodeEv @4083
    _ZN2v88internal18SharedFunctionInfo15SourceCodePrintEPNS0_12StringStreamEi @4084
    _ZN2v88internal18SharedFunctionInfo15VerifyBailoutIdEi @4085
    _ZN2v88internal18SharedFunctionInfo16AttachInitialMapEPNS0_3MapE @4086
    _ZN2v88internal18SharedFunctionInfo16DetachInitialMapEv @4087
    _ZN2v88internal18SharedFunctionInfo17set_function_dataEPNS0_6ObjectENS0_16WriteBarrierModeE @4088
    _ZN2v88internal18SharedFunctionInfo18set_construct_stubEPNS0_4CodeENS0_16WriteBarrierModeE @4089
    _ZN2v88internal18SharedFunctionInfo21CalculateInstanceSizeEv @4090
    _ZN2v88internal18SharedFunctionInfo23ForbidInlineConstructorEv @4091
    _ZN2v88internal18SharedFunctionInfo26StartInobjectSlackTrackingEPNS0_3MapE @4092
    _ZN2v88internal18SharedFunctionInfo26has_deoptimization_supportEv @4093
    _ZN2v88internal18SharedFunctionInfo27CalculateInObjectPropertiesEv @4094
    _ZN2v88internal18SharedFunctionInfo27EnableDeoptimizationSupportEPNS0_4CodeE @4095
    _ZN2v88internal18SharedFunctionInfo28CanGenerateInlineConstructorEPNS0_6ObjectE @4096
    _ZN2v88internal18SharedFunctionInfo29CompleteInobjectSlackTrackingEv @4097
    _ZN2v88internal18SharedFunctionInfo29GetThisPropertyAssignmentNameEi @4098
    _ZN2v88internal18SharedFunctionInfo30SetThisPropertyAssignmentsInfoEbPNS0_10FixedArrayE @4099
    _ZN2v88internal18SharedFunctionInfo32ClearThisPropertyAssignmentsInfoEv @4100
    _ZN2v88internal18SharedFunctionInfo32IsThisPropertyAssignmentArgumentEi @4101
    _ZN2v88internal18SharedFunctionInfo33GetThisPropertyAssignmentArgumentEi @4102
    _ZN2v88internal18SharedFunctionInfo33GetThisPropertyAssignmentConstantEi @4103
    _ZN2v88internal18SharedFunctionInfo9DebugNameEv @4104
    _ZN2v88internal18SlidingStateWindow8AddStateENS0_8StateTagE @4105
    _ZN2v88internal18SlidingStateWindowC1Ev @4106
    _ZN2v88internal18SlidingStateWindowC2Ev @4107
    _ZN2v88internal18SlidingStateWindowD1Ev @4108
    _ZN2v88internal18SlidingStateWindowD2Ev @4109
    _ZN2v88internal18StackFrameIterator12SingletonForENS0_10StackFrame4TypeE @4110
    _ZN2v88internal18StackFrameIterator12SingletonForENS0_10StackFrame4TypeEPNS2_5StateE @4111
    _ZN2v88internal18StackFrameIterator18AdvanceWithHandlerEv @4112
    _ZN2v88internal18StackFrameIterator21AdvanceWithoutHandlerEv @4113
    _ZN2v88internal18StackFrameIterator5ResetEv @4114
    _ZN2v88internal18StackFrameIterator7AdvanceEv @4115
    _ZN2v88internal18StackFrameIteratorC1EPNS0_14ThreadLocalTopE @4116
    _ZN2v88internal18StackFrameIteratorC1EbPhS2_ @4117
    _ZN2v88internal18StackFrameIteratorC1Ev @4118
    _ZN2v88internal18StackFrameIteratorC2EPNS0_14ThreadLocalTopE @4119
    _ZN2v88internal18StackFrameIteratorC2EbPhS2_ @4120
    _ZN2v88internal18StackFrameIteratorC2Ev @4121
    _ZN2v88internal18SymbolTableCleaner13VisitPointersEPPNS0_6ObjectES4_ @4122
    _ZN2v88internal18SymbolTableCleanerD0Ev @4123
    _ZN2v88internal18SymbolTableCleanerD1Ev @4124
    _ZN2v88internal18TokensCompareInput10getLength1Ev @4125
    _ZN2v88internal18TokensCompareInput10getLength2Ev @4126
    _ZN2v88internal18TokensCompareInput6equalsEii @4127
    _ZN2v88internal18TokensCompareInputD0Ev @4128
    _ZN2v88internal18TokensCompareInputD1Ev @4129
    _ZN2v88internal18TypeFeedbackOracle10BinaryTypeEPNS0_15BinaryOperationE @4130
    _ZN2v88internal18TypeFeedbackOracle10InitializeENS0_6HandleINS0_4CodeEEE @4131
    _ZN2v88internal18TypeFeedbackOracle10SwitchTypeEPNS0_10CaseClauseE @4132
    _ZN2v88internal18TypeFeedbackOracle11CompareTypeEPNS0_16CompareOperationE @4133
    _ZN2v88internal18TypeFeedbackOracle11PopulateMapENS0_6HandleINS0_4CodeEEE @4134
    _ZN2v88internal18TypeFeedbackOracle13LoadIsBuiltinEPNS0_8PropertyENS0_8Builtins4NameE @4135
    _ZN2v88internal18TypeFeedbackOracle16CollectPositionsEPNS0_4CodeEPNS0_4ListIiNS0_25FreeStoreAllocationPolicyEEES7_ @4136
    _ZN2v88internal18TypeFeedbackOracle16GetCallCheckTypeEPNS0_4CallE @4137
    _ZN2v88internal18TypeFeedbackOracle17CallIsMonomorphicEPNS0_4CallE @4138
    _ZN2v88internal18TypeFeedbackOracle17CallReceiverTypesEPNS0_4CallENS0_6HandleINS0_6StringEEE @4139
    _ZN2v88internal18TypeFeedbackOracle17LoadIsMonomorphicEPNS0_8PropertyE @4140
    _ZN2v88internal18TypeFeedbackOracle17LoadReceiverTypesEPNS0_8PropertyENS0_6HandleINS0_6StringEEE @4141
    _ZN2v88internal18TypeFeedbackOracle18StoreIsMonomorphicEPNS0_10AssignmentE @4142
    _ZN2v88internal18TypeFeedbackOracle18StoreReceiverTypesEPNS0_10AssignmentENS0_6HandleINS0_6StringEEE @4143
    _ZN2v88internal18TypeFeedbackOracle20CollectReceiverTypesEiNS0_6HandleINS0_6StringEEENS0_4Code5FlagsE @4144
    _ZN2v88internal18TypeFeedbackOracle27LoadMonomorphicReceiverTypeEPNS0_8PropertyE @4145
    _ZN2v88internal18TypeFeedbackOracle28StoreMonomorphicReceiverTypeEPNS0_10AssignmentE @4146
    _ZN2v88internal18TypeFeedbackOracle29GetPrototypeForPrimitiveCheckENS0_9CheckTypeE @4147
    _ZN2v88internal18TypeFeedbackOracleC1ENS0_6HandleINS0_4CodeEEENS2_INS0_7ContextEEE @4148
    _ZN2v88internal18TypeFeedbackOracleC2ENS0_6HandleINS0_4CodeEEENS2_INS0_7ContextEEE @4149
    _ZN2v88internal18WeakObjectRetainerD0Ev @4150
    _ZN2v88internal18WeakObjectRetainerD1Ev @4151
    _ZN2v88internal18WithEnterStatement20AsWithEnterStatementEv @4152
    _ZN2v88internal18WithEnterStatement6AcceptEPNS0_10AstVisitorE @4153
    _ZN2v88internal18WithEnterStatementD0Ev @4154
    _ZN2v88internal18WithEnterStatementD1Ev @4155
    _ZN2v88internal19ApiParameterOperandEi @4156
    _ZN2v88internal19ArgumentsAccessStub17GenerateNewObjectEPNS0_14MacroAssemblerE @4157
    _ZN2v88internal19ArgumentsAccessStub19GenerateReadElementEPNS0_14MacroAssemblerE @4158
    _ZN2v88internal19ArgumentsAccessStub7GetNameEv @4159
    _ZN2v88internal19ArgumentsAccessStub8GenerateEPNS0_14MacroAssemblerE @4160
    _ZN2v88internal19ArgumentsAccessStub8MajorKeyEv @4161
    _ZN2v88internal19ArgumentsAccessStub8MinorKeyEv @4162
    _ZN2v88internal19ArgumentsAccessStubD0Ev @4163
    _ZN2v88internal19ArgumentsAccessStubD1Ev @4164
    _ZN2v88internal19CachedHeapGraphPath10NodesMatchEPvS2_ @4165
    _ZN2v88internal19CommandMessageQueue3GetEv @4166
    _ZN2v88internal19CommandMessageQueue3PutERKNS0_14CommandMessageE @4167
    _ZN2v88internal19CommandMessageQueue6ExpandEv @4168
    _ZN2v88internal19CommandMessageQueueC1Ei @4169
    _ZN2v88internal19CommandMessageQueueC2Ei @4170
    _ZN2v88internal19CommandMessageQueueD1Ev @4171
    _ZN2v88internal19CommandMessageQueueD2Ev @4172
    _ZN2v88internal19CompilationSubCache16IterateFunctionsEPNS0_13ObjectVisitorE @4173
    _ZN2v88internal19CompilationSubCache3AgeEv @4174
    _ZN2v88internal19CompilationSubCache5ClearEv @4175
    _ZN2v88internal19CompilationSubCache6RemoveENS0_6HandleINS0_18SharedFunctionInfoEEE @4176
    _ZN2v88internal19CompilationSubCache7IterateEPNS0_13ObjectVisitorE @4177
    _ZN2v88internal19CompilationSubCache8GetTableEi @4178
    _ZN2v88internal19CompiledReplacement23ParseReplacementPatternIKcEEvPNS0_8ZoneListINS1_15ReplacementPartEEENS0_6VectorIT_EEii @4179
    _ZN2v88internal19CompiledReplacement23ParseReplacementPatternIKtEEvPNS0_8ZoneListINS1_15ReplacementPartEEENS0_6VectorIT_EEii @4180
    _ZN2v88internal19CompiledReplacement5ApplyEPNS0_24ReplacementStringBuilderEiiNS0_6HandleINS0_7JSArrayEEE @4181
    _ZN2v88internal19CompiledReplacement7CompileENS0_6HandleINS0_6StringEEEii @4182
    _ZN2v88internal19DeferredSearchCache8GenerateEv @4183
    _ZN2v88internal19DeferredSearchCacheD0Ev @4184
    _ZN2v88internal19DeferredSearchCacheD1Ev @4185
    _ZN2v88internal19DeoptimizingVisitor12EnterContextEPNS0_7ContextE @4186
    _ZN2v88internal19DeoptimizingVisitor12LeaveContextEPNS0_7ContextE @4187
    _ZN2v88internal19DeoptimizingVisitor13VisitFunctionEPNS0_10JSFunctionE @4188
    _ZN2v88internal19DeoptimizingVisitorD0Ev @4189
    _ZN2v88internal19DeoptimizingVisitorD1Ev @4190
    _ZN2v88internal19EntryConstructFrameD0Ev @4191
    _ZN2v88internal19EntryConstructFrameD1Ev @4192
    _ZN2v88internal19ExpressionStatement21AsExpressionStatementEv @4193
    _ZN2v88internal19ExpressionStatement25StatementAsCountOperationEv @4194
    _ZN2v88internal19ExpressionStatement27StatementAsSimpleAssignmentEv @4195
    _ZN2v88internal19ExpressionStatement6AcceptEPNS0_10AstVisitorE @4196
    _ZN2v88internal19ExpressionStatementD0Ev @4197
    _ZN2v88internal19ExpressionStatementD1Ev @4198
    _ZN2v88internal19ExternalAsciiString22ExternalAsciiStringGetEi @4199
    _ZN2v88internal19ExternalAsciiString28ExternalAsciiStringReadBlockEPjS2_j @4200
    _ZN2v88internal19ExternalAsciiString38ExternalAsciiStringReadBlockIntoBufferEPNS0_6String15ReadBlockBufferEPjj @4201
    _ZN2v88internal19ExternalStringTable18new_space_strings_E @4202 DATA
    _ZN2v88internal19ExternalStringTable18old_space_strings_E @4203 DATA
    _ZN2v88internal19ExternalStringTable7CleanUpEv @4204
    _ZN2v88internal19ExternalStringTable8TearDownEv @4205
    _ZN2v88internal19ExternalStringTable9AddStringEPNS0_6StringE @4206
    _ZN2v88internal19FLAG_always_compactE @4207 DATA
    _ZN2v88internal19FLAG_debugger_agentE @4208 DATA
    _ZN2v88internal19FLAG_defer_negationE @4209 DATA
    _ZN2v88internal19FLAG_limit_inliningE @4210 DATA
    _ZN2v88internal19FLAG_trace_all_usesE @4211 DATA
    _ZN2v88internal19FLAG_trace_hydrogenE @4212 DATA
    _ZN2v88internal19FLAG_trace_inliningE @4213 DATA
    _ZN2v88internal19FLAG_use_flow_graphE @4214 DATA
    _ZN2v88internal19FlexibleBodyVisitorINS0_17NewSpaceScavengerENS0_10FixedArray14BodyDescriptorEiE5VisitEPNS0_3MapEPNS0_10HeapObjectE @4215
    _ZN2v88internal19FlexibleBodyVisitorINS0_17NewSpaceScavengerENS0_20StructBodyDescriptorEiE16VisitSpecializedILi12EEEiPNS0_3MapEPNS0_10HeapObjectE @4216
    _ZN2v88internal19FlexibleBodyVisitorINS0_17NewSpaceScavengerENS0_20StructBodyDescriptorEiE16VisitSpecializedILi16EEEiPNS0_3MapEPNS0_10HeapObjectE @4217
    _ZN2v88internal19FlexibleBodyVisitorINS0_17NewSpaceScavengerENS0_20StructBodyDescriptorEiE16VisitSpecializedILi20EEEiPNS0_3MapEPNS0_10HeapObjectE @4218
    _ZN2v88internal19FlexibleBodyVisitorINS0_17NewSpaceScavengerENS0_20StructBodyDescriptorEiE16VisitSpecializedILi24EEEiPNS0_3MapEPNS0_10HeapObjectE @4219
    _ZN2v88internal19FlexibleBodyVisitorINS0_17NewSpaceScavengerENS0_20StructBodyDescriptorEiE16VisitSpecializedILi28EEEiPNS0_3MapEPNS0_10HeapObjectE @4220
    _ZN2v88internal19FlexibleBodyVisitorINS0_17NewSpaceScavengerENS0_20StructBodyDescriptorEiE16VisitSpecializedILi32EEEiPNS0_3MapEPNS0_10HeapObjectE @4221
    _ZN2v88internal19FlexibleBodyVisitorINS0_17NewSpaceScavengerENS0_20StructBodyDescriptorEiE16VisitSpecializedILi36EEEiPNS0_3MapEPNS0_10HeapObjectE @4222
    _ZN2v88internal19FlexibleBodyVisitorINS0_17NewSpaceScavengerENS0_20StructBodyDescriptorEiE16VisitSpecializedILi8EEEiPNS0_3MapEPNS0_10HeapObjectE @4223
    _ZN2v88internal19FlexibleBodyVisitorINS0_17NewSpaceScavengerENS0_20StructBodyDescriptorEiE5VisitEPNS0_3MapEPNS0_10HeapObjectE @4224
    _ZN2v88internal19FlexibleBodyVisitorINS0_17NewSpaceScavengerENS0_8JSObject14BodyDescriptorEiE16VisitSpecializedILi12EEEiPNS0_3MapEPNS0_10HeapObjectE @4225
    _ZN2v88internal19FlexibleBodyVisitorINS0_17NewSpaceScavengerENS0_8JSObject14BodyDescriptorEiE16VisitSpecializedILi16EEEiPNS0_3MapEPNS0_10HeapObjectE @4226
    _ZN2v88internal19FlexibleBodyVisitorINS0_17NewSpaceScavengerENS0_8JSObject14BodyDescriptorEiE16VisitSpecializedILi20EEEiPNS0_3MapEPNS0_10HeapObjectE @4227
    _ZN2v88internal19FlexibleBodyVisitorINS0_17NewSpaceScavengerENS0_8JSObject14BodyDescriptorEiE16VisitSpecializedILi24EEEiPNS0_3MapEPNS0_10HeapObjectE @4228
    _ZN2v88internal19FlexibleBodyVisitorINS0_17NewSpaceScavengerENS0_8JSObject14BodyDescriptorEiE16VisitSpecializedILi28EEEiPNS0_3MapEPNS0_10HeapObjectE @4229
    _ZN2v88internal19FlexibleBodyVisitorINS0_17NewSpaceScavengerENS0_8JSObject14BodyDescriptorEiE16VisitSpecializedILi32EEEiPNS0_3MapEPNS0_10HeapObjectE @4230
    _ZN2v88internal19FlexibleBodyVisitorINS0_17NewSpaceScavengerENS0_8JSObject14BodyDescriptorEiE16VisitSpecializedILi36EEEiPNS0_3MapEPNS0_10HeapObjectE @4231
    _ZN2v88internal19FlexibleBodyVisitorINS0_17NewSpaceScavengerENS0_8JSObject14BodyDescriptorEiE16VisitSpecializedILi8EEEiPNS0_3MapEPNS0_10HeapObjectE @4232
    _ZN2v88internal19FlexibleBodyVisitorINS0_17NewSpaceScavengerENS0_8JSObject14BodyDescriptorEiE5VisitEPNS0_3MapEPNS0_10HeapObjectE @4233
    _ZN2v88internal19FlexibleBodyVisitorINS0_20StaticMarkingVisitorENS0_10FixedArray14BodyDescriptorEvE5VisitEPNS0_3MapEPNS0_10HeapObjectE @4234
    _ZN2v88internal19FlexibleBodyVisitorINS0_20StaticMarkingVisitorENS0_20StructBodyDescriptorEvE16VisitSpecializedILi12EEEvPNS0_3MapEPNS0_10HeapObjectE @4235
    _ZN2v88internal19FlexibleBodyVisitorINS0_20StaticMarkingVisitorENS0_20StructBodyDescriptorEvE16VisitSpecializedILi16EEEvPNS0_3MapEPNS0_10HeapObjectE @4236
    _ZN2v88internal19FlexibleBodyVisitorINS0_20StaticMarkingVisitorENS0_20StructBodyDescriptorEvE16VisitSpecializedILi20EEEvPNS0_3MapEPNS0_10HeapObjectE @4237
    _ZN2v88internal19FlexibleBodyVisitorINS0_20StaticMarkingVisitorENS0_20StructBodyDescriptorEvE16VisitSpecializedILi24EEEvPNS0_3MapEPNS0_10HeapObjectE @4238
    _ZN2v88internal19FlexibleBodyVisitorINS0_20StaticMarkingVisitorENS0_20StructBodyDescriptorEvE16VisitSpecializedILi28EEEvPNS0_3MapEPNS0_10HeapObjectE @4239
    _ZN2v88internal19FlexibleBodyVisitorINS0_20StaticMarkingVisitorENS0_20StructBodyDescriptorEvE16VisitSpecializedILi32EEEvPNS0_3MapEPNS0_10HeapObjectE @4240
    _ZN2v88internal19FlexibleBodyVisitorINS0_20StaticMarkingVisitorENS0_20StructBodyDescriptorEvE16VisitSpecializedILi36EEEvPNS0_3MapEPNS0_10HeapObjectE @4241
    _ZN2v88internal19FlexibleBodyVisitorINS0_20StaticMarkingVisitorENS0_20StructBodyDescriptorEvE16VisitSpecializedILi8EEEvPNS0_3MapEPNS0_10HeapObjectE @4242
    _ZN2v88internal19FlexibleBodyVisitorINS0_20StaticMarkingVisitorENS0_20StructBodyDescriptorEvE5VisitEPNS0_3MapEPNS0_10HeapObjectE @4243
    _ZN2v88internal19FlexibleBodyVisitorINS0_20StaticMarkingVisitorENS0_8JSObject14BodyDescriptorEvE16VisitSpecializedILi12EEEvPNS0_3MapEPNS0_10HeapObjectE @4244
    _ZN2v88internal19FlexibleBodyVisitorINS0_20StaticMarkingVisitorENS0_8JSObject14BodyDescriptorEvE16VisitSpecializedILi16EEEvPNS0_3MapEPNS0_10HeapObjectE @4245
    _ZN2v88internal19FlexibleBodyVisitorINS0_20StaticMarkingVisitorENS0_8JSObject14BodyDescriptorEvE16VisitSpecializedILi20EEEvPNS0_3MapEPNS0_10HeapObjectE @4246
    _ZN2v88internal19FlexibleBodyVisitorINS0_20StaticMarkingVisitorENS0_8JSObject14BodyDescriptorEvE16VisitSpecializedILi24EEEvPNS0_3MapEPNS0_10HeapObjectE @4247
    _ZN2v88internal19FlexibleBodyVisitorINS0_20StaticMarkingVisitorENS0_8JSObject14BodyDescriptorEvE16VisitSpecializedILi28EEEvPNS0_3MapEPNS0_10HeapObjectE @4248
    _ZN2v88internal19FlexibleBodyVisitorINS0_20StaticMarkingVisitorENS0_8JSObject14BodyDescriptorEvE16VisitSpecializedILi32EEEvPNS0_3MapEPNS0_10HeapObjectE @4249
    _ZN2v88internal19FlexibleBodyVisitorINS0_20StaticMarkingVisitorENS0_8JSObject14BodyDescriptorEvE16VisitSpecializedILi36EEEvPNS0_3MapEPNS0_10HeapObjectE @4250
    _ZN2v88internal19FlexibleBodyVisitorINS0_20StaticMarkingVisitorENS0_8JSObject14BodyDescriptorEvE16VisitSpecializedILi8EEEvPNS0_3MapEPNS0_10HeapObjectE @4251
    _ZN2v88internal19FlexibleBodyVisitorINS0_20StaticMarkingVisitorENS0_8JSObject14BodyDescriptorEvE5VisitEPNS0_3MapEPNS0_10HeapObjectE @4252
    _ZN2v88internal19FlexibleBodyVisitorINS0_37StaticPointersToNewGenUpdatingVisitorENS0_10FixedArray14BodyDescriptorEiE5VisitEPNS0_3MapEPNS0_10HeapObjectE @4253
    _ZN2v88internal19FlexibleBodyVisitorINS0_37StaticPointersToNewGenUpdatingVisitorENS0_20StructBodyDescriptorEiE16VisitSpecializedILi12EEEiPNS0_3MapEPNS0_10HeapObjectE @4254
    _ZN2v88internal19FlexibleBodyVisitorINS0_37StaticPointersToNewGenUpdatingVisitorENS0_20StructBodyDescriptorEiE16VisitSpecializedILi16EEEiPNS0_3MapEPNS0_10HeapObjectE @4255
    _ZN2v88internal19FlexibleBodyVisitorINS0_37StaticPointersToNewGenUpdatingVisitorENS0_20StructBodyDescriptorEiE16VisitSpecializedILi20EEEiPNS0_3MapEPNS0_10HeapObjectE @4256
    _ZN2v88internal19FlexibleBodyVisitorINS0_37StaticPointersToNewGenUpdatingVisitorENS0_20StructBodyDescriptorEiE16VisitSpecializedILi24EEEiPNS0_3MapEPNS0_10HeapObjectE @4257
    _ZN2v88internal19FlexibleBodyVisitorINS0_37StaticPointersToNewGenUpdatingVisitorENS0_20StructBodyDescriptorEiE16VisitSpecializedILi28EEEiPNS0_3MapEPNS0_10HeapObjectE @4258
    _ZN2v88internal19FlexibleBodyVisitorINS0_37StaticPointersToNewGenUpdatingVisitorENS0_20StructBodyDescriptorEiE16VisitSpecializedILi32EEEiPNS0_3MapEPNS0_10HeapObjectE @4259
    _ZN2v88internal19FlexibleBodyVisitorINS0_37StaticPointersToNewGenUpdatingVisitorENS0_20StructBodyDescriptorEiE16VisitSpecializedILi36EEEiPNS0_3MapEPNS0_10HeapObjectE @4260
    _ZN2v88internal19FlexibleBodyVisitorINS0_37StaticPointersToNewGenUpdatingVisitorENS0_20StructBodyDescriptorEiE16VisitSpecializedILi8EEEiPNS0_3MapEPNS0_10HeapObjectE @4261
    _ZN2v88internal19FlexibleBodyVisitorINS0_37StaticPointersToNewGenUpdatingVisitorENS0_20StructBodyDescriptorEiE5VisitEPNS0_3MapEPNS0_10HeapObjectE @4262
    _ZN2v88internal19FlexibleBodyVisitorINS0_37StaticPointersToNewGenUpdatingVisitorENS0_8JSObject14BodyDescriptorEiE16VisitSpecializedILi12EEEiPNS0_3MapEPNS0_10HeapObjectE @4263
    _ZN2v88internal19FlexibleBodyVisitorINS0_37StaticPointersToNewGenUpdatingVisitorENS0_8JSObject14BodyDescriptorEiE16VisitSpecializedILi16EEEiPNS0_3MapEPNS0_10HeapObjectE @4264
    _ZN2v88internal19FlexibleBodyVisitorINS0_37StaticPointersToNewGenUpdatingVisitorENS0_8JSObject14BodyDescriptorEiE16VisitSpecializedILi20EEEiPNS0_3MapEPNS0_10HeapObjectE @4265
    _ZN2v88internal19FlexibleBodyVisitorINS0_37StaticPointersToNewGenUpdatingVisitorENS0_8JSObject14BodyDescriptorEiE16VisitSpecializedILi24EEEiPNS0_3MapEPNS0_10HeapObjectE @4266
    _ZN2v88internal19FlexibleBodyVisitorINS0_37StaticPointersToNewGenUpdatingVisitorENS0_8JSObject14BodyDescriptorEiE16VisitSpecializedILi28EEEiPNS0_3MapEPNS0_10HeapObjectE @4267
    _ZN2v88internal19FlexibleBodyVisitorINS0_37StaticPointersToNewGenUpdatingVisitorENS0_8JSObject14BodyDescriptorEiE16VisitSpecializedILi32EEEiPNS0_3MapEPNS0_10HeapObjectE @4268
    _ZN2v88internal19FlexibleBodyVisitorINS0_37StaticPointersToNewGenUpdatingVisitorENS0_8JSObject14BodyDescriptorEiE16VisitSpecializedILi36EEEiPNS0_3MapEPNS0_10HeapObjectE @4269
    _ZN2v88internal19FlexibleBodyVisitorINS0_37StaticPointersToNewGenUpdatingVisitorENS0_8JSObject14BodyDescriptorEiE16VisitSpecializedILi8EEEiPNS0_3MapEPNS0_10HeapObjectE @4270
    _ZN2v88internal19FlexibleBodyVisitorINS0_37StaticPointersToNewGenUpdatingVisitorENS0_8JSObject14BodyDescriptorEiE5VisitEPNS0_3MapEPNS0_10HeapObjectE @4271
    _ZN2v88internal19FloatingPointHelper12LoadSSE2SmisEPNS0_14MacroAssemblerENS0_8RegisterE @4272
    _ZN2v88internal19FloatingPointHelper13LoadFloatSmisEPNS0_14MacroAssemblerENS0_8RegisterE @4273
    _ZN2v88internal19FloatingPointHelper14LoadAsIntegersEPNS0_14MacroAssemblerENS0_8TypeInfoEbPNS0_5LabelE @4274
    _ZN2v88internal19FloatingPointHelper16LoadFloatOperandEPNS0_14MacroAssemblerENS0_8RegisterE @4275
    _ZN2v88internal19FloatingPointHelper16LoadSSE2OperandsEPNS0_14MacroAssemblerE @4276
    _ZN2v88internal19FloatingPointHelper16LoadSSE2OperandsEPNS0_14MacroAssemblerEPNS0_5LabelE @4277
    _ZN2v88internal19FloatingPointHelper17LoadFloatOperandsEPNS0_14MacroAssemblerENS0_8RegisterENS1_11ArgLocationE @4278
    _ZN2v88internal19FloatingPointHelper18CheckFloatOperandsEPNS0_14MacroAssemblerEPNS0_5LabelENS0_8RegisterE @4279
    _ZN2v88internal19FloatingPointHelper21LoadNumbersAsIntegersEPNS0_14MacroAssemblerENS0_8TypeInfoEbPNS0_5LabelE @4280
    _ZN2v88internal19FloatingPointHelper22LoadUnknownsAsIntegersEPNS0_14MacroAssemblerEbPNS0_5LabelE @4281
    _ZN2v88internal19FloatingPointHelper25CheckSSE2OperandsAreInt32EPNS0_14MacroAssemblerEPNS0_5LabelENS0_8RegisterE @4282
    _ZN2v88internal19FloatingPointHelper26CheckFloatOperandsAreInt32EPNS0_14MacroAssemblerEPNS0_5LabelE @4283
    _ZN2v88internal19FloatingPointHelper28CheckLoadedIntegersWereInt32EPNS0_14MacroAssemblerEbPNS0_5LabelE @4284
    _ZN2v88internal19ForceDeletePropertyENS0_6HandleINS0_8JSObjectEEENS1_INS0_6ObjectEEE @4285
    _ZN2v88internal19FreeListNodesFilter10SkipObjectEPNS0_10HeapObjectE @4286
    _ZN2v88internal19FreeListNodesFilterD0Ev @4287
    _ZN2v88internal19FreeListNodesFilterD1Ev @4288
    _ZN2v88internal19GenericBinaryOpStub10FinishCodeEPNS0_4CodeE @4289
    _ZN2v88internal19GenericBinaryOpStub10GetICStateEv @4290
    _ZN2v88internal19GenericBinaryOpStub11GetCodeKindEv @4291
    _ZN2v88internal19GenericBinaryOpStub12GenerateCallEPNS0_14MacroAssemblerENS0_8RegisterEPNS0_3SmiE @4292
    _ZN2v88internal19GenericBinaryOpStub12GenerateCallEPNS0_14MacroAssemblerENS0_8RegisterES4_ @4293
    _ZN2v88internal19GenericBinaryOpStub12GenerateCallEPNS0_14MacroAssemblerEPNS0_3SmiENS0_8RegisterE @4294
    _ZN2v88internal19GenericBinaryOpStub14GenerateReturnEPNS0_14MacroAssemblerE @4295
    _ZN2v88internal19GenericBinaryOpStub15GenerateSmiCodeEPNS0_14MacroAssemblerEPNS0_5LabelE @4296
    _ZN2v88internal19GenericBinaryOpStub21GenerateLoadArgumentsEPNS0_14MacroAssemblerE @4297
    _ZN2v88internal19GenericBinaryOpStub22GenerateTypeTransitionEPNS0_14MacroAssemblerE @4298
    _ZN2v88internal19GenericBinaryOpStub24GenerateRegisterArgsPushEPNS0_14MacroAssemblerE @4299
    _ZN2v88internal19GenericBinaryOpStub28GenerateHeapResultAllocationEPNS0_14MacroAssemblerEPNS0_5LabelE @4300
    _ZN2v88internal19GenericBinaryOpStub7GetNameEv @4301
    _ZN2v88internal19GenericBinaryOpStub8GenerateEPNS0_14MacroAssemblerE @4302
    _ZN2v88internal19GenericBinaryOpStub8MajorKeyEv @4303
    _ZN2v88internal19GenericBinaryOpStub8MinorKeyEv @4304
    _ZN2v88internal19GenericBinaryOpStubD0Ev @4305
    _ZN2v88internal19GenericBinaryOpStubD1Ev @4306
    _ZN2v88internal19GetEnumPropertyKeysENS0_6HandleINS0_8JSObjectEEEb @4307
    _ZN2v88internal19GetHiddenPropertiesENS0_6HandleINS0_8JSObjectEEEb @4308
    _ZN2v88internal19GetScriptLineNumberENS0_6HandleINS0_6ScriptEEEi @4309
    _ZN2v88internal19HCheckPrototypeMaps10DataEqualsEPNS0_6HValueE @4310
    _ZN2v88internal19HCheckPrototypeMaps16CompileToLithiumEPNS0_13LChunkBuilderE @4311
    _ZN2v88internal19HCheckPrototypeMaps8HashcodeEv @4312
    _ZN2v88internal19HCheckPrototypeMapsD0Ev @4313
    _ZN2v88internal19HCheckPrototypeMapsD1Ev @4314
    _ZN2v88internal19HControlInstruction11PrintDataToEPNS0_12StringStreamE @4315
    _ZN2v88internal19HControlInstructionD0Ev @4316
    _ZN2v88internal19HControlInstructionD1Ev @4317
    _ZN2v88internal19HUnaryMathOperation10DataEqualsEPNS0_6HValueE @4318
    _ZN2v88internal19HUnaryMathOperation11PrintDataToEPNS0_12StringStreamE @4319
    _ZN2v88internal19HUnaryMathOperation12CanonicalizeEv @4320
    _ZN2v88internal19HUnaryMathOperation16CompileToLithiumEPNS0_13LChunkBuilderE @4321
    _ZN2v88internal19HUnaryMathOperation21CalculateInferredTypeEv @4322
    _ZN2v88internal19HUnaryMathOperation30EnsureAndPropagateNotMinusZeroEPNS0_9BitVectorE @4323
    _ZN2v88internal19HUnaryMathOperationC1EPNS0_6HValueENS0_17BuiltinFunctionIdE @4324
    _ZN2v88internal19HUnaryMathOperationD0Ev @4325
    _ZN2v88internal19HUnaryMathOperationD1Ev @4326
    _ZN2v88internal19HeapStringAllocator4growEPj @4327
    _ZN2v88internal19HeapStringAllocator8allocateEj @4328
    _ZN2v88internal19HeapStringAllocatorD0Ev @4329
    _ZN2v88internal19HeapStringAllocatorD1Ev @4330
    _ZN2v88internal19LCheckPrototypeMaps15CompileToNativeEPNS0_8LCodeGenE @4331
    _ZN2v88internal19LCheckPrototypeMapsD0Ev @4332
    _ZN2v88internal19LCheckPrototypeMapsD1Ev @4333
    _ZN2v88internal19LControlInstructionILi0ELi1EE16SetBranchTargetsEii @4334
    _ZN2v88internal19LControlInstructionILi0ELi1EED0Ev @4335
    _ZN2v88internal19LControlInstructionILi0ELi1EED1Ev @4336
    _ZN2v88internal19LControlInstructionILi1ELi0EE16SetBranchTargetsEii @4337
    _ZN2v88internal19LControlInstructionILi1ELi0EED0Ev @4338
    _ZN2v88internal19LControlInstructionILi1ELi0EED1Ev @4339
    _ZN2v88internal19LControlInstructionILi1ELi1EE16SetBranchTargetsEii @4340
    _ZN2v88internal19LControlInstructionILi1ELi1EED0Ev @4341
    _ZN2v88internal19LControlInstructionILi1ELi1EED1Ev @4342
    _ZN2v88internal19LControlInstructionILi1ELi2EE16SetBranchTargetsEii @4343
    _ZN2v88internal19LControlInstructionILi1ELi2EED0Ev @4344
    _ZN2v88internal19LControlInstructionILi1ELi2EED1Ev @4345
    _ZN2v88internal19LControlInstructionILi2ELi0EE16SetBranchTargetsEii @4346
    _ZN2v88internal19LControlInstructionILi2ELi0EED0Ev @4347
    _ZN2v88internal19LControlInstructionILi2ELi0EED1Ev @4348
    _ZN2v88internal19LControlInstructionILi3ELi0EE16SetBranchTargetsEii @4349
    _ZN2v88internal19LControlInstructionILi3ELi0EED0Ev @4350
    _ZN2v88internal19LControlInstructionILi3ELi0EED1Ev @4351
    _ZN2v88internal19LUnaryMathOperation11PrintDataToEPNS0_12StringStreamE @4352
    _ZN2v88internal19LUnaryMathOperation15CompileToNativeEPNS0_8LCodeGenE @4353
    _ZN2v88internal19LUnaryMathOperationD0Ev @4354
    _ZN2v88internal19LUnaryMathOperationD1Ev @4355
    _ZN2v88internal19LargeObjectIterator11next_objectEv @4356
    _ZN2v88internal19LargeObjectIterator4nextEv @4357
    _ZN2v88internal19LargeObjectIteratorC1EPNS0_16LargeObjectSpaceE @4358
    _ZN2v88internal19LargeObjectIteratorC1EPNS0_16LargeObjectSpaceEPFiPNS0_10HeapObjectEE @4359
    _ZN2v88internal19LargeObjectIteratorC2EPNS0_16LargeObjectSpaceE @4360
    _ZN2v88internal19LargeObjectIteratorC2EPNS0_16LargeObjectSpaceEPFiPNS0_10HeapObjectEE @4361
    _ZN2v88internal19LargeObjectIteratorD0Ev @4362
    _ZN2v88internal19LargeObjectIteratorD1Ev @4363
    _ZN2v88internal19MaterializedLiteral21AsMaterializedLiteralEv @4364
    _ZN2v88internal19MaterializedLiteralD0Ev @4365
    _ZN2v88internal19MaterializedLiteralD1Ev @4366
    _ZN2v88internal19NormalizePropertiesENS0_6HandleINS0_8JSObjectEEENS0_25PropertyNormalizationModeEi @4367
    _ZN2v88internal19NumberDictionarySetENS0_6HandleINS0_16NumberDictionaryEEEjNS1_INS0_6ObjectEEENS0_15PropertyDetailsE @4368
    _ZN2v88internal19PatchInlinedSmiCodeEPh @4369
    _ZN2v88internal19PreallocatedStorage10free_list_E @4370 DATA
    _ZN2v88internal19PreallocatedStorage12in_use_list_E @4371 DATA
    _ZN2v88internal19PreallocatedStorage13preallocated_E @4372 DATA
    _ZN2v88internal19PreallocatedStorage3NewEj @4373
    _ZN2v88internal19PreallocatedStorage4InitEj @4374
    _ZN2v88internal19PreallocatedStorage6DeleteEPv @4375
    _ZN2v88internal19PreallocatedStorage6LinkToEPS1_ @4376
    _ZN2v88internal19PreallocatedStorage6UnlinkEv @4377
    _ZN2v88internal19PreallocatedStorageC1Ej @4378
    _ZN2v88internal19PreallocatedStorageC2Ej @4379
    _ZN2v88internal19ProducerHeapProfile26DoRecordJSObjectAllocationEPNS0_6ObjectE @4380
    _ZN2v88internal19ProducerHeapProfile5SetupEv @4381
    _ZN2v88internal19ProducerHeapProfile8can_log_E @4382 DATA
    _ZN2v88internal19RegExpBackReference15AsBackReferenceEv @4383
    _ZN2v88internal19RegExpBackReference15IsBackReferenceEv @4384
    _ZN2v88internal19RegExpBackReference6AcceptEPNS0_13RegExpVisitorEPv @4385
    _ZN2v88internal19RegExpBackReference6ToNodeEPNS0_14RegExpCompilerEPNS0_10RegExpNodeE @4386
    _ZN2v88internal19RegExpBackReference9max_matchEv @4387
    _ZN2v88internal19RegExpBackReference9min_matchEv @4388
    _ZN2v88internal19RegExpBackReferenceD0Ev @4389
    _ZN2v88internal19RegExpBackReferenceD1Ev @4390
    _ZN2v88internal19RetainerHeapProfile10PrintStatsEv @4391
    _ZN2v88internal19RetainerHeapProfile12CollectStatsEPNS0_10HeapObjectE @4392
    _ZN2v88internal19RetainerHeapProfile14StoreReferenceERKNS0_16JSObjectsClusterEPNS0_10HeapObjectE @4393
    _ZN2v88internal19RetainerHeapProfile15DebugPrintStatsEPNS1_7PrinterE @4394
    _ZN2v88internal19RetainerHeapProfile18CoarseAndAggregateEv @4395
    _ZN2v88internal19RetainerHeapProfile7PrinterD0Ev @4396
    _ZN2v88internal19RetainerHeapProfile7PrinterD1Ev @4397
    _ZN2v88internal19RetainerHeapProfileC1Ev @4398
    _ZN2v88internal19RetainerHeapProfileC2Ev @4399
    _ZN2v88internal19RetainerHeapProfileD1Ev @4400
    _ZN2v88internal19RetainerHeapProfileD2Ev @4401
    _ZN2v88internal19SequentialSymbolKeyIcE13HashForObjectEPNS0_6ObjectE @4402
    _ZN2v88internal19SequentialSymbolKeyIcE4HashEv @4403
    _ZN2v88internal19SequentialSymbolKeyIcED0Ev @4404
    _ZN2v88internal19SequentialSymbolKeyIcED1Ev @4405
    _ZN2v88internal19SequentialSymbolKeyItE13HashForObjectEPNS0_6ObjectE @4406
    _ZN2v88internal19SequentialSymbolKeyItE4HashEv @4407
    _ZN2v88internal19SequentialSymbolKeyItED0Ev @4408
    _ZN2v88internal19SequentialSymbolKeyItED1Ev @4409
    _ZN2v88internal19SerializedScopeInfo14ParameterIndexEPNS0_6StringE @4410
    _ZN2v88internal19SerializedScopeInfo14StackSlotIndexEPNS0_6StringE @4411
    _ZN2v88internal19SerializedScopeInfo16ContextSlotIndexEPNS0_6StringEPNS0_8Variable4ModeE @4412
    _ZN2v88internal19SerializedScopeInfo18NumberOfStackSlotsEv @4413
    _ZN2v88internal19SerializedScopeInfo20NumberOfContextSlotsEv @4414
    _ZN2v88internal19SerializedScopeInfo22HasHeapAllocatedLocalsEv @4415
    _ZN2v88internal19SerializedScopeInfo24FunctionContextSlotIndexEPNS0_6StringE @4416
    _ZN2v88internal19SerializedScopeInfo5EmptyEv @4417
    _ZN2v88internal19SerializedScopeInfo6CreateEPNS0_5ScopeE @4418
    _ZN2v88internal19SerializedScopeInfo9CallsEvalEv @4419
    _ZN2v88internal19StoreIC_ArrayLengthENS0_9ArgumentsE @4420
    _ZN2v88internal19TokensCompareOutput8AddChunkEiiii @4421
    _ZN2v88internal19TokensCompareOutputD0Ev @4422
    _ZN2v88internal19TokensCompareOutputD1Ev @4423
    _ZN2v88internal19TranscendentalCache3GetEd @4424
    _ZN2v88internal19TranscendentalCache5ClearEv @4425
    _ZN2v88internal19TranscendentalCache7caches_E @4426 DATA
    _ZN2v88internal19TranscendentalCacheC1ENS1_4TypeE @4427
    _ZN2v88internal19TranscendentalCacheC2ENS1_4TypeE @4428
    _ZN2v88internal19TranslationIterator4NextEv @4429
    _ZN2v88internal19TryFinallyStatement21AsTryFinallyStatementEv @4430
    _ZN2v88internal19TryFinallyStatement6AcceptEPNS0_10AstVisitorE @4431
    _ZN2v88internal19TryFinallyStatementD0Ev @4432
    _ZN2v88internal19TryFinallyStatementD1Ev @4433
    _ZN2v88internal19TwoCharHashTableKey13HashForObjectEPNS0_6ObjectE @4434
    _ZN2v88internal19TwoCharHashTableKey4HashEv @4435
    _ZN2v88internal19TwoCharHashTableKey7IsMatchEPNS0_6ObjectE @4436
    _ZN2v88internal19TwoCharHashTableKey8AsObjectEv @4437
    _ZN2v88internal19TwoCharHashTableKeyD0Ev @4438
    _ZN2v88internal19TwoCharHashTableKeyD1Ev @4439
    _ZN2v88internal19UC16CharacterStream7AdvanceEv @4440
    _ZN2v88internal19UC16CharacterStreamD0Ev @4441
    _ZN2v88internal19UC16CharacterStreamD1Ev @4442
    _ZN2v88internal19V8JavaScriptScanner10InitializeEPNS0_19UC16CharacterStreamE @4443
    _ZN2v88internal19V8JavaScriptScannerC1Ev @4444
    _ZN2v88internal19V8JavaScriptScannerC2Ev @4445
    _ZN2v88internal19kIntrinsicFunctionsE @4446 DATA
    _ZN2v88internal19power_double_doubleEdd @4447
    _ZN2v88internal20CatchExtensionObject22AsCatchExtensionObjectEv @4448
    _ZN2v88internal20CatchExtensionObject6AcceptEPNS0_10AstVisitorE @4449
    _ZN2v88internal20CatchExtensionObjectD0Ev @4450
    _ZN2v88internal20CatchExtensionObjectD1Ev @4451
    _ZN2v88internal20CompilationCacheEval11TryTablePutENS0_6HandleINS0_6StringEEENS2_INS0_7ContextEEENS2_INS0_18SharedFunctionInfoEEE @4452
    _ZN2v88internal20CompilationCacheEval3PutENS0_6HandleINS0_6StringEEENS2_INS0_7ContextEEENS2_INS0_18SharedFunctionInfoEEE @4453
    _ZN2v88internal20CompilationCacheEval6LookupENS0_6HandleINS0_6StringEEENS2_INS0_7ContextEEENS0_14StrictModeFlagE @4454
    _ZN2v88internal20CompilationCacheEval8TablePutENS0_6HandleINS0_6StringEEENS2_INS0_7ContextEEENS2_INS0_18SharedFunctionInfoEEE @4455
    _ZN2v88internal20CompilationZoneScopeD0Ev @4456
    _ZN2v88internal20CompilationZoneScopeD1Ev @4457
    _ZN2v88internal20DebuggerAgentSession15DebuggerMessageENS0_6VectorItEE @4458
    _ZN2v88internal20DebuggerAgentSession3RunEv @4459
    _ZN2v88internal20DebuggerAgentSession8ShutdownEv @4460
    _ZN2v88internal20DebuggerAgentSessionD0Ev @4461
    _ZN2v88internal20DebuggerAgentSessionD1Ev @4462
    _ZN2v88internal20DeferredInlineSmiAdd8GenerateEv @4463
    _ZN2v88internal20DeferredInlineSmiAddD0Ev @4464
    _ZN2v88internal20DeferredInlineSmiAddD1Ev @4465
    _ZN2v88internal20DeferredInlineSmiSub8GenerateEv @4466
    _ZN2v88internal20DeferredInlineSmiSubD0Ev @4467
    _ZN2v88internal20DeferredInlineSmiSubD1Ev @4468
    _ZN2v88internal20DeferredStringCharAt8GenerateEv @4469
    _ZN2v88internal20DeferredStringCharAtD0Ev @4470
    _ZN2v88internal20DeferredStringCharAtD1Ev @4471
    _ZN2v88internal20DeferredSwapElements8GenerateEv @4472
    _ZN2v88internal20DeferredSwapElementsD0Ev @4473
    _ZN2v88internal20DeferredSwapElementsD1Ev @4474
    _ZN2v88internal20DoubleToFixedCStringEdi @4475
    _ZN2v88internal20DoubleToRadixCStringEdi @4476
    _ZN2v88internal20FLAG_enable_liveeditE @4477 DATA
    _ZN2v88internal20FLAG_expose_debug_asE @4478 DATA
    _ZN2v88internal20FLAG_hydrogen_filterE @4479 DATA
    _ZN2v88internal20FLAG_remote_debuggerE @4480 DATA
    _ZN2v88internal20FLAG_trace_exceptionE @4481 DATA
    _ZN2v88internal20FLAG_trace_opt_statsE @4482 DATA
    _ZN2v88internal20HGetCachedArrayIndex10DataEqualsEPNS0_6HValueE @4483
    _ZN2v88internal20HGetCachedArrayIndex16CompileToLithiumEPNS0_13LChunkBuilderE @4484
    _ZN2v88internal20HGetCachedArrayIndexD0Ev @4485
    _ZN2v88internal20HGetCachedArrayIndexD1Ev @4486
    _ZN2v88internal20HGlobalValueNumberer10ShouldMoveEPNS0_12HInstructionEPNS0_11HBasicBlockE @4487
    _ZN2v88internal20HGlobalValueNumberer12AnalyzeBlockEPNS0_11HBasicBlockEPNS0_9HValueMapE @4488
    _ZN2v88internal20HGlobalValueNumberer16ProcessLoopBlockEPNS0_11HBasicBlockES3_i @4489
    _ZN2v88internal20HGlobalValueNumberer23ComputeBlockSideEffectsEv @4490
    _ZN2v88internal20HGlobalValueNumberer23LoopInvariantCodeMotionEv @4491
    _ZN2v88internal20HGlobalValueNumberer7AnalyzeEv @4492
    _ZN2v88internal20HGlobalValueNumbererC1EPNS0_6HGraphE @4493
    _ZN2v88internal20HHasCachedArrayIndex10DataEqualsEPNS0_6HValueE @4494
    _ZN2v88internal20HHasCachedArrayIndex16CompileToLithiumEPNS0_13LChunkBuilderE @4495
    _ZN2v88internal20HHasCachedArrayIndexD0Ev @4496
    _ZN2v88internal20HHasCachedArrayIndexD1Ev @4497
    _ZN2v88internal20HInferRepresentation13AddToWorklistEPNS0_6HValueE @4498
    _ZN2v88internal20HInferRepresentation16InferBasedOnUsesEPNS0_6HValueE @4499
    _ZN2v88internal20HInferRepresentation18InferBasedOnInputsEPNS0_6HValueE @4500
    _ZN2v88internal20HInferRepresentation23AddDependantsToWorklistEPNS0_6HValueE @4501
    _ZN2v88internal20HInferRepresentation7AnalyzeEv @4502
    _ZN2v88internal20HInferRepresentation9TryChangeEPNS0_6HValueE @4503
    _ZN2v88internal20HMaterializedLiteralILi0EED0Ev @4504
    _ZN2v88internal20HMaterializedLiteralILi0EED1Ev @4505
    _ZN2v88internal20HMaterializedLiteralILi1EED0Ev @4506
    _ZN2v88internal20HMaterializedLiteralILi1EED1Ev @4507
    _ZN2v88internal20HTemplateInstructionILi0EE12OperandCountEv @4508
    _ZN2v88internal20HTemplateInstructionILi0EE20InternalSetOperandAtEiPNS0_6HValueE @4509
    _ZN2v88internal20HTemplateInstructionILi0EE9OperandAtEi @4510
    _ZN2v88internal20HTemplateInstructionILi0EED0Ev @4511
    _ZN2v88internal20HTemplateInstructionILi0EED1Ev @4512
    _ZN2v88internal20HTemplateInstructionILi1EE12OperandCountEv @4513
    _ZN2v88internal20HTemplateInstructionILi1EE20InternalSetOperandAtEiPNS0_6HValueE @4514
    _ZN2v88internal20HTemplateInstructionILi1EE9OperandAtEi @4515
    _ZN2v88internal20HTemplateInstructionILi1EED0Ev @4516
    _ZN2v88internal20HTemplateInstructionILi1EED1Ev @4517
    _ZN2v88internal20HTemplateInstructionILi2EE12OperandCountEv @4518
    _ZN2v88internal20HTemplateInstructionILi2EE20InternalSetOperandAtEiPNS0_6HValueE @4519
    _ZN2v88internal20HTemplateInstructionILi2EE9OperandAtEi @4520
    _ZN2v88internal20HTemplateInstructionILi2EED0Ev @4521
    _ZN2v88internal20HTemplateInstructionILi2EED1Ev @4522
    _ZN2v88internal20HTemplateInstructionILi3EE12OperandCountEv @4523
    _ZN2v88internal20HTemplateInstructionILi3EE20InternalSetOperandAtEiPNS0_6HValueE @4524
    _ZN2v88internal20HTemplateInstructionILi3EE9OperandAtEi @4525
    _ZN2v88internal20HTemplateInstructionILi3EED0Ev @4526
    _ZN2v88internal20HTemplateInstructionILi3EED1Ev @4527
    _ZN2v88internal20HTemplateInstructionILi4EE12OperandCountEv @4528
    _ZN2v88internal20HTemplateInstructionILi4EE20InternalSetOperandAtEiPNS0_6HValueE @4529
    _ZN2v88internal20HTemplateInstructionILi4EE9OperandAtEi @4530
    _ZN2v88internal20HTemplateInstructionILi4EED0Ev @4531
    _ZN2v88internal20HTemplateInstructionILi4EED1Ev @4532
    _ZN2v88internal20HeapEntriesAllocatorD0Ev @4533
    _ZN2v88internal20HeapEntriesAllocatorD1Ev @4534
    _ZN2v88internal20JSConstructEntryStub7GetNameEv @4535
    _ZN2v88internal20JSConstructEntryStub8GenerateEPNS0_14MacroAssemblerE @4536
    _ZN2v88internal20JSConstructEntryStub8MinorKeyEv @4537
    _ZN2v88internal20JSConstructEntryStubD0Ev @4538
    _ZN2v88internal20JSConstructEntryStubD1Ev @4539
    _ZN2v88internal20LHasCachedArrayIndex15CompileToNativeEPNS0_8LCodeGenE @4540
    _ZN2v88internal20LHasCachedArrayIndexD0Ev @4541
    _ZN2v88internal20LHasCachedArrayIndexD1Ev @4542
    _ZN2v88internal20LInstanceOfAndBranch15CompileToNativeEPNS0_8LCodeGenE @4543
    _ZN2v88internal20LInstanceOfAndBranchD0Ev @4544
    _ZN2v88internal20LInstanceOfAndBranchD1Ev @4545
    _ZN2v88internal20LTemplateInstructionILi0ELi0ELi0EE10InputCountEv @4546
    _ZN2v88internal20LTemplateInstructionILi0ELi0ELi0EE11PrintDataToEPNS0_12StringStreamE @4547
    _ZN2v88internal20LTemplateInstructionILi0ELi0ELi0EE20PrintOutputOperandToEPNS0_12StringStreamE @4548
    _ZN2v88internal20LTemplateInstructionILi0ELi0ELi0EE6TempAtEi @4549
    _ZN2v88internal20LTemplateInstructionILi0ELi0ELi0EE6resultEv @4550
    _ZN2v88internal20LTemplateInstructionILi0ELi0ELi0EE7InputAtEi @4551
    _ZN2v88internal20LTemplateInstructionILi0ELi0ELi0EE9TempCountEv @4552
    _ZN2v88internal20LTemplateInstructionILi0ELi0ELi0EED0Ev @4553
    _ZN2v88internal20LTemplateInstructionILi0ELi0ELi0EED1Ev @4554
    _ZN2v88internal20LTemplateInstructionILi0ELi0ELi1EE10InputCountEv @4555
    _ZN2v88internal20LTemplateInstructionILi0ELi0ELi1EE11PrintDataToEPNS0_12StringStreamE @4556
    _ZN2v88internal20LTemplateInstructionILi0ELi0ELi1EE20PrintOutputOperandToEPNS0_12StringStreamE @4557
    _ZN2v88internal20LTemplateInstructionILi0ELi0ELi1EE6TempAtEi @4558
    _ZN2v88internal20LTemplateInstructionILi0ELi0ELi1EE6resultEv @4559
    _ZN2v88internal20LTemplateInstructionILi0ELi0ELi1EE7InputAtEi @4560
    _ZN2v88internal20LTemplateInstructionILi0ELi0ELi1EE9TempCountEv @4561
    _ZN2v88internal20LTemplateInstructionILi0ELi0ELi1EED0Ev @4562
    _ZN2v88internal20LTemplateInstructionILi0ELi0ELi1EED1Ev @4563
    _ZN2v88internal20LTemplateInstructionILi0ELi1ELi0EE10InputCountEv @4564
    _ZN2v88internal20LTemplateInstructionILi0ELi1ELi0EE11PrintDataToEPNS0_12StringStreamE @4565
    _ZN2v88internal20LTemplateInstructionILi0ELi1ELi0EE20PrintOutputOperandToEPNS0_12StringStreamE @4566
    _ZN2v88internal20LTemplateInstructionILi0ELi1ELi0EE6TempAtEi @4567
    _ZN2v88internal20LTemplateInstructionILi0ELi1ELi0EE6resultEv @4568
    _ZN2v88internal20LTemplateInstructionILi0ELi1ELi0EE7InputAtEi @4569
    _ZN2v88internal20LTemplateInstructionILi0ELi1ELi0EE9TempCountEv @4570
    _ZN2v88internal20LTemplateInstructionILi0ELi1ELi0EED0Ev @4571
    _ZN2v88internal20LTemplateInstructionILi0ELi1ELi0EED1Ev @4572
    _ZN2v88internal20LTemplateInstructionILi0ELi1ELi1EE10InputCountEv @4573
    _ZN2v88internal20LTemplateInstructionILi0ELi1ELi1EE11PrintDataToEPNS0_12StringStreamE @4574
    _ZN2v88internal20LTemplateInstructionILi0ELi1ELi1EE20PrintOutputOperandToEPNS0_12StringStreamE @4575
    _ZN2v88internal20LTemplateInstructionILi0ELi1ELi1EE6TempAtEi @4576
    _ZN2v88internal20LTemplateInstructionILi0ELi1ELi1EE6resultEv @4577
    _ZN2v88internal20LTemplateInstructionILi0ELi1ELi1EE7InputAtEi @4578
    _ZN2v88internal20LTemplateInstructionILi0ELi1ELi1EE9TempCountEv @4579
    _ZN2v88internal20LTemplateInstructionILi0ELi1ELi1EED0Ev @4580
    _ZN2v88internal20LTemplateInstructionILi0ELi1ELi1EED1Ev @4581
    _ZN2v88internal20LTemplateInstructionILi0ELi1ELi2EE10InputCountEv @4582
    _ZN2v88internal20LTemplateInstructionILi0ELi1ELi2EE11PrintDataToEPNS0_12StringStreamE @4583
    _ZN2v88internal20LTemplateInstructionILi0ELi1ELi2EE20PrintOutputOperandToEPNS0_12StringStreamE @4584
    _ZN2v88internal20LTemplateInstructionILi0ELi1ELi2EE6TempAtEi @4585
    _ZN2v88internal20LTemplateInstructionILi0ELi1ELi2EE6resultEv @4586
    _ZN2v88internal20LTemplateInstructionILi0ELi1ELi2EE7InputAtEi @4587
    _ZN2v88internal20LTemplateInstructionILi0ELi1ELi2EE9TempCountEv @4588
    _ZN2v88internal20LTemplateInstructionILi0ELi1ELi2EED0Ev @4589
    _ZN2v88internal20LTemplateInstructionILi0ELi1ELi2EED1Ev @4590
    _ZN2v88internal20LTemplateInstructionILi0ELi2ELi0EE10InputCountEv @4591
    _ZN2v88internal20LTemplateInstructionILi0ELi2ELi0EE11PrintDataToEPNS0_12StringStreamE @4592
    _ZN2v88internal20LTemplateInstructionILi0ELi2ELi0EE20PrintOutputOperandToEPNS0_12StringStreamE @4593
    _ZN2v88internal20LTemplateInstructionILi0ELi2ELi0EE6TempAtEi @4594
    _ZN2v88internal20LTemplateInstructionILi0ELi2ELi0EE6resultEv @4595
    _ZN2v88internal20LTemplateInstructionILi0ELi2ELi0EE7InputAtEi @4596
    _ZN2v88internal20LTemplateInstructionILi0ELi2ELi0EE9TempCountEv @4597
    _ZN2v88internal20LTemplateInstructionILi0ELi2ELi0EED0Ev @4598
    _ZN2v88internal20LTemplateInstructionILi0ELi2ELi0EED1Ev @4599
    _ZN2v88internal20LTemplateInstructionILi0ELi2ELi1EE10InputCountEv @4600
    _ZN2v88internal20LTemplateInstructionILi0ELi2ELi1EE11PrintDataToEPNS0_12StringStreamE @4601
    _ZN2v88internal20LTemplateInstructionILi0ELi2ELi1EE20PrintOutputOperandToEPNS0_12StringStreamE @4602
    _ZN2v88internal20LTemplateInstructionILi0ELi2ELi1EE6TempAtEi @4603
    _ZN2v88internal20LTemplateInstructionILi0ELi2ELi1EE6resultEv @4604
    _ZN2v88internal20LTemplateInstructionILi0ELi2ELi1EE7InputAtEi @4605
    _ZN2v88internal20LTemplateInstructionILi0ELi2ELi1EE9TempCountEv @4606
    _ZN2v88internal20LTemplateInstructionILi0ELi2ELi1EED0Ev @4607
    _ZN2v88internal20LTemplateInstructionILi0ELi2ELi1EED1Ev @4608
    _ZN2v88internal20LTemplateInstructionILi0ELi3ELi0EE10InputCountEv @4609
    _ZN2v88internal20LTemplateInstructionILi0ELi3ELi0EE11PrintDataToEPNS0_12StringStreamE @4610
    _ZN2v88internal20LTemplateInstructionILi0ELi3ELi0EE20PrintOutputOperandToEPNS0_12StringStreamE @4611
    _ZN2v88internal20LTemplateInstructionILi0ELi3ELi0EE6TempAtEi @4612
    _ZN2v88internal20LTemplateInstructionILi0ELi3ELi0EE6resultEv @4613
    _ZN2v88internal20LTemplateInstructionILi0ELi3ELi0EE7InputAtEi @4614
    _ZN2v88internal20LTemplateInstructionILi0ELi3ELi0EE9TempCountEv @4615
    _ZN2v88internal20LTemplateInstructionILi0ELi3ELi0EED0Ev @4616
    _ZN2v88internal20LTemplateInstructionILi0ELi3ELi0EED1Ev @4617
    _ZN2v88internal20LTemplateInstructionILi0ELi3ELi1EE10InputCountEv @4618
    _ZN2v88internal20LTemplateInstructionILi0ELi3ELi1EE11PrintDataToEPNS0_12StringStreamE @4619
    _ZN2v88internal20LTemplateInstructionILi0ELi3ELi1EE20PrintOutputOperandToEPNS0_12StringStreamE @4620
    _ZN2v88internal20LTemplateInstructionILi0ELi3ELi1EE6TempAtEi @4621
    _ZN2v88internal20LTemplateInstructionILi0ELi3ELi1EE6resultEv @4622
    _ZN2v88internal20LTemplateInstructionILi0ELi3ELi1EE7InputAtEi @4623
    _ZN2v88internal20LTemplateInstructionILi0ELi3ELi1EE9TempCountEv @4624
    _ZN2v88internal20LTemplateInstructionILi0ELi3ELi1EED0Ev @4625
    _ZN2v88internal20LTemplateInstructionILi0ELi3ELi1EED1Ev @4626
    _ZN2v88internal20LTemplateInstructionILi0ELi4ELi0EE10InputCountEv @4627
    _ZN2v88internal20LTemplateInstructionILi0ELi4ELi0EE11PrintDataToEPNS0_12StringStreamE @4628
    _ZN2v88internal20LTemplateInstructionILi0ELi4ELi0EE20PrintOutputOperandToEPNS0_12StringStreamE @4629
    _ZN2v88internal20LTemplateInstructionILi0ELi4ELi0EE6TempAtEi @4630
    _ZN2v88internal20LTemplateInstructionILi0ELi4ELi0EE6resultEv @4631
    _ZN2v88internal20LTemplateInstructionILi0ELi4ELi0EE7InputAtEi @4632
    _ZN2v88internal20LTemplateInstructionILi0ELi4ELi0EE9TempCountEv @4633
    _ZN2v88internal20LTemplateInstructionILi0ELi4ELi0EED0Ev @4634
    _ZN2v88internal20LTemplateInstructionILi0ELi4ELi0EED1Ev @4635
    _ZN2v88internal20LTemplateInstructionILi1ELi0ELi0EE10InputCountEv @4636
    _ZN2v88internal20LTemplateInstructionILi1ELi0ELi0EE11PrintDataToEPNS0_12StringStreamE @4637
    _ZN2v88internal20LTemplateInstructionILi1ELi0ELi0EE20PrintOutputOperandToEPNS0_12StringStreamE @4638
    _ZN2v88internal20LTemplateInstructionILi1ELi0ELi0EE6TempAtEi @4639
    _ZN2v88internal20LTemplateInstructionILi1ELi0ELi0EE6resultEv @4640
    _ZN2v88internal20LTemplateInstructionILi1ELi0ELi0EE7InputAtEi @4641
    _ZN2v88internal20LTemplateInstructionILi1ELi0ELi0EE9TempCountEv @4642
    _ZN2v88internal20LTemplateInstructionILi1ELi0ELi0EED0Ev @4643
    _ZN2v88internal20LTemplateInstructionILi1ELi0ELi0EED1Ev @4644
    _ZN2v88internal20LTemplateInstructionILi1ELi0ELi1EE10InputCountEv @4645
    _ZN2v88internal20LTemplateInstructionILi1ELi0ELi1EE11PrintDataToEPNS0_12StringStreamE @4646
    _ZN2v88internal20LTemplateInstructionILi1ELi0ELi1EE20PrintOutputOperandToEPNS0_12StringStreamE @4647
    _ZN2v88internal20LTemplateInstructionILi1ELi0ELi1EE6TempAtEi @4648
    _ZN2v88internal20LTemplateInstructionILi1ELi0ELi1EE6resultEv @4649
    _ZN2v88internal20LTemplateInstructionILi1ELi0ELi1EE7InputAtEi @4650
    _ZN2v88internal20LTemplateInstructionILi1ELi0ELi1EE9TempCountEv @4651
    _ZN2v88internal20LTemplateInstructionILi1ELi0ELi1EED0Ev @4652
    _ZN2v88internal20LTemplateInstructionILi1ELi0ELi1EED1Ev @4653
    _ZN2v88internal20LTemplateInstructionILi1ELi1ELi0EE10InputCountEv @4654
    _ZN2v88internal20LTemplateInstructionILi1ELi1ELi0EE11PrintDataToEPNS0_12StringStreamE @4655
    _ZN2v88internal20LTemplateInstructionILi1ELi1ELi0EE20PrintOutputOperandToEPNS0_12StringStreamE @4656
    _ZN2v88internal20LTemplateInstructionILi1ELi1ELi0EE6TempAtEi @4657
    _ZN2v88internal20LTemplateInstructionILi1ELi1ELi0EE6resultEv @4658
    _ZN2v88internal20LTemplateInstructionILi1ELi1ELi0EE7InputAtEi @4659
    _ZN2v88internal20LTemplateInstructionILi1ELi1ELi0EE9TempCountEv @4660
    _ZN2v88internal20LTemplateInstructionILi1ELi1ELi0EED0Ev @4661
    _ZN2v88internal20LTemplateInstructionILi1ELi1ELi0EED1Ev @4662
    _ZN2v88internal20LTemplateInstructionILi1ELi1ELi1EE10InputCountEv @4663
    _ZN2v88internal20LTemplateInstructionILi1ELi1ELi1EE11PrintDataToEPNS0_12StringStreamE @4664
    _ZN2v88internal20LTemplateInstructionILi1ELi1ELi1EE20PrintOutputOperandToEPNS0_12StringStreamE @4665
    _ZN2v88internal20LTemplateInstructionILi1ELi1ELi1EE6TempAtEi @4666
    _ZN2v88internal20LTemplateInstructionILi1ELi1ELi1EE6resultEv @4667
    _ZN2v88internal20LTemplateInstructionILi1ELi1ELi1EE7InputAtEi @4668
    _ZN2v88internal20LTemplateInstructionILi1ELi1ELi1EE9TempCountEv @4669
    _ZN2v88internal20LTemplateInstructionILi1ELi1ELi1EED0Ev @4670
    _ZN2v88internal20LTemplateInstructionILi1ELi1ELi1EED1Ev @4671
    _ZN2v88internal20LTemplateInstructionILi1ELi2ELi0EE10InputCountEv @4672
    _ZN2v88internal20LTemplateInstructionILi1ELi2ELi0EE11PrintDataToEPNS0_12StringStreamE @4673
    _ZN2v88internal20LTemplateInstructionILi1ELi2ELi0EE20PrintOutputOperandToEPNS0_12StringStreamE @4674
    _ZN2v88internal20LTemplateInstructionILi1ELi2ELi0EE6TempAtEi @4675
    _ZN2v88internal20LTemplateInstructionILi1ELi2ELi0EE6resultEv @4676
    _ZN2v88internal20LTemplateInstructionILi1ELi2ELi0EE7InputAtEi @4677
    _ZN2v88internal20LTemplateInstructionILi1ELi2ELi0EE9TempCountEv @4678
    _ZN2v88internal20LTemplateInstructionILi1ELi2ELi0EED0Ev @4679
    _ZN2v88internal20LTemplateInstructionILi1ELi2ELi0EED1Ev @4680
    _ZN2v88internal20LTemplateInstructionILi1ELi2ELi1EE10InputCountEv @4681
    _ZN2v88internal20LTemplateInstructionILi1ELi2ELi1EE11PrintDataToEPNS0_12StringStreamE @4682
    _ZN2v88internal20LTemplateInstructionILi1ELi2ELi1EE20PrintOutputOperandToEPNS0_12StringStreamE @4683
    _ZN2v88internal20LTemplateInstructionILi1ELi2ELi1EE6TempAtEi @4684
    _ZN2v88internal20LTemplateInstructionILi1ELi2ELi1EE6resultEv @4685
    _ZN2v88internal20LTemplateInstructionILi1ELi2ELi1EE7InputAtEi @4686
    _ZN2v88internal20LTemplateInstructionILi1ELi2ELi1EE9TempCountEv @4687
    _ZN2v88internal20LTemplateInstructionILi1ELi2ELi1EED0Ev @4688
    _ZN2v88internal20LTemplateInstructionILi1ELi2ELi1EED1Ev @4689
    _ZN2v88internal20LTemplateInstructionILi1ELi3ELi0EE10InputCountEv @4690
    _ZN2v88internal20LTemplateInstructionILi1ELi3ELi0EE11PrintDataToEPNS0_12StringStreamE @4691
    _ZN2v88internal20LTemplateInstructionILi1ELi3ELi0EE20PrintOutputOperandToEPNS0_12StringStreamE @4692
    _ZN2v88internal20LTemplateInstructionILi1ELi3ELi0EE6TempAtEi @4693
    _ZN2v88internal20LTemplateInstructionILi1ELi3ELi0EE6resultEv @4694
    _ZN2v88internal20LTemplateInstructionILi1ELi3ELi0EE7InputAtEi @4695
    _ZN2v88internal20LTemplateInstructionILi1ELi3ELi0EE9TempCountEv @4696
    _ZN2v88internal20LTemplateInstructionILi1ELi3ELi0EED0Ev @4697
    _ZN2v88internal20LTemplateInstructionILi1ELi3ELi0EED1Ev @4698
    _ZN2v88internal20LTemplateInstructionILi1ELi4ELi1EE10InputCountEv @4699
    _ZN2v88internal20LTemplateInstructionILi1ELi4ELi1EE11PrintDataToEPNS0_12StringStreamE @4700
    _ZN2v88internal20LTemplateInstructionILi1ELi4ELi1EE20PrintOutputOperandToEPNS0_12StringStreamE @4701
    _ZN2v88internal20LTemplateInstructionILi1ELi4ELi1EE6TempAtEi @4702
    _ZN2v88internal20LTemplateInstructionILi1ELi4ELi1EE6resultEv @4703
    _ZN2v88internal20LTemplateInstructionILi1ELi4ELi1EE7InputAtEi @4704
    _ZN2v88internal20LTemplateInstructionILi1ELi4ELi1EE9TempCountEv @4705
    _ZN2v88internal20LTemplateInstructionILi1ELi4ELi1EED0Ev @4706
    _ZN2v88internal20LTemplateInstructionILi1ELi4ELi1EED1Ev @4707
    _ZN2v88internal20LoadCallbackPropertyENS0_9ArgumentsE @4708
    _ZN2v88internal20MarkCompactCollector10InitializeEv @4709
    _ZN2v88internal20MarkCompactCollector11SweepSpacesEv @4710
    _ZN2v88internal20MarkCompactCollector14CollectGarbageEv @4711
    _ZN2v88internal20MarkCompactCollector14UpdatePointersEv @4712
    _ZN2v88internal20MarkCompactCollector15MarkLiveObjectsEv @4713
    _ZN2v88internal20MarkCompactCollector15MarkMapContentsEPNS0_3MapE @4714
    _ZN2v88internal20MarkCompactCollector15MarkSymbolTableEv @4715
    _ZN2v88internal20MarkCompactCollector15RelocateObjectsEv @4716
    _ZN2v88internal20MarkCompactCollector16MarkObjectGroupsEv @4717
    _ZN2v88internal20MarkCompactCollector17EmptyMarkingStackEv @4718
    _ZN2v88internal20MarkCompactCollector17RelocateMapObjectEPNS0_10HeapObjectE @4719
    _ZN2v88internal20MarkCompactCollector17RelocateNewObjectEPNS0_10HeapObjectE @4720
    _ZN2v88internal20MarkCompactCollector17force_compaction_E @4721 DATA
    _ZN2v88internal20MarkCompactCollector18CreateBackPointersEv @4722
    _ZN2v88internal20MarkCompactCollector18IterateLiveObjectsEPNS0_10PagedSpaceEPFiPNS0_10HeapObjectEE @4723
    _ZN2v88internal20MarkCompactCollector18IterateLiveObjectsEPNS0_8NewSpaceEPFiPNS0_10HeapObjectEE @4724
    _ZN2v88internal20MarkCompactCollector18MarkUnmarkedObjectEPNS0_10HeapObjectE @4725
    _ZN2v88internal20MarkCompactCollector18RefillMarkingStackEv @4726
    _ZN2v88internal20MarkCompactCollector18RelocateCellObjectEPNS0_10HeapObjectE @4727
    _ZN2v88internal20MarkCompactCollector18RelocateCodeObjectEPNS0_10HeapObjectE @4728
    _ZN2v88internal20MarkCompactCollector18SizeOfMarkedObjectEPNS0_10HeapObjectE @4729
    _ZN2v88internal20MarkCompactCollector19MarkDescriptorArrayEPNS0_15DescriptorArrayE @4730
    _ZN2v88internal20MarkCompactCollector19ProcessMarkingStackEv @4731
    _ZN2v88internal20MarkCompactCollector19ProcessObjectGroupsEv @4732
    _ZN2v88internal20MarkCompactCollector19compact_on_next_gc_E @4733 DATA
    _ZN2v88internal20MarkCompactCollector20IsUnmarkedHeapObjectEPPNS0_6ObjectE @4734
    _ZN2v88internal20MarkCompactCollector20ReportDeleteIfNeededEPNS0_10HeapObjectE @4735
    _ZN2v88internal20MarkCompactCollector21RelocateOldDataObjectEPNS0_10HeapObjectE @4736
    _ZN2v88internal20MarkCompactCollector21SweepLargeObjectSpaceEv @4737
    _ZN2v88internal20MarkCompactCollector22PrepareForCodeFlushingEv @4738
    _ZN2v88internal20MarkCompactCollector22compacting_collection_E @4739 DATA
    _ZN2v88internal20MarkCompactCollector22previous_marked_count_E @4740 DATA
    _ZN2v88internal20MarkCompactCollector23ClearNonLiveTransitionsEv @4741
    _ZN2v88internal20MarkCompactCollector24RelocateOldPointerObjectEPNS0_10HeapObjectE @4742
    _ZN2v88internal20MarkCompactCollector25EncodeForwardingAddressesEv @4743
    _ZN2v88internal20MarkCompactCollector25IterateLiveObjectsInRangeEPhS2_PFiPNS0_10HeapObjectEE @4744
    _ZN2v88internal20MarkCompactCollector25UpdatePointersInNewObjectEPNS0_10HeapObjectE @4745
    _ZN2v88internal20MarkCompactCollector25UpdatePointersInOldObjectEPNS0_10HeapObjectE @4746
    _ZN2v88internal20MarkCompactCollector30GetForwardingAddressInOldSpaceEPNS0_10HeapObjectE @4747
    _ZN2v88internal20MarkCompactCollector35EncodeForwardingAddressesInNewSpaceEv @4748
    _ZN2v88internal20MarkCompactCollector37EncodeForwardingAddressesInPagedSpaceIXadL_ZNS0_22MCAllocateFromMapSpaceEPNS0_10HeapObjectEiEEXadL_ZNS0_19IgnoreNonLiveObjectES4_EEEEvPNS0_10PagedSpaceE @4749
    _ZN2v88internal20MarkCompactCollector37EncodeForwardingAddressesInPagedSpaceIXadL_ZNS0_23MCAllocateFromCellSpaceEPNS0_10HeapObjectEiEEXadL_ZNS0_19IgnoreNonLiveObjectES4_EEEEvPNS0_10PagedSpaceE @4750
    _ZN2v88internal20MarkCompactCollector37EncodeForwardingAddressesInPagedSpaceIXadL_ZNS0_23MCAllocateFromCodeSpaceEPNS0_10HeapObjectEiEEXadL_ZNS1_20ReportDeleteIfNeededES4_EEEEvPNS0_10PagedSpaceE @4751
    _ZN2v88internal20MarkCompactCollector37EncodeForwardingAddressesInPagedSpaceIXadL_ZNS0_26MCAllocateFromOldDataSpaceEPNS0_10HeapObjectEiEEXadL_ZNS0_19IgnoreNonLiveObjectES4_EEEEvPNS0_10PagedSpaceE @4752
    _ZN2v88internal20MarkCompactCollector37EncodeForwardingAddressesInPagedSpaceIXadL_ZNS0_29MCAllocateFromOldPointerSpaceEPNS0_10HeapObjectEiEEXadL_ZNS1_20ReportDeleteIfNeededES4_EEEEvPNS0_10PagedSpaceE @4753
    _ZN2v88internal20MarkCompactCollector6FinishEv @4754
    _ZN2v88internal20MarkCompactCollector7PrepareEPNS0_8GCTracerE @4755
    _ZN2v88internal20MarkCompactCollector7tracer_E @4756 DATA
    _ZN2v88internal20MarkCompactCollector9MarkRootsEPNS0_18RootMarkingVisitorE @4757
    _ZN2v88internal20NopRuntimeCallHelperD0Ev @4758
    _ZN2v88internal20NopRuntimeCallHelperD1Ev @4759
    _ZN2v88internal20RegExpCharacterClass11is_standardEv @4760
    _ZN2v88internal20RegExpCharacterClass12AppendToTextEPNS0_10RegExpTextE @4761
    _ZN2v88internal20RegExpCharacterClass13IsTextElementEv @4762
    _ZN2v88internal20RegExpCharacterClass16AsCharacterClassEv @4763
    _ZN2v88internal20RegExpCharacterClass16IsCharacterClassEv @4764
    _ZN2v88internal20RegExpCharacterClass6AcceptEPNS0_13RegExpVisitorEPv @4765
    _ZN2v88internal20RegExpCharacterClass6ToNodeEPNS0_14RegExpCompilerEPNS0_10RegExpNodeE @4766
    _ZN2v88internal20RegExpCharacterClass9max_matchEv @4767
    _ZN2v88internal20RegExpCharacterClass9min_matchEv @4768
    _ZN2v88internal20RegExpCharacterClassD0Ev @4769
    _ZN2v88internal20RegExpCharacterClassD1Ev @4770
    _ZN2v88internal20RegExpMacroAssembler13CheckPositionEiPNS0_5LabelE @4771
    _ZN2v88internal20RegExpMacroAssembler16CanReadUnalignedEv @4772
    _ZN2v88internal20RegExpMacroAssembler26CheckSpecialCharacterClassEtPNS0_5LabelE @4773
    _ZN2v88internal20RegExpMacroAssemblerC1Ev @4774
    _ZN2v88internal20RegExpMacroAssemblerC2Ev @4775
    _ZN2v88internal20RegExpMacroAssemblerD0Ev @4776
    _ZN2v88internal20RegExpMacroAssemblerD1Ev @4777
    _ZN2v88internal20RegExpMacroAssemblerD2Ev @4778
    _ZN2v88internal20SampleRateCalculator18UpdateMeasurementsEd @4779
    _ZN2v88internal20SampleRateCalculator4TickEv @4780
    _ZN2v88internal20SetPrototypePropertyENS0_6HandleINS0_10JSFunctionEEENS1_INS0_8JSObjectEEE @4781
    _ZN2v88internal20SimpleStringResourceIcNS_6String27ExternalAsciiStringResourceEED0Ev @4782
    _ZN2v88internal20SimpleStringResourceIcNS_6String27ExternalAsciiStringResourceEED1Ev @4783
    _ZN2v88internal20SimpleStringResourceItNS_6String22ExternalStringResourceEED0Ev @4784
    _ZN2v88internal20SimpleStringResourceItNS_6String22ExternalStringResourceEED1Ev @4785
    _ZN2v88internal20StaticMarkingVisitor15VisitJSFunctionEPNS0_3MapEPNS0_10HeapObjectE @4786
    _ZN2v88internal20StaticMarkingVisitor17DataObjectVisitor16VisitSpecializedILi12EEEvPNS0_3MapEPNS0_10HeapObjectE @4787
    _ZN2v88internal20StaticMarkingVisitor17DataObjectVisitor16VisitSpecializedILi16EEEvPNS0_3MapEPNS0_10HeapObjectE @4788
    _ZN2v88internal20StaticMarkingVisitor17DataObjectVisitor16VisitSpecializedILi20EEEvPNS0_3MapEPNS0_10HeapObjectE @4789
    _ZN2v88internal20StaticMarkingVisitor17DataObjectVisitor16VisitSpecializedILi24EEEvPNS0_3MapEPNS0_10HeapObjectE @4790
    _ZN2v88internal20StaticMarkingVisitor17DataObjectVisitor16VisitSpecializedILi28EEEvPNS0_3MapEPNS0_10HeapObjectE @4791
    _ZN2v88internal20StaticMarkingVisitor17DataObjectVisitor16VisitSpecializedILi32EEEvPNS0_3MapEPNS0_10HeapObjectE @4792
    _ZN2v88internal20StaticMarkingVisitor17DataObjectVisitor16VisitSpecializedILi36EEEvPNS0_3MapEPNS0_10HeapObjectE @4793
    _ZN2v88internal20StaticMarkingVisitor17DataObjectVisitor16VisitSpecializedILi8EEEvPNS0_3MapEPNS0_10HeapObjectE @4794
    _ZN2v88internal20StaticMarkingVisitor17DataObjectVisitor5VisitEPNS0_3MapEPNS0_10HeapObjectE @4795
    _ZN2v88internal20StaticMarkingVisitor27VisitJSFunctionAndFlushCodeEPNS0_3MapEPNS0_10HeapObjectE @4796
    _ZN2v88internal20StaticMarkingVisitor30VisitSharedFunctionInfoGenericEPNS0_3MapEPNS0_10HeapObjectE @4797
    _ZN2v88internal20StaticMarkingVisitor35VisitSharedFunctionInfoAndFlushCodeEPNS0_3MapEPNS0_10HeapObjectE @4798
    _ZN2v88internal20StaticMarkingVisitor6table_E @4799 DATA
    _ZN2v88internal20StaticMarkingVisitor9VisitCodeEPNS0_3MapEPNS0_10HeapObjectE @4800
    _ZN2v88internal21ArgumentsAdaptorFrameD0Ev @4801
    _ZN2v88internal21ArgumentsAdaptorFrameD1Ev @4802
    _ZN2v88internal21BreakLocationIterator10SetOneShotEv @4803
    _ZN2v88internal21BreakLocationIterator12ClearOneShotEv @4804
    _ZN2v88internal21BreakLocationIterator12IsDebugBreakEv @4805
    _ZN2v88internal21BreakLocationIterator13HasBreakPointEv @4806
    _ZN2v88internal21BreakLocationIterator13PrepareStepInEv @4807
    _ZN2v88internal21BreakLocationIterator13SetBreakPointENS0_6HandleINS0_6ObjectEEE @4808
    _ZN2v88internal21BreakLocationIterator13SetDebugBreakEv @4809
    _ZN2v88internal21BreakLocationIterator15ClearBreakPointENS0_6HandleINS0_6ObjectEEE @4810
    _ZN2v88internal21BreakLocationIterator15ClearDebugBreakEv @4811
    _ZN2v88internal21BreakLocationIterator16IsDebugBreakSlotEv @4812
    _ZN2v88internal21BreakLocationIterator17BreakPointObjectsEv @4813
    _ZN2v88internal21BreakLocationIterator17SetDebugBreakAtICEv @4814
    _ZN2v88internal21BreakLocationIterator18ClearAllDebugBreakEv @4815
    _ZN2v88internal21BreakLocationIterator18IsDebugBreakAtSlotEv @4816
    _ZN2v88internal21BreakLocationIterator19ClearDebugBreakAtICEv @4817
    _ZN2v88internal21BreakLocationIterator19IsDebuggerStatementEv @4818
    _ZN2v88internal21BreakLocationIterator19SetDebugBreakAtSlotEv @4819
    _ZN2v88internal21BreakLocationIterator20IsDebugBreakAtReturnEv @4820
    _ZN2v88internal21BreakLocationIterator21ClearDebugBreakAtSlotEv @4821
    _ZN2v88internal21BreakLocationIterator21SetDebugBreakAtReturnEv @4822
    _ZN2v88internal21BreakLocationIterator23ClearDebugBreakAtReturnEv @4823
    _ZN2v88internal21BreakLocationIterator28FindBreakLocationFromAddressEPh @4824
    _ZN2v88internal21BreakLocationIterator29FindBreakLocationFromPositionEi @4825
    _ZN2v88internal21BreakLocationIterator4NextEi @4826
    _ZN2v88internal21BreakLocationIterator4NextEv @4827
    _ZN2v88internal21BreakLocationIterator5ResetEv @4828
    _ZN2v88internal21BreakLocationIterator9RinfoNextEv @4829
    _ZN2v88internal21BreakLocationIteratorC1ENS0_6HandleINS0_9DebugInfoEEENS0_16BreakLocatorTypeE @4830
    _ZN2v88internal21BreakLocationIteratorC2ENS0_6HandleINS0_9DebugInfoEEENS0_16BreakLocatorTypeE @4831
    _ZN2v88internal21BreakLocationIteratorD0Ev @4832
    _ZN2v88internal21BreakLocationIteratorD1Ev @4833
    _ZN2v88internal21BreakLocationIteratorD2Ev @4834
    _ZN2v88internal21CodeCacheHashTableKey13HashForObjectEPNS0_6ObjectE @4835
    _ZN2v88internal21CodeCacheHashTableKey4HashEv @4836
    _ZN2v88internal21CodeCacheHashTableKey7IsMatchEPNS0_6ObjectE @4837
    _ZN2v88internal21CodeCacheHashTableKey8AsObjectEv @4838
    _ZN2v88internal21CodeCacheHashTableKeyD0Ev @4839
    _ZN2v88internal21CodeCacheHashTableKeyD1Ev @4840
    _ZN2v88internal21CompareConversionUsesEPNS0_6HValueES2_NS0_14RepresentationES3_ @4841
    _ZN2v88internal21CompilationCacheTable10LookupEvalEPNS0_6StringEPNS0_7ContextENS0_14StrictModeFlagE @4842
    _ZN2v88internal21CompilationCacheTable12LookupRegExpEPNS0_6StringENS0_8JSRegExp5FlagsE @4843
    _ZN2v88internal21CompilationCacheTable3PutEPNS0_6StringEPNS0_6ObjectE @4844
    _ZN2v88internal21CompilationCacheTable6LookupEPNS0_6StringE @4845
    _ZN2v88internal21CompilationCacheTable6RemoveEPNS0_6ObjectE @4846
    _ZN2v88internal21CompilationCacheTable7PutEvalEPNS0_6StringEPNS0_7ContextEPNS0_18SharedFunctionInfoE @4847
    _ZN2v88internal21CompilationCacheTable9PutRegExpEPNS0_6StringENS0_8JSRegExp5FlagsEPNS0_10FixedArrayE @4848
    _ZN2v88internal21ConstructStubCompiler20CompileConstructStubEPNS0_10JSFunctionE @4849
    _ZN2v88internal21ConstructStubCompiler7GetCodeEv @4850
    _ZN2v88internal21CpuProfilesCollection10GetProfileEij @4851
    _ZN2v88internal21CpuProfilesCollection12NewCodeEntryENS0_6Logger16LogEventsAndTagsEPKc @4852
    _ZN2v88internal21CpuProfilesCollection12NewCodeEntryENS0_6Logger16LogEventsAndTagsEPKcPNS0_6StringE @4853
    _ZN2v88internal21CpuProfilesCollection12NewCodeEntryENS0_6Logger16LogEventsAndTagsEPNS0_6StringES5_i @4854
    _ZN2v88internal21CpuProfilesCollection12NewCodeEntryENS0_6Logger16LogEventsAndTagsEi @4855
    _ZN2v88internal21CpuProfilesCollection12TokenToIndexEi @4856
    _ZN2v88internal21CpuProfilesCollection13IsLastProfileEPKc @4857
    _ZN2v88internal21CpuProfilesCollection13StopProfilingEiPKcd @4858
    _ZN2v88internal21CpuProfilesCollection14StartProfilingEPKcj @4859
    _ZN2v88internal21CpuProfilesCollection14StartProfilingEPNS0_6StringEj @4860
    _ZN2v88internal21CpuProfilesCollection15GetProfilesListEi @4861
    _ZN2v88internal21CpuProfilesCollection24AddPathToCurrentProfilesERKNS0_6VectorIPNS0_9CodeEntryEEE @4862
    _ZN2v88internal21CpuProfilesCollection8ProfilesEi @4863
    _ZN2v88internal21CpuProfilesCollection9UidsMatchEPvS2_ @4864
    _ZN2v88internal21CpuProfilesCollectionC1Ev @4865
    _ZN2v88internal21CpuProfilesCollectionC2Ev @4866
    _ZN2v88internal21CpuProfilesCollectionD1Ev @4867
    _ZN2v88internal21CpuProfilesCollectionD2Ev @4868
    _ZN2v88internal21CreateMemCopyFunctionEv @4869
    _ZN2v88internal21DeferredRegExpLiteral8GenerateEv @4870
    _ZN2v88internal21DeferredRegExpLiteralD0Ev @4871
    _ZN2v88internal21DeferredRegExpLiteralD1Ev @4872
    _ZN2v88internal21DescriptorLookupCache5ClearEv @4873
    _ZN2v88internal21DescriptorLookupCache5keys_E @4874 DATA
    _ZN2v88internal21DescriptorLookupCache8results_E @4875 DATA
    _ZN2v88internal21ExternalTwoByteString24ExternalTwoByteStringGetEi @4876
    _ZN2v88internal21ExternalTwoByteString28ExternalTwoByteStringGetDataEj @4877
    _ZN2v88internal21ExternalTwoByteString40ExternalTwoByteStringReadBlockIntoBufferEPNS0_6String15ReadBlockBufferEPjj @4878
    _ZN2v88internal21FLAG_remote_debuggingE @4879 DATA
    _ZN2v88internal21FLAG_testing_int_flagE @4880 DATA
    _ZN2v88internal21FLAG_trace_debug_jsonE @4881 DATA
    _ZN2v88internal21FLAG_trace_gc_verboseE @4882 DATA
    _ZN2v88internal21HCallConstantFunction11PrintDataToEPNS0_12StringStreamE @4883
    _ZN2v88internal21HCallConstantFunction16CompileToLithiumEPNS0_13LChunkBuilderE @4884
    _ZN2v88internal21HCallConstantFunctionD0Ev @4885
    _ZN2v88internal21HCallConstantFunctionD1Ev @4886
    _ZN2v88internal21HLoadKeyedFastElement10DataEqualsEPNS0_6HValueE @4887
    _ZN2v88internal21HLoadKeyedFastElement11PrintDataToEPNS0_12StringStreamE @4888
    _ZN2v88internal21HLoadKeyedFastElement16CompileToLithiumEPNS0_13LChunkBuilderE @4889
    _ZN2v88internal21HLoadKeyedFastElementD0Ev @4890
    _ZN2v88internal21HLoadKeyedFastElementD1Ev @4891
    _ZN2v88internal21HStackCheckEliminator16RemoveStackCheckEPNS0_11HBasicBlockE @4892
    _ZN2v88internal21HStackCheckEliminator7ProcessEv @4893
    _ZN2v88internal21HeapSnapshotGenerator12ProgressStepEv @4894
    _ZN2v88internal21HeapSnapshotGenerator14FillReferencesEv @4895
    _ZN2v88internal21HeapSnapshotGenerator14ProgressReportEb @4896
    _ZN2v88internal21HeapSnapshotGenerator16GenerateSnapshotEv @4897
    _ZN2v88internal21HeapSnapshotGenerator16SetProgressTotalEi @4898
    _ZN2v88internal21HeapSnapshotGenerator18BuildDominatorTreeERKNS0_6VectorIPNS0_9HeapEntryEEEPS5_ @4899
    _ZN2v88internal21HeapSnapshotGenerator20SetEntriesDominatorsEv @4900
    _ZN2v88internal21HeapSnapshotGenerator24ApproximateRetainedSizesEv @4901
    _ZN2v88internal21HeapSnapshotGenerator25CountEntriesAndReferencesEv @4902
    _ZN2v88internal21HeapSnapshotGenerator27FillReversePostorderIndexesEPNS0_6VectorIPNS0_9HeapEntryEEE @4903
    _ZN2v88internal21HeapSnapshotGeneratorC1EPNS0_12HeapSnapshotEPNS_15ActivityControlE @4904
    _ZN2v88internal21HeapSnapshotGeneratorC2EPNS0_12HeapSnapshotEPNS_15ActivityControlE @4905
    _ZN2v88internal21HeapSnapshotGeneratorD0Ev @4906
    _ZN2v88internal21HeapSnapshotGeneratorD1Ev @4907
    _ZN2v88internal21KeyedLoadStubCompiler16CompileLoadFieldEPNS0_6StringEPNS0_8JSObjectES5_i @4908
    _ZN2v88internal21KeyedLoadStubCompiler19CompileLoadCallbackEPNS0_6StringEPNS0_8JSObjectES5_PNS0_12AccessorInfoE @4909
    _ZN2v88internal21KeyedLoadStubCompiler19CompileLoadConstantEPNS0_6StringEPNS0_8JSObjectES5_PNS0_6ObjectE @4910
    _ZN2v88internal21KeyedLoadStubCompiler21CompileLoadPixelArrayEPNS0_8JSObjectE @4911
    _ZN2v88internal21KeyedLoadStubCompiler22CompileLoadArrayLengthEPNS0_6StringE @4912
    _ZN2v88internal21KeyedLoadStubCompiler22CompileLoadInterceptorEPNS0_8JSObjectES3_PNS0_6StringE @4913
    _ZN2v88internal21KeyedLoadStubCompiler22CompileLoadSpecializedEPNS0_8JSObjectE @4914
    _ZN2v88internal21KeyedLoadStubCompiler23CompileLoadStringLengthEPNS0_6StringE @4915
    _ZN2v88internal21KeyedLoadStubCompiler28CompileLoadFunctionPrototypeEPNS0_6StringE @4916
    _ZN2v88internal21KeyedLoadStubCompiler7GetCodeENS0_12PropertyTypeEPNS0_6StringE @4917
    _ZN2v88internal21LCallConstantFunction11PrintDataToEPNS0_12StringStreamE @4918
    _ZN2v88internal21LCallConstantFunction15CompileToNativeEPNS0_8LCodeGenE @4919
    _ZN2v88internal21LCallConstantFunctionD0Ev @4920
    _ZN2v88internal21LCallConstantFunctionD1Ev @4921
    _ZN2v88internal21LClassOfTestAndBranch11PrintDataToEPNS0_12StringStreamE @4922
    _ZN2v88internal21LClassOfTestAndBranch15CompileToNativeEPNS0_8LCodeGenE @4923
    _ZN2v88internal21LClassOfTestAndBranchD0Ev @4924
    _ZN2v88internal21LClassOfTestAndBranchD1Ev @4925
    _ZN2v88internal21LLoadKeyedFastElement15CompileToNativeEPNS0_8LCodeGenE @4926
    _ZN2v88internal21LLoadKeyedFastElementD0Ev @4927
    _ZN2v88internal21LLoadKeyedFastElementD1Ev @4928
    _ZN2v88internal21LineArrayCompareInput10getLength1Ev @4929
    _ZN2v88internal21LineArrayCompareInput10getLength2Ev @4930
    _ZN2v88internal21LineArrayCompareInput6equalsEii @4931
    _ZN2v88internal21LineArrayCompareInputD0Ev @4932
    _ZN2v88internal21LineArrayCompareInputD1Ev @4933
    _ZN2v88internal21PartialParserRecorder10symbol_idsEv @4934
    _ZN2v88internal21PartialParserRecorder11ExtractDataEv @4935
    _ZN2v88internal21PartialParserRecorder13LogUC16SymbolEiNS0_6VectorIKtEE @4936
    _ZN2v88internal21PartialParserRecorder14LogAsciiSymbolEiNS0_6VectorIKcEE @4937
    _ZN2v88internal21PartialParserRecorder15symbol_positionEv @4938
    _ZN2v88internal21PartialParserRecorderD0Ev @4939
    _ZN2v88internal21PartialParserRecorderD1Ev @4940
    _ZN2v88internal21PosixMemoryMappedFile4sizeEv @4941
    _ZN2v88internal21PosixMemoryMappedFile6memoryEv @4942
    _ZN2v88internal21PosixMemoryMappedFileD0Ev @4943
    _ZN2v88internal21PosixMemoryMappedFileD1Ev @4944
    _ZN2v88internal21PosixMemoryMappedFileD2Ev @4945
    _ZN2v88internal21SafeStringInputBuffer4SeekEj @4946
    _ZN2v88internal21SafeStringInputBufferD0Ev @4947
    _ZN2v88internal21SafeStringInputBufferD1Ev @4948
    _ZN2v88internal21SafepointTableBuilder14EncodeExceptPCERKNS1_18DeoptimizationInfoE @4949
    _ZN2v88internal21SafepointTableBuilder15DefineSafepointEPNS0_9AssemblerENS0_9Safepoint4KindEii @4950
    _ZN2v88internal21SafepointTableBuilder33CountShortDeoptimizationIntervalsEj @4951
    _ZN2v88internal21SafepointTableBuilder4EmitEPNS0_9AssemblerEi @4952
    _ZN2v88internal21SamplingCircularQueue12StartDequeueEv @4953
    _ZN2v88internal21SamplingCircularQueue13FinishDequeueEv @4954
    _ZN2v88internal21SamplingCircularQueue20FlushResidualRecordsEv @4955
    _ZN2v88internal21SamplingCircularQueueC1Eiii @4956
    _ZN2v88internal21SamplingCircularQueueC2Eiii @4957
    _ZN2v88internal21SamplingCircularQueueD1Ev @4958
    _ZN2v88internal21SamplingCircularQueueD2Ev @4959
    _ZN2v88internal21SetNormalizedPropertyENS0_6HandleINS0_8JSObjectEEENS1_INS0_6StringEEENS1_INS0_6ObjectEEENS0_15PropertyDetailsE @4960
    _ZN2v88internal21StaticNewSpaceVisitorINS0_17NewSpaceScavengerEE13VisitPointersEPPNS0_6ObjectES6_ @4961
    _ZN2v88internal21StaticNewSpaceVisitorINS0_17NewSpaceScavengerEE14VisitByteArrayEPNS0_3MapEPNS0_10HeapObjectE @4962
    _ZN2v88internal21StaticNewSpaceVisitorINS0_17NewSpaceScavengerEE17DataObjectVisitor16VisitSpecializedILi12EEEiPNS0_3MapEPNS0_10HeapObjectE @4963
    _ZN2v88internal21StaticNewSpaceVisitorINS0_17NewSpaceScavengerEE17DataObjectVisitor16VisitSpecializedILi16EEEiPNS0_3MapEPNS0_10HeapObjectE @4964
    _ZN2v88internal21StaticNewSpaceVisitorINS0_17NewSpaceScavengerEE17DataObjectVisitor16VisitSpecializedILi20EEEiPNS0_3MapEPNS0_10HeapObjectE @4965
    _ZN2v88internal21StaticNewSpaceVisitorINS0_17NewSpaceScavengerEE17DataObjectVisitor16VisitSpecializedILi24EEEiPNS0_3MapEPNS0_10HeapObjectE @4966
    _ZN2v88internal21StaticNewSpaceVisitorINS0_17NewSpaceScavengerEE17DataObjectVisitor16VisitSpecializedILi28EEEiPNS0_3MapEPNS0_10HeapObjectE @4967
    _ZN2v88internal21StaticNewSpaceVisitorINS0_17NewSpaceScavengerEE17DataObjectVisitor16VisitSpecializedILi32EEEiPNS0_3MapEPNS0_10HeapObjectE @4968
    _ZN2v88internal21StaticNewSpaceVisitorINS0_17NewSpaceScavengerEE17DataObjectVisitor16VisitSpecializedILi36EEEiPNS0_3MapEPNS0_10HeapObjectE @4969
    _ZN2v88internal21StaticNewSpaceVisitorINS0_17NewSpaceScavengerEE17DataObjectVisitor16VisitSpecializedILi8EEEiPNS0_3MapEPNS0_10HeapObjectE @4970
    _ZN2v88internal21StaticNewSpaceVisitorINS0_17NewSpaceScavengerEE17DataObjectVisitor5VisitEPNS0_3MapEPNS0_10HeapObjectE @4971
    _ZN2v88internal21StaticNewSpaceVisitorINS0_17NewSpaceScavengerEE19VisitSeqAsciiStringEPNS0_3MapEPNS0_10HeapObjectE @4972
    _ZN2v88internal21StaticNewSpaceVisitorINS0_17NewSpaceScavengerEE21VisitSeqTwoByteStringEPNS0_3MapEPNS0_10HeapObjectE @4973
    _ZN2v88internal21StaticNewSpaceVisitorINS0_17NewSpaceScavengerEE6table_E @4974 DATA
    _ZN2v88internal21StaticNewSpaceVisitorINS0_37StaticPointersToNewGenUpdatingVisitorEE14VisitByteArrayEPNS0_3MapEPNS0_10HeapObjectE @4975
    _ZN2v88internal21StaticNewSpaceVisitorINS0_37StaticPointersToNewGenUpdatingVisitorEE17DataObjectVisitor16VisitSpecializedILi12EEEiPNS0_3MapEPNS0_10HeapObjectE @4976
    _ZN2v88internal21StaticNewSpaceVisitorINS0_37StaticPointersToNewGenUpdatingVisitorEE17DataObjectVisitor16VisitSpecializedILi16EEEiPNS0_3MapEPNS0_10HeapObjectE @4977
    _ZN2v88internal21StaticNewSpaceVisitorINS0_37StaticPointersToNewGenUpdatingVisitorEE17DataObjectVisitor16VisitSpecializedILi20EEEiPNS0_3MapEPNS0_10HeapObjectE @4978
    _ZN2v88internal21StaticNewSpaceVisitorINS0_37StaticPointersToNewGenUpdatingVisitorEE17DataObjectVisitor16VisitSpecializedILi24EEEiPNS0_3MapEPNS0_10HeapObjectE @4979
    _ZN2v88internal21StaticNewSpaceVisitorINS0_37StaticPointersToNewGenUpdatingVisitorEE17DataObjectVisitor16VisitSpecializedILi28EEEiPNS0_3MapEPNS0_10HeapObjectE @4980
    _ZN2v88internal21StaticNewSpaceVisitorINS0_37StaticPointersToNewGenUpdatingVisitorEE17DataObjectVisitor16VisitSpecializedILi32EEEiPNS0_3MapEPNS0_10HeapObjectE @4981
    _ZN2v88internal21StaticNewSpaceVisitorINS0_37StaticPointersToNewGenUpdatingVisitorEE17DataObjectVisitor16VisitSpecializedILi36EEEiPNS0_3MapEPNS0_10HeapObjectE @4982
    _ZN2v88internal21StaticNewSpaceVisitorINS0_37StaticPointersToNewGenUpdatingVisitorEE17DataObjectVisitor16VisitSpecializedILi8EEEiPNS0_3MapEPNS0_10HeapObjectE @4983
    _ZN2v88internal21StaticNewSpaceVisitorINS0_37StaticPointersToNewGenUpdatingVisitorEE17DataObjectVisitor5VisitEPNS0_3MapEPNS0_10HeapObjectE @4984
    _ZN2v88internal21StaticNewSpaceVisitorINS0_37StaticPointersToNewGenUpdatingVisitorEE19VisitSeqAsciiStringEPNS0_3MapEPNS0_10HeapObjectE @4985
    _ZN2v88internal21StaticNewSpaceVisitorINS0_37StaticPointersToNewGenUpdatingVisitorEE21VisitSeqTwoByteStringEPNS0_3MapEPNS0_10HeapObjectE @4986
    _ZN2v88internal21StaticNewSpaceVisitorINS0_37StaticPointersToNewGenUpdatingVisitorEE6table_E @4987 DATA
    _ZN2v88internal21StoreCallbackPropertyENS0_9ArgumentsE @4988
    _ZN2v88internal21StringCharAtGenerator12GenerateFastEPNS0_14MacroAssemblerE @4989
    _ZN2v88internal21StringCharAtGenerator12GenerateSlowEPNS0_14MacroAssemblerERKNS0_17RuntimeCallHelperE @4990
    _ZN2v88internal21StubRuntimeCallHelperD0Ev @4991
    _ZN2v88internal21StubRuntimeCallHelperD1Ev @4992
    _ZN2v88internal21VariableProxySentinel11this_proxy_E @4993 DATA
    _ZN2v88internal21VariableProxySentinel17identifier_proxy_E @4994 DATA
    _ZN2v88internal21VariableProxySentinel19IsValidLeftHandSideEv @4995
    _ZN2v88internal21VariableProxySentinelD0Ev @4996
    _ZN2v88internal21VariableProxySentinelD1Ev @4997
    _ZN2v88internal22AggregatedHeapSnapshotC1Ev @4998
    _ZN2v88internal22AggregatedHeapSnapshotC2Ev @4999
    _ZN2v88internal22AggregatedHeapSnapshotD1Ev @5000
    _ZN2v88internal22AggregatedHeapSnapshotD2Ev @5001
    _ZN2v88internal22AssertNoZoneAllocation17allow_allocation_E @5002 DATA
    _ZN2v88internal22CharacterRangeSplitter4CallEtNS0_13DispatchTable5EntryE @5003
    _ZN2v88internal22CompilationCacheRegExp11TryTablePutENS0_6HandleINS0_6StringEEENS0_8JSRegExp5FlagsENS2_INS0_10FixedArrayEEE @5004
    _ZN2v88internal22CompilationCacheRegExp3PutENS0_6HandleINS0_6StringEEENS0_8JSRegExp5FlagsENS2_INS0_10FixedArrayEEE @5005
    _ZN2v88internal22CompilationCacheRegExp6LookupENS0_6HandleINS0_6StringEEENS0_8JSRegExp5FlagsE @5006
    _ZN2v88internal22CompilationCacheRegExp8TablePutENS0_6HandleINS0_6StringEEENS0_8JSRegExp5FlagsENS2_INS0_10FixedArrayEEE @5007
    _ZN2v88internal22CompilationCacheScript11TryTablePutENS0_6HandleINS0_6StringEEENS2_INS0_18SharedFunctionInfoEEE @5008
    _ZN2v88internal22CompilationCacheScript3PutENS0_6HandleINS0_6StringEEENS2_INS0_18SharedFunctionInfoEEE @5009
    _ZN2v88internal22CompilationCacheScript6LookupENS0_6HandleINS0_6StringEEENS2_INS0_6ObjectEEEii @5010
    _ZN2v88internal22CompilationCacheScript8TablePutENS0_6HandleINS0_6StringEEENS2_INS0_18SharedFunctionInfoEEE @5011
    _ZN2v88internal22CompilationCacheScript9HasOriginENS0_6HandleINS0_18SharedFunctionInfoEEENS2_INS0_6ObjectEEEii @5012
    _ZN2v88internal22CompleteParserRecorder10symbol_idsEv @5013
    _ZN2v88internal22CompleteParserRecorder11ExtractDataEv @5014
    _ZN2v88internal22CompleteParserRecorder11WriteNumberEi @5015
    _ZN2v88internal22CompleteParserRecorder13LogUC16SymbolEiNS0_6VectorIKtEE @5016
    _ZN2v88internal22CompleteParserRecorder14LogAsciiSymbolEiNS0_6VectorIKcEE @5017
    _ZN2v88internal22CompleteParserRecorder14vector_compareEPvS2_ @5018
    _ZN2v88internal22CompleteParserRecorder15symbol_positionEv @5019
    _ZN2v88internal22CompleteParserRecorder9LogSymbolEiibNS0_6VectorIKhEE @5020
    _ZN2v88internal22CompleteParserRecorderC1Ev @5021
    _ZN2v88internal22CompleteParserRecorderC2Ev @5022
    _ZN2v88internal22CompleteParserRecorderD0Ev @5023
    _ZN2v88internal22CompleteParserRecorderD1Ev @5024
    _ZN2v88internal22ConstructorHeapProfile10PrintStatsEv @5025
    _ZN2v88internal22ConstructorHeapProfile12CollectStatsEPNS0_10HeapObjectE @5026
    _ZN2v88internal22ConstructorHeapProfile4CallERKNS0_16JSObjectsClusterERKNS0_17NumberAndSizeInfoE @5027
    _ZN2v88internal22ConstructorHeapProfileC1Ev @5028
    _ZN2v88internal22ConstructorHeapProfileC2Ev @5029
    _ZN2v88internal22ConstructorHeapProfileD0Ev @5030
    _ZN2v88internal22ConstructorHeapProfileD1Ev @5031
    _ZN2v88internal22ExternalReferenceTable13PopulateTableEv @5032
    _ZN2v88internal22ExternalReferenceTable3AddEPhNS0_8TypeCodeEtPKc @5033
    _ZN2v88internal22ExternalReferenceTable9AddFromIdENS0_8TypeCodeEtPKc @5034
    _ZN2v88internal22ExternalReferenceTable9instance_E @5035 DATA
    _ZN2v88internal22FLAG_cleanup_ics_at_gcE @5036 DATA
    _ZN2v88internal22FLAG_compilation_cacheE @5037 DATA
    _ZN2v88internal22FLAG_emit_branch_hintsE @5038 DATA
    _ZN2v88internal22FLAG_expose_natives_asE @5039 DATA
    _ZN2v88internal22FLAG_optimize_closuresE @5040 DATA
    _ZN2v88internal22FLAG_prof_browser_modeE @5041 DATA
    _ZN2v88internal22FLAG_stack_trace_limitE @5042 DATA
    _ZN2v88internal22FLAG_testing_bool_flagE @5043 DATA
    _ZN2v88internal22FLAG_testing_prng_seedE @5044 DATA
    _ZN2v88internal22FLAG_use_big_map_spaceE @5045 DATA
    _ZN2v88internal22GetKeysInFixedArrayForENS0_6HandleINS0_8JSObjectEEENS0_17KeyCollectionTypeE @5046
    _ZN2v88internal22HInstanceOfKnownGlobal16CompileToLithiumEPNS0_13LChunkBuilderE @5047
    _ZN2v88internal22HInstanceOfKnownGlobalD0Ev @5048
    _ZN2v88internal22HInstanceOfKnownGlobalD1Ev @5049
    _ZN2v88internal22HLoadFunctionPrototype10DataEqualsEPNS0_6HValueE @5050
    _ZN2v88internal22HLoadFunctionPrototype16CompileToLithiumEPNS0_13LChunkBuilderE @5051
    _ZN2v88internal22HLoadFunctionPrototypeD0Ev @5052
    _ZN2v88internal22HLoadFunctionPrototypeD1Ev @5053
    _ZN2v88internal22HLoadPixelArrayElement10DataEqualsEPNS0_6HValueE @5054
    _ZN2v88internal22HLoadPixelArrayElement11PrintDataToEPNS0_12StringStreamE @5055
    _ZN2v88internal22HLoadPixelArrayElement16CompileToLithiumEPNS0_13LChunkBuilderE @5056
    _ZN2v88internal22HLoadPixelArrayElementD0Ev @5057
    _ZN2v88internal22HLoadPixelArrayElementD1Ev @5058
    _ZN2v88internal22HStoreKeyedFastElement11PrintDataToEPNS0_12StringStreamE @5059
    _ZN2v88internal22HStoreKeyedFastElement16CompileToLithiumEPNS0_13LChunkBuilderE @5060
    _ZN2v88internal22HStoreKeyedFastElementD0Ev @5061
    _ZN2v88internal22HStoreKeyedFastElementD1Ev @5062
    _ZN2v88internal22HandleScopeImplementer11IterateThisEPNS0_13ObjectVisitorE @5063
    _ZN2v88internal22HandleScopeImplementer13ArchiveThreadEPc @5064
    _ZN2v88internal22HandleScopeImplementer13RestoreThreadEPc @5065
    _ZN2v88internal22HandleScopeImplementer19ArchiveThreadHelperEPc @5066
    _ZN2v88internal22HandleScopeImplementer19FreeThreadResourcesEv @5067
    _ZN2v88internal22HandleScopeImplementer19RestoreThreadHelperEPc @5068
    _ZN2v88internal22HandleScopeImplementer21ArchiveSpacePerThreadEv @5069
    _ZN2v88internal22HandleScopeImplementer7IterateEPNS0_13ObjectVisitorE @5070
    _ZN2v88internal22HandleScopeImplementer7IterateEPNS0_13ObjectVisitorEPc @5071
    _ZN2v88internal22HandleScopeImplementer8instanceEv @5072
    _ZN2v88internal22KeyedStoreStubCompiler17CompileStoreFieldEPNS0_8JSObjectEiPNS0_3MapEPNS0_6StringE @5073
    _ZN2v88internal22KeyedStoreStubCompiler22CompileStorePixelArrayEPNS0_8JSObjectE @5074
    _ZN2v88internal22KeyedStoreStubCompiler23CompileStoreSpecializedEPNS0_8JSObjectE @5075
    _ZN2v88internal22KeyedStoreStubCompiler7GetCodeENS0_12PropertyTypeEPNS0_6StringE @5076
    _ZN2v88internal22LInstanceOfKnownGlobal15CompileToNativeEPNS0_8LCodeGenE @5077
    _ZN2v88internal22LInstanceOfKnownGlobalD0Ev @5078
    _ZN2v88internal22LInstanceOfKnownGlobalD1Ev @5079
    _ZN2v88internal22LLoadFunctionPrototype15CompileToNativeEPNS0_8LCodeGenE @5080
    _ZN2v88internal22LLoadFunctionPrototypeD0Ev @5081
    _ZN2v88internal22LLoadFunctionPrototypeD1Ev @5082
    _ZN2v88internal22LLoadPixelArrayElement15CompileToNativeEPNS0_8LCodeGenE @5083
    _ZN2v88internal22LLoadPixelArrayElementD0Ev @5084
    _ZN2v88internal22LLoadPixelArrayElementD1Ev @5085
    _ZN2v88internal22LStoreKeyedFastElement11PrintDataToEPNS0_12StringStreamE @5086
    _ZN2v88internal22LStoreKeyedFastElement15CompileToNativeEPNS0_8LCodeGenE @5087
    _ZN2v88internal22LStoreKeyedFastElementD0Ev @5088
    _ZN2v88internal22LStoreKeyedFastElementD1Ev @5089
    _ZN2v88internal22RetainerTreeAggregator4CallERKNS0_16JSObjectsClusterEPNS0_13ZoneSplayTreeINS0_26JSObjectsClusterTreeConfigEEE @5090
    _ZN2v88internal22SafeStackFrameIterator10IsValidTopEPhS2_ @5091
    _ZN2v88internal22SafeStackFrameIterator13IsValidCallerEPNS0_10StackFrameE @5092
    _ZN2v88internal22SafeStackFrameIterator13active_count_E @5093 DATA
    _ZN2v88internal22SafeStackFrameIterator17CanIterateHandlesEPNS0_10StackFrameEPNS0_12StackHandlerE @5094
    _ZN2v88internal22SafeStackFrameIterator18ExitFrameValidator9IsValidFPEPh @5095
    _ZN2v88internal22SafeStackFrameIterator5ResetEv @5096
    _ZN2v88internal22SafeStackFrameIterator7AdvanceEv @5097
    _ZN2v88internal22SafeStackFrameIteratorC1EPhS2_S2_S2_ @5098
    _ZN2v88internal22SafeStackFrameIteratorC2EPhS2_S2_S2_ @5099
    _ZN2v88internal22SerializerDeserializer20SetSnapshotCacheSizeEi @5100
    _ZN2v88internal22SerializerDeserializer23partial_snapshot_cache_E @5101 DATA
    _ZN2v88internal22SerializerDeserializer30partial_snapshot_cache_length_E @5102 DATA
    _ZN2v88internal22SerializerDeserializer7IterateEPNS0_13ObjectVisitorE @5103
    _ZN2v88internal22SerializerDeserializerD0Ev @5104
    _ZN2v88internal22SerializerDeserializerD1Ev @5105
    _ZN2v88internal23DeoptimizationInputData8AllocateEiNS0_13PretenureFlagE @5106
    _ZN2v88internal23FLAG_max_new_space_sizeE @5107 DATA
    _ZN2v88internal23FLAG_max_old_space_sizeE @5108 DATA
    _ZN2v88internal23FLAG_prepare_always_optE @5109 DATA
    _ZN2v88internal23FLAG_testing_float_flagE @5110 DATA
    _ZN2v88internal23FLAG_use_canonicalizingE @5111 DATA
    _ZN2v88internal23FatalProcessOutOfMemoryEPKc @5112
    _ZN2v88internal23GetScriptLineNumberSafeENS0_6HandleINS0_6ScriptEEEi @5113
    _ZN2v88internal23HBitwiseBinaryOperation21CalculateInferredTypeEv @5114
    _ZN2v88internal23HBitwiseBinaryOperation21RepresentationChangedENS0_14RepresentationE @5115
    _ZN2v88internal23HBitwiseBinaryOperationD0Ev @5116
    _ZN2v88internal23HBitwiseBinaryOperationD1Ev @5117
    _ZN2v88internal23HStorePixelArrayElement11PrintDataToEPNS0_12StringStreamE @5118
    _ZN2v88internal23HStorePixelArrayElement16CompileToLithiumEPNS0_13LChunkBuilderE @5119
    _ZN2v88internal23HStorePixelArrayElementD0Ev @5120
    _ZN2v88internal23HStorePixelArrayElementD1Ev @5121
    _ZN2v88internal23HeapSnapshotsCollection11GetSnapshotEj @5122
    _ZN2v88internal23HeapSnapshotsCollection11NewSnapshotENS0_12HeapSnapshot4TypeEPKcj @5123
    _ZN2v88internal23HeapSnapshotsCollection16CompareSnapshotsEPNS0_12HeapSnapshotES3_ @5124
    _ZN2v88internal23HeapSnapshotsCollection18HeapSnapshotsMatchEPvS2_ @5125
    _ZN2v88internal23HeapSnapshotsCollection26SnapshotGenerationFinishedEPNS0_12HeapSnapshotE @5126
    _ZN2v88internal23HeapSnapshotsCollectionC1Ev @5127
    _ZN2v88internal23HeapSnapshotsCollectionC2Ev @5128
    _ZN2v88internal23HeapSnapshotsCollectionD1Ev @5129
    _ZN2v88internal23HeapSnapshotsCollectionD2Ev @5130
    _ZN2v88internal23HeapSnapshotsComparator7CompareEPNS0_12HeapSnapshotES3_ @5131
    _ZN2v88internal23HeapSnapshotsComparatorD1Ev @5132
    _ZN2v88internal23HeapSnapshotsComparatorD2Ev @5133
    _ZN2v88internal23LCmpJSObjectEqAndBranch15CompileToNativeEPNS0_8LCodeGenE @5134
    _ZN2v88internal23LCmpJSObjectEqAndBranchD0Ev @5135
    _ZN2v88internal23LCmpJSObjectEqAndBranchD1Ev @5136
    _ZN2v88internal23LStorePixelArrayElement15CompileToNativeEPNS0_8LCodeGenE @5137
    _ZN2v88internal23LStorePixelArrayElementD0Ev @5138
    _ZN2v88internal23LStorePixelArrayElementD1Ev @5139
    _ZN2v88internal23LiveEditFunctionTracker18RecordFunctionInfoENS0_6HandleINS0_18SharedFunctionInfoEEEPNS0_15FunctionLiteralE @5140
    _ZN2v88internal23LiveEditFunctionTracker22RecordRootFunctionInfoENS0_6HandleINS0_4CodeEEE @5141
    _ZN2v88internal23LiveEditFunctionTracker8IsActiveEv @5142
    _ZN2v88internal23LiveEditFunctionTrackerC1EPNS0_15FunctionLiteralE @5143
    _ZN2v88internal23LiveEditFunctionTrackerC2EPNS0_15FunctionLiteralE @5144
    _ZN2v88internal23LiveEditFunctionTrackerD1Ev @5145
    _ZN2v88internal23LiveEditFunctionTrackerD2Ev @5146
    _ZN2v88internal23NativeAllocationChecker22allocation_disallowed_E @5147 DATA
    _ZN2v88internal23NegativeSubmatchSuccess4EmitEPNS0_14RegExpCompilerEPNS0_5TraceE @5148
    _ZN2v88internal23NegativeSubmatchSuccessD0Ev @5149
    _ZN2v88internal23NegativeSubmatchSuccessD1Ev @5150
    _ZN2v88internal23ProfilerEventsProcessor12ProcessTicksEj @5151
    _ZN2v88internal23ProfilerEventsProcessor12SFIMoveEventEPhS2_ @5152
    _ZN2v88internal23ProfilerEventsProcessor13CodeMoveEventEPhS2_ @5153
    _ZN2v88internal23ProfilerEventsProcessor15AddCurrentStackEv @5154
    _ZN2v88internal23ProfilerEventsProcessor15CodeCreateEventENS0_6Logger16LogEventsAndTagsEPKcPhj @5155
    _ZN2v88internal23ProfilerEventsProcessor15CodeCreateEventENS0_6Logger16LogEventsAndTagsEPNS0_6StringES5_iPhjS6_ @5156
    _ZN2v88internal23ProfilerEventsProcessor15CodeCreateEventENS0_6Logger16LogEventsAndTagsEiPhj @5157
    _ZN2v88internal23ProfilerEventsProcessor15CodeDeleteEventEPh @5158
    _ZN2v88internal23ProfilerEventsProcessor16ProcessCodeEventEPj @5159
    _ZN2v88internal23ProfilerEventsProcessor19CallbackCreateEventENS0_6Logger16LogEventsAndTagsEPKcPNS0_6StringEPh @5160
    _ZN2v88internal23ProfilerEventsProcessor21RegExpCodeCreateEventENS0_6Logger16LogEventsAndTagsEPKcPNS0_6StringEPhj @5161
    _ZN2v88internal23ProfilerEventsProcessor3RunEv @5162
    _ZN2v88internal23ProfilerEventsProcessorC1EPNS0_16ProfileGeneratorE @5163
    _ZN2v88internal23ProfilerEventsProcessorC2EPNS0_16ProfileGeneratorE @5164
    _ZN2v88internal23ProfilerEventsProcessorD0Ev @5165
    _ZN2v88internal23ProfilerEventsProcessorD1Ev @5166
    _ZN2v88internal23SetLocalPropertyNoThrowENS0_6HandleINS0_8JSObjectEEENS1_INS0_6StringEEENS1_INS0_6ObjectEEE18PropertyAttributes @5167
    _ZN2v88internal23SnapshotFillerInterfaceD0Ev @5168
    _ZN2v88internal23SnapshotFillerInterfaceD1Ev @5169
    _ZN2v88internal23StackTraceFrameIterator12IsValidFrameEv @5170
    _ZN2v88internal23StackTraceFrameIterator7AdvanceEv @5171
    _ZN2v88internal23StackTraceFrameIteratorC1Ev @5172
    _ZN2v88internal23StackTraceFrameIteratorC2Ev @5173
    _ZN2v88internal23TranscendentalCacheStub15RuntimeFunctionEv @5174
    _ZN2v88internal23TranscendentalCacheStub17GenerateOperationEPNS0_14MacroAssemblerE @5175
    _ZN2v88internal23TranscendentalCacheStub8GenerateEPNS0_14MacroAssemblerE @5176
    _ZN2v88internal23TranscendentalCacheStub8MajorKeyEv @5177
    _ZN2v88internal23TranscendentalCacheStub8MinorKeyEv @5178
    _ZN2v88internal23TranscendentalCacheStubD0Ev @5179
    _ZN2v88internal23TranscendentalCacheStubD1Ev @5180
    _ZN2v88internal24DeferredStringCharCodeAt8GenerateEv @5181
    _ZN2v88internal24DeferredStringCharCodeAtD0Ev @5182
    _ZN2v88internal24DeferredStringCharCodeAtD1Ev @5183
    _ZN2v88internal24DeoptimizationOutputData8AllocateEiNS0_13PretenureFlagE @5184
    _ZN2v88internal24DeoptimizingCodeListNodeC1EPNS0_4CodeE @5185
    _ZN2v88internal24DeoptimizingCodeListNodeC2EPNS0_4CodeE @5186
    _ZN2v88internal24DeoptimizingCodeListNodeD1Ev @5187
    _ZN2v88internal24DeoptimizingCodeListNodeD2Ev @5188
    _ZN2v88internal24DispatchTableConstructor10AddInverseEPNS0_8ZoneListINS0_14CharacterRangeEEE @5189
    _ZN2v88internal24DispatchTableConstructor10BuildTableEPNS0_10ChoiceNodeE @5190
    _ZN2v88internal24DispatchTableConstructor11VisitActionEPNS0_10ActionNodeE @5191
    _ZN2v88internal24DispatchTableConstructor11VisitChoiceEPNS0_10ChoiceNodeE @5192
    _ZN2v88internal24DispatchTableConstructor14VisitAssertionEPNS0_13AssertionNodeE @5193
    _ZN2v88internal24DispatchTableConstructor18VisitBackReferenceEPNS0_17BackReferenceNodeE @5194
    _ZN2v88internal24DispatchTableConstructor8VisitEndEPNS0_7EndNodeE @5195
    _ZN2v88internal24DispatchTableConstructor9VisitTextEPNS0_8TextNodeE @5196
    _ZN2v88internal24DispatchTableConstructorD0Ev @5197
    _ZN2v88internal24DispatchTableConstructorD1Ev @5198
    _ZN2v88internal24DoubleToPrecisionCStringEdi @5199
    _ZN2v88internal24ExternalReferenceDecoderC1Ev @5200
    _ZN2v88internal24ExternalReferenceDecoderC2Ev @5201
    _ZN2v88internal24ExternalReferenceDecoderD1Ev @5202
    _ZN2v88internal24ExternalReferenceDecoderD2Ev @5203
    _ZN2v88internal24ExternalReferenceEncoder3PutEPhi @5204
    _ZN2v88internal24ExternalReferenceEncoder5MatchEPvS2_ @5205
    _ZN2v88internal24ExternalReferenceEncoderC1Ev @5206
    _ZN2v88internal24ExternalReferenceEncoderC2Ev @5207
    _ZN2v88internal24ExternalUnsignedIntArray8SetValueEjPNS0_6ObjectE @5208
    _ZN2v88internal24FLAG_debugger_auto_breakE @5209 DATA
    _ZN2v88internal24FLAG_deopt_every_n_timesE @5210 DATA
    _ZN2v88internal24FLAG_eliminate_dead_phisE @5211 DATA
    _ZN2v88internal24FLAG_max_executable_sizeE @5212 DATA
    _ZN2v88internal24FLAG_max_map_space_pagesE @5213 DATA
    _ZN2v88internal24FLAG_min_preparse_lengthE @5214 DATA
    _ZN2v88internal24FLAG_regexp_entry_nativeE @5215 DATA
    _ZN2v88internal24FLAG_regexp_optimizationE @5216 DATA
    _ZN2v88internal24FLAG_safe_int32_compilerE @5217 DATA
    _ZN2v88internal24FLAG_sim_stack_alignmentE @5218 DATA
    _ZN2v88internal24FLAG_stress_environmentsE @5219 DATA
    _ZN2v88internal24FLAG_stress_pointer_mapsE @5220 DATA
    _ZN2v88internal24FLAG_testing_string_flagE @5221 DATA
    _ZN2v88internal24FLAG_use_verbose_printerE @5222 DATA
    _ZN2v88internal24HUnaryControlInstruction11PrintDataToEPNS0_12StringStreamE @5223
    _ZN2v88internal24HUnaryControlInstructionC2EPNS0_6HValueEPNS0_11HBasicBlockES5_ @5224
    _ZN2v88internal24HUnaryControlInstructionD0Ev @5225
    _ZN2v88internal24HUnaryControlInstructionD1Ev @5226
    _ZN2v88internal24OptimizedFunctionVisitorD0Ev @5227
    _ZN2v88internal24OptimizedFunctionVisitorD1Ev @5228
    _ZN2v88internal24PreallocatedMemoryThread11the_thread_E @5229 DATA
    _ZN2v88internal24PreallocatedMemoryThread21data_ready_semaphore_E @5230 DATA
    _ZN2v88internal24PreallocatedMemoryThread24wait_for_ever_semaphore_E @5231 DATA
    _ZN2v88internal24PreallocatedMemoryThread3RunEv @5232
    _ZN2v88internal24PreallocatedMemoryThread5data_E @5233 DATA
    _ZN2v88internal24PreallocatedMemoryThread7length_E @5234 DATA
    _ZN2v88internal24PreallocatedMemoryThreadD0Ev @5235
    _ZN2v88internal24PreallocatedMemoryThreadD1Ev @5236
    _ZN2v88internal24RegExpMacroAssemblerIA3211PopRegisterEi @5237
    _ZN2v88internal24RegExpMacroAssemblerIA3211SetRegisterEii @5238
    _ZN2v88internal24RegExpMacroAssemblerIA3212CheckAtStartEPNS0_5LabelE @5239
    _ZN2v88internal24RegExpMacroAssemblerIA3212IfRegisterGEEiiPNS0_5LabelE @5240
    _ZN2v88internal24RegExpMacroAssemblerIA3212IfRegisterLTEiiPNS0_5LabelE @5241
    _ZN2v88internal24RegExpMacroAssemblerIA3212PushRegisterEiNS0_20RegExpMacroAssembler14StackCheckFlagE @5242
    _ZN2v88internal24RegExpMacroAssemblerIA3213CheckPositionEiPNS0_5LabelE @5243
    _ZN2v88internal24RegExpMacroAssemblerIA3213PushBacktrackEPNS0_5LabelE @5244
    _ZN2v88internal24RegExpMacroAssemblerIA3214CheckCharacterEjPNS0_5LabelE @5245
    _ZN2v88internal24RegExpMacroAssemblerIA3214ClearRegistersEii @5246
    _ZN2v88internal24RegExpMacroAssemblerIA3214ImplementationEv @5247
    _ZN2v88internal24RegExpMacroAssemblerIA3215AdvanceRegisterEii @5248
    _ZN2v88internal24RegExpMacroAssemblerIA3215CheckCharactersENS0_6VectorIKtEEiPNS0_5LabelEb @5249
    _ZN2v88internal24RegExpMacroAssemblerIA3215CheckGreedyLoopEPNS0_5LabelE @5250
    _ZN2v88internal24RegExpMacroAssemblerIA3215CheckNotAtStartEPNS0_5LabelE @5251
    _ZN2v88internal24RegExpMacroAssemblerIA3215CheckPreemptionEv @5252
    _ZN2v88internal24RegExpMacroAssemblerIA3215CheckStackLimitEv @5253
    _ZN2v88internal24RegExpMacroAssemblerIA3215IfRegisterEqPosEiPNS0_5LabelE @5254
    _ZN2v88internal24RegExpMacroAssemblerIA3216CheckCharacterGTEtPNS0_5LabelE @5255
    _ZN2v88internal24RegExpMacroAssemblerIA3216CheckCharacterLTEtPNS0_5LabelE @5256
    _ZN2v88internal24RegExpMacroAssemblerIA3217BranchOrBacktrackENS0_9ConditionEPNS0_5LabelENS0_4HintE @5257
    _ZN2v88internal24RegExpMacroAssemblerIA3217CheckNotCharacterEjPNS0_5LabelE @5258
    _ZN2v88internal24RegExpMacroAssemblerIA3217register_locationEi @5259
    _ZN2v88internal24RegExpMacroAssemblerIA3217stack_limit_slackEv @5260
    _ZN2v88internal24RegExpMacroAssemblerIA3218PopCurrentPositionEv @5261
    _ZN2v88internal24RegExpMacroAssemblerIA3219PushCurrentPositionEv @5262
    _ZN2v88internal24RegExpMacroAssemblerIA3220CheckStackGuardStateEPPhPNS0_4CodeES2_ @5263
    _ZN2v88internal24RegExpMacroAssemblerIA3220LoadCurrentCharacterEiPNS0_5LabelEbi @5264
    _ZN2v88internal24RegExpMacroAssemblerIA3221CheckNotBackReferenceEiPNS0_5LabelE @5265
    _ZN2v88internal24RegExpMacroAssemblerIA3222AdvanceCurrentPositionEi @5266
    _ZN2v88internal24RegExpMacroAssemblerIA3222CheckCharacterAfterAndEjjPNS0_5LabelE @5267
    _ZN2v88internal24RegExpMacroAssemblerIA3222CheckNotRegistersEqualEiiPNS0_5LabelE @5268
    _ZN2v88internal24RegExpMacroAssemblerIA3224CallCheckStackGuardStateENS0_8RegisterE @5269
    _ZN2v88internal24RegExpMacroAssemblerIA3225CheckNotCharacterAfterAndEjjPNS0_5LabelE @5270
    _ZN2v88internal24RegExpMacroAssemblerIA3225SetCurrentPositionFromEndEi @5271
    _ZN2v88internal24RegExpMacroAssemblerIA3226CheckSpecialCharacterClassEtPNS0_5LabelE @5272
    _ZN2v88internal24RegExpMacroAssemblerIA3227WriteStackPointerToRegisterEi @5273
    _ZN2v88internal24RegExpMacroAssemblerIA3228ReadStackPointerFromRegisterEi @5274
    _ZN2v88internal24RegExpMacroAssemblerIA3229LoadCurrentCharacterUncheckedEii @5275
    _ZN2v88internal24RegExpMacroAssemblerIA3230CheckNotCharacterAfterMinusAndEtttPNS0_5LabelE @5276
    _ZN2v88internal24RegExpMacroAssemblerIA3230WriteCurrentPositionToRegisterEii @5277
    _ZN2v88internal24RegExpMacroAssemblerIA3231CheckNotBackReferenceIgnoreCaseEiPNS0_5LabelE @5278
    _ZN2v88internal24RegExpMacroAssemblerIA3231ReadCurrentPositionFromRegisterEi @5279
    _ZN2v88internal24RegExpMacroAssemblerIA324BindEPNS0_5LabelE @5280
    _ZN2v88internal24RegExpMacroAssemblerIA324FailEv @5281
    _ZN2v88internal24RegExpMacroAssemblerIA324GoToEPNS0_5LabelE @5282
    _ZN2v88internal24RegExpMacroAssemblerIA327GetCodeENS0_6HandleINS0_6StringEEE @5283
    _ZN2v88internal24RegExpMacroAssemblerIA327SucceedEv @5284
    _ZN2v88internal24RegExpMacroAssemblerIA329BacktrackEv @5285
    _ZN2v88internal24RegExpMacroAssemblerIA32C1ENS0_26NativeRegExpMacroAssembler4ModeEi @5286
    _ZN2v88internal24RegExpMacroAssemblerIA32C2ENS0_26NativeRegExpMacroAssembler4ModeEi @5287
    _ZN2v88internal24RegExpMacroAssemblerIA32D0Ev @5288
    _ZN2v88internal24RegExpMacroAssemblerIA32D1Ev @5289
    _ZN2v88internal24RegExpMacroAssemblerIA32D2Ev @5290
    _ZN2v88internal24ReplacementStringBuilder15AddSubjectSliceEPNS0_17FixedArrayBuilderEii @5291
    _ZN2v88internal24ReplacementStringBuilder17NewRawAsciiStringEi @5292
    _ZN2v88internal24ReplacementStringBuilder19NewRawTwoByteStringEi @5293
    _ZN2v88internal24RootsReferencesExtractor13VisitPointersEPPNS0_6ObjectES4_ @5294
    _ZN2v88internal24RootsReferencesExtractorD0Ev @5295
    _ZN2v88internal24RootsReferencesExtractorD1Ev @5296
    _ZN2v88internal24SetExpectedNofPropertiesENS0_6HandleINS0_10JSFunctionEEEi @5297
    _ZN2v88internal24StoreInterceptorPropertyENS0_9ArgumentsE @5298
    _ZN2v88internal24UnreachableObjectsFilter10SkipObjectEPNS0_10HeapObjectE @5299
    _ZN2v88internal24UnreachableObjectsFilter16UnmarkingVisitor13VisitPointersEPPNS0_6ObjectES5_ @5300
    _ZN2v88internal24UnreachableObjectsFilter16UnmarkingVisitorD0Ev @5301
    _ZN2v88internal24UnreachableObjectsFilter16UnmarkingVisitorD1Ev @5302
    _ZN2v88internal24UnreachableObjectsFilterD0Ev @5303
    _ZN2v88internal24UnreachableObjectsFilterD1Ev @5304
    _ZN2v88internal24post_gc_processing_countE @5305 DATA
    _ZN2v88internal25AlternativeGenerationListC1Ei @5306
    _ZN2v88internal25AssignedVariablesAnalyzer10VisitBlockEPNS0_5BlockE @5307
    _ZN2v88internal25AssignedVariablesAnalyzer10VisitThrowEPNS0_5ThrowE @5308
    _ZN2v88internal25AssignedVariablesAnalyzer12VisitCallNewEPNS0_7CallNewE @5309
    _ZN2v88internal25AssignedVariablesAnalyzer12VisitLiteralEPNS0_7LiteralE @5310
    _ZN2v88internal25AssignedVariablesAnalyzer13MarkIfTrivialEPNS0_10ExpressionE @5311
    _ZN2v88internal25AssignedVariablesAnalyzer13VisitPropertyEPNS0_8PropertyE @5312
    _ZN2v88internal25AssignedVariablesAnalyzer15VisitAssignmentEPNS0_10AssignmentE @5313
    _ZN2v88internal25AssignedVariablesAnalyzer16VisitCallRuntimeEPNS0_11CallRuntimeE @5314
    _ZN2v88internal25AssignedVariablesAnalyzer16VisitConditionalEPNS0_11ConditionalE @5315
    _ZN2v88internal25AssignedVariablesAnalyzer16VisitDeclarationEPNS0_11DeclarationE @5316
    _ZN2v88internal25AssignedVariablesAnalyzer16VisitIfStatementEPNS0_11IfStatementE @5317
    _ZN2v88internal25AssignedVariablesAnalyzer17ProcessExpressionEPNS0_10ExpressionE @5318
    _ZN2v88internal25AssignedVariablesAnalyzer17RecordAssignedVarEPNS0_8VariableE @5319
    _ZN2v88internal25AssignedVariablesAnalyzer17VisitArrayLiteralEPNS0_12ArrayLiteralE @5320
    _ZN2v88internal25AssignedVariablesAnalyzer17VisitForStatementEPNS0_12ForStatementE @5321
    _ZN2v88internal25AssignedVariablesAnalyzer17VisitThisFunctionEPNS0_12ThisFunctionE @5322
    _ZN2v88internal25AssignedVariablesAnalyzer18VisitCompareToNullEPNS0_13CompareToNullE @5323
    _ZN2v88internal25AssignedVariablesAnalyzer18VisitObjectLiteralEPNS0_13ObjectLiteralE @5324
    _ZN2v88internal25AssignedVariablesAnalyzer18VisitRegExpLiteralEPNS0_13RegExpLiteralE @5325
    _ZN2v88internal25AssignedVariablesAnalyzer18VisitVariableProxyEPNS0_13VariableProxyE @5326
    _ZN2v88internal25AssignedVariablesAnalyzer19FindSmiLoopVariableEPNS0_12ForStatementE @5327
    _ZN2v88internal25AssignedVariablesAnalyzer19VisitBreakStatementEPNS0_14BreakStatementE @5328
    _ZN2v88internal25AssignedVariablesAnalyzer19VisitCountOperationEPNS0_14CountOperationE @5329
    _ZN2v88internal25AssignedVariablesAnalyzer19VisitEmptyStatementEPNS0_14EmptyStatementE @5330
    _ZN2v88internal25AssignedVariablesAnalyzer19VisitForInStatementEPNS0_14ForInStatementE @5331
    _ZN2v88internal25AssignedVariablesAnalyzer19VisitUnaryOperationEPNS0_14UnaryOperationE @5332
    _ZN2v88internal25AssignedVariablesAnalyzer19VisitWhileStatementEPNS0_14WhileStatementE @5333
    _ZN2v88internal25AssignedVariablesAnalyzer20VisitBinaryOperationEPNS0_15BinaryOperationE @5334
    _ZN2v88internal25AssignedVariablesAnalyzer20VisitFunctionLiteralEPNS0_15FunctionLiteralE @5335
    _ZN2v88internal25AssignedVariablesAnalyzer20VisitReturnStatementEPNS0_15ReturnStatementE @5336
    _ZN2v88internal25AssignedVariablesAnalyzer20VisitSwitchStatementEPNS0_15SwitchStatementE @5337
    _ZN2v88internal25AssignedVariablesAnalyzer21VisitCompareOperationEPNS0_16CompareOperationE @5338
    _ZN2v88internal25AssignedVariablesAnalyzer21VisitDoWhileStatementEPNS0_16DoWhileStatementE @5339
    _ZN2v88internal25AssignedVariablesAnalyzer22VisitContinueStatementEPNS0_17ContinueStatementE @5340
    _ZN2v88internal25AssignedVariablesAnalyzer22VisitDebuggerStatementEPNS0_17DebuggerStatementE @5341
    _ZN2v88internal25AssignedVariablesAnalyzer22VisitTryCatchStatementEPNS0_17TryCatchStatementE @5342
    _ZN2v88internal25AssignedVariablesAnalyzer22VisitWithExitStatementEPNS0_17WithExitStatementE @5343
    _ZN2v88internal25AssignedVariablesAnalyzer23VisitIncrementOperationEPNS0_18IncrementOperationE @5344
    _ZN2v88internal25AssignedVariablesAnalyzer23VisitWithEnterStatementEPNS0_18WithEnterStatementE @5345
    _ZN2v88internal25AssignedVariablesAnalyzer24VisitExpressionStatementEPNS0_19ExpressionStatementE @5346
    _ZN2v88internal25AssignedVariablesAnalyzer24VisitTryFinallyStatementEPNS0_19TryFinallyStatementE @5347
    _ZN2v88internal25AssignedVariablesAnalyzer25VisitCatchExtensionObjectEPNS0_20CatchExtensionObjectE @5348
    _ZN2v88internal25AssignedVariablesAnalyzer30VisitSharedFunctionInfoLiteralEPNS0_25SharedFunctionInfoLiteralE @5349
    _ZN2v88internal25AssignedVariablesAnalyzer7AnalyzeEPNS0_15CompilationInfoE @5350
    _ZN2v88internal25AssignedVariablesAnalyzer7AnalyzeEv @5351
    _ZN2v88internal25AssignedVariablesAnalyzer8BitIndexEPNS0_8VariableE @5352
    _ZN2v88internal25AssignedVariablesAnalyzer9VisitCallEPNS0_4CallE @5353
    _ZN2v88internal25AssignedVariablesAnalyzerC1EPNS0_15CompilationInfoEi @5354
    _ZN2v88internal25AssignedVariablesAnalyzerC2EPNS0_15CompilationInfoEi @5355
    _ZN2v88internal25AssignedVariablesAnalyzerD0Ev @5356
    _ZN2v88internal25AssignedVariablesAnalyzerD1Ev @5357
    _ZN2v88internal25BreakableStatementChecker10VisitBlockEPNS0_5BlockE @5358
    _ZN2v88internal25BreakableStatementChecker10VisitThrowEPNS0_5ThrowE @5359
    _ZN2v88internal25BreakableStatementChecker12VisitCallNewEPNS0_7CallNewE @5360
    _ZN2v88internal25BreakableStatementChecker12VisitLiteralEPNS0_7LiteralE @5361
    _ZN2v88internal25BreakableStatementChecker13VisitPropertyEPNS0_8PropertyE @5362
    _ZN2v88internal25BreakableStatementChecker15VisitAssignmentEPNS0_10AssignmentE @5363
    _ZN2v88internal25BreakableStatementChecker16VisitCallRuntimeEPNS0_11CallRuntimeE @5364
    _ZN2v88internal25BreakableStatementChecker16VisitConditionalEPNS0_11ConditionalE @5365
    _ZN2v88internal25BreakableStatementChecker16VisitDeclarationEPNS0_11DeclarationE @5366
    _ZN2v88internal25BreakableStatementChecker16VisitIfStatementEPNS0_11IfStatementE @5367
    _ZN2v88internal25BreakableStatementChecker17VisitArrayLiteralEPNS0_12ArrayLiteralE @5368
    _ZN2v88internal25BreakableStatementChecker17VisitForStatementEPNS0_12ForStatementE @5369
    _ZN2v88internal25BreakableStatementChecker17VisitThisFunctionEPNS0_12ThisFunctionE @5370
    _ZN2v88internal25BreakableStatementChecker18VisitCompareToNullEPNS0_13CompareToNullE @5371
    _ZN2v88internal25BreakableStatementChecker18VisitObjectLiteralEPNS0_13ObjectLiteralE @5372
    _ZN2v88internal25BreakableStatementChecker18VisitRegExpLiteralEPNS0_13RegExpLiteralE @5373
    _ZN2v88internal25BreakableStatementChecker18VisitVariableProxyEPNS0_13VariableProxyE @5374
    _ZN2v88internal25BreakableStatementChecker19VisitBreakStatementEPNS0_14BreakStatementE @5375
    _ZN2v88internal25BreakableStatementChecker19VisitCountOperationEPNS0_14CountOperationE @5376
    _ZN2v88internal25BreakableStatementChecker19VisitEmptyStatementEPNS0_14EmptyStatementE @5377
    _ZN2v88internal25BreakableStatementChecker19VisitForInStatementEPNS0_14ForInStatementE @5378
    _ZN2v88internal25BreakableStatementChecker19VisitUnaryOperationEPNS0_14UnaryOperationE @5379
    _ZN2v88internal25BreakableStatementChecker19VisitWhileStatementEPNS0_14WhileStatementE @5380
    _ZN2v88internal25BreakableStatementChecker20VisitBinaryOperationEPNS0_15BinaryOperationE @5381
    _ZN2v88internal25BreakableStatementChecker20VisitFunctionLiteralEPNS0_15FunctionLiteralE @5382
    _ZN2v88internal25BreakableStatementChecker20VisitReturnStatementEPNS0_15ReturnStatementE @5383
    _ZN2v88internal25BreakableStatementChecker20VisitSwitchStatementEPNS0_15SwitchStatementE @5384
    _ZN2v88internal25BreakableStatementChecker21VisitCompareOperationEPNS0_16CompareOperationE @5385
    _ZN2v88internal25BreakableStatementChecker21VisitDoWhileStatementEPNS0_16DoWhileStatementE @5386
    _ZN2v88internal25BreakableStatementChecker22VisitContinueStatementEPNS0_17ContinueStatementE @5387
    _ZN2v88internal25BreakableStatementChecker22VisitDebuggerStatementEPNS0_17DebuggerStatementE @5388
    _ZN2v88internal25BreakableStatementChecker22VisitTryCatchStatementEPNS0_17TryCatchStatementE @5389
    _ZN2v88internal25BreakableStatementChecker22VisitWithExitStatementEPNS0_17WithExitStatementE @5390
    _ZN2v88internal25BreakableStatementChecker23VisitIncrementOperationEPNS0_18IncrementOperationE @5391
    _ZN2v88internal25BreakableStatementChecker23VisitWithEnterStatementEPNS0_18WithEnterStatementE @5392
    _ZN2v88internal25BreakableStatementChecker24VisitExpressionStatementEPNS0_19ExpressionStatementE @5393
    _ZN2v88internal25BreakableStatementChecker24VisitTryFinallyStatementEPNS0_19TryFinallyStatementE @5394
    _ZN2v88internal25BreakableStatementChecker25VisitCatchExtensionObjectEPNS0_20CatchExtensionObjectE @5395
    _ZN2v88internal25BreakableStatementChecker30VisitSharedFunctionInfoLiteralEPNS0_25SharedFunctionInfoLiteralE @5396
    _ZN2v88internal25BreakableStatementChecker5CheckEPNS0_10ExpressionE @5397
    _ZN2v88internal25BreakableStatementChecker5CheckEPNS0_9StatementE @5398
    _ZN2v88internal25BreakableStatementChecker9VisitCallEPNS0_4CallE @5399
    _ZN2v88internal25BreakableStatementCheckerD0Ev @5400
    _ZN2v88internal25BreakableStatementCheckerD1Ev @5401
    _ZN2v88internal25ExternalArrayStubCompiler20CompileKeyedLoadStubENS_17ExternalArrayTypeENS0_4Code5FlagsE @5402
    _ZN2v88internal25ExternalArrayStubCompiler21CompileKeyedStoreStubENS_17ExternalArrayTypeENS0_4Code5FlagsE @5403
    _ZN2v88internal25ExternalArrayStubCompiler7GetCodeENS0_4Code5FlagsE @5404
    _ZN2v88internal25ExternalUnsignedByteArray8SetValueEjPNS0_6ObjectE @5405
    _ZN2v88internal25FLAG_allow_natives_syntaxE @5406 DATA
    _ZN2v88internal25FLAG_always_full_compilerE @5407 DATA
    _ZN2v88internal25FLAG_debug_compile_eventsE @5408 DATA
    _ZN2v88internal25FLAG_disable_native_filesE @5409 DATA
    _ZN2v88internal25FLAG_native_code_countersE @5410 DATA
    _ZN2v88internal25FLAG_polymorphic_inliningE @5411 DATA
    _ZN2v88internal25FLAG_sliding_state_windowE @5412 DATA
    _ZN2v88internal25FLAG_stack_trace_on_abortE @5413 DATA
    _ZN2v88internal25FLAG_trace_representationE @5414 DATA
    _ZN2v88internal25FastCloneShallowArrayStub7GetNameEv @5415
    _ZN2v88internal25FastCloneShallowArrayStub8GenerateEPNS0_14MacroAssemblerE @5416
    _ZN2v88internal25FastCloneShallowArrayStub8MajorKeyEv @5417
    _ZN2v88internal25FastCloneShallowArrayStub8MinorKeyEv @5418
    _ZN2v88internal25FastCloneShallowArrayStubD0Ev @5419
    _ZN2v88internal25FastCloneShallowArrayStubD1Ev @5420
    _ZN2v88internal25InitializationBlockFinder10SameObjectEPNS0_10ExpressionES3_ @5421
    _ZN2v88internal25LHasInstanceTypeAndBranch11PrintDataToEPNS0_12StringStreamE @5422
    _ZN2v88internal25LHasInstanceTypeAndBranch15CompileToNativeEPNS0_8LCodeGenE @5423
    _ZN2v88internal25LHasInstanceTypeAndBranchD0Ev @5424
    _ZN2v88internal25LHasInstanceTypeAndBranchD1Ev @5425
    _ZN2v88internal25LIsConstructCallAndBranch15CompileToNativeEPNS0_8LCodeGenE @5426
    _ZN2v88internal25LIsConstructCallAndBranchD0Ev @5427
    _ZN2v88internal25LIsConstructCallAndBranchD1Ev @5428
    _ZN2v88internal25ReferenceCollectorVisitor13VisitPointersEPPNS0_6ObjectES4_ @5429
    _ZN2v88internal25ReferenceCollectorVisitor14VisitCodeEntryEPh @5430
    _ZN2v88internal25ReferenceCollectorVisitor15VisitCodeTargetEPNS0_9RelocInfoE @5431
    _ZN2v88internal25ReferenceCollectorVisitor16VisitDebugTargetEPNS0_9RelocInfoE @5432
    _ZN2v88internal25ReferenceCollectorVisitorD0Ev @5433
    _ZN2v88internal25ReferenceCollectorVisitorD1Ev @5434
    _ZN2v88internal25RegExpConstructResultStub7GetNameEv @5435
    _ZN2v88internal25RegExpConstructResultStub8GenerateEPNS0_14MacroAssemblerE @5436
    _ZN2v88internal25RegExpConstructResultStub8MajorKeyEv @5437
    _ZN2v88internal25RegExpConstructResultStub8MinorKeyEv @5438
    _ZN2v88internal25RegExpConstructResultStubD0Ev @5439
    _ZN2v88internal25RegExpConstructResultStubD1Ev @5440
    _ZN2v88internal25ReinitializeJSGlobalProxyENS0_6HandleINS0_10JSFunctionEEENS1_INS0_13JSGlobalProxyEEE @5441
    _ZN2v88internal25SharedFunctionInfoLiteral27AsSharedFunctionInfoLiteralEv @5442
    _ZN2v88internal25SharedFunctionInfoLiteral6AcceptEPNS0_10AstVisitorE @5443
    _ZN2v88internal25SharedFunctionInfoLiteralD0Ev @5444
    _ZN2v88internal25SharedFunctionInfoLiteralD1Ev @5445
    _ZN2v88internal25StringCharCodeAtGenerator12GenerateFastEPNS0_14MacroAssemblerE @5446
    _ZN2v88internal25StringCharCodeAtGenerator12GenerateSlowEPNS0_14MacroAssemblerERKNS0_17RuntimeCallHelperE @5447
    _ZN2v88internal25TransformToFastPropertiesENS0_6HandleINS0_8JSObjectEEEi @5448
    _ZN2v88internal25TypeRecordingBinaryOpStub10FinishCodeEPNS0_4CodeE @5449
    _ZN2v88internal25TypeRecordingBinaryOpStub10GetICStateEv @5450
    _ZN2v88internal25TypeRecordingBinaryOpStub11GetCodeKindEv @5451
    _ZN2v88internal25TypeRecordingBinaryOpStub15GenerateGenericEPNS0_14MacroAssemblerE @5452
    _ZN2v88internal25TypeRecordingBinaryOpStub15GenerateSmiCodeEPNS0_14MacroAssemblerEPNS0_5LabelENS1_32SmiCodeGenerateHeapNumberResultsE @5453
    _ZN2v88internal25TypeRecordingBinaryOpStub15GenerateSmiStubEPNS0_14MacroAssemblerE @5454
    _ZN2v88internal25TypeRecordingBinaryOpStub17GenerateInt32StubEPNS0_14MacroAssemblerE @5455
    _ZN2v88internal25TypeRecordingBinaryOpStub18GenerateAddStringsEPNS0_14MacroAssemblerE @5456
    _ZN2v88internal25TypeRecordingBinaryOpStub18GenerateStringStubEPNS0_14MacroAssemblerE @5457
    _ZN2v88internal25TypeRecordingBinaryOpStub19GenerateOddballStubEPNS0_14MacroAssemblerE @5458
    _ZN2v88internal25TypeRecordingBinaryOpStub22GenerateHeapNumberStubEPNS0_14MacroAssemblerE @5459
    _ZN2v88internal25TypeRecordingBinaryOpStub22GenerateTypeTransitionEPNS0_14MacroAssemblerE @5460
    _ZN2v88internal25TypeRecordingBinaryOpStub24GenerateRegisterArgsPushEPNS0_14MacroAssemblerE @5461
    _ZN2v88internal25TypeRecordingBinaryOpStub28GenerateHeapResultAllocationEPNS0_14MacroAssemblerEPNS0_5LabelE @5462
    _ZN2v88internal25TypeRecordingBinaryOpStub35GenerateTypeTransitionWithSavedArgsEPNS0_14MacroAssemblerE @5463
    _ZN2v88internal25TypeRecordingBinaryOpStub7GetNameEv @5464
    _ZN2v88internal25TypeRecordingBinaryOpStub8GenerateEPNS0_14MacroAssemblerE @5465
    _ZN2v88internal25TypeRecordingBinaryOpStub8MajorKeyEv @5466
    _ZN2v88internal25TypeRecordingBinaryOpStub8MinorKeyEv @5467
    _ZN2v88internal25TypeRecordingBinaryOpStubD0Ev @5468
    _ZN2v88internal25TypeRecordingBinaryOpStubD1Ev @5469
    _ZN2v88internal25Utf8ToUC16CharacterStream10FillBufferEjj @5470
    _ZN2v88internal25Utf8ToUC16CharacterStream14SetRawPositionEj @5471
    _ZN2v88internal25Utf8ToUC16CharacterStream17BufferSeekForwardEj @5472
    _ZN2v88internal25Utf8ToUC16CharacterStreamC1EPKhj @5473
    _ZN2v88internal25Utf8ToUC16CharacterStreamC2EPKhj @5474
    _ZN2v88internal25Utf8ToUC16CharacterStreamD0Ev @5475
    _ZN2v88internal25Utf8ToUC16CharacterStreamD1Ev @5476
    _ZN2v88internal25Utf8ToUC16CharacterStreamD2Ev @5477
    _ZN2v88internal25ValidLeftHandSideSentinel19IsValidLeftHandSideEv @5478
    _ZN2v88internal25ValidLeftHandSideSentinel6AcceptEPNS0_10AstVisitorE @5479
    _ZN2v88internal25ValidLeftHandSideSentinel9instance_E @5480 DATA
    _ZN2v88internal25ValidLeftHandSideSentinelD0Ev @5481
    _ZN2v88internal25ValidLeftHandSideSentinelD1Ev @5482
    _ZN2v88internal26DeferredAllocateInNewSpace8GenerateEv @5483
    _ZN2v88internal26DeferredAllocateInNewSpaceD0Ev @5484
    _ZN2v88internal26DeferredAllocateInNewSpaceD1Ev @5485
    _ZN2v88internal26DeferredInlineSmiOperation8GenerateEv @5486
    _ZN2v88internal26DeferredInlineSmiOperationD0Ev @5487
    _ZN2v88internal26DeferredInlineSmiOperationD1Ev @5488
    _ZN2v88internal26DeferredStringCharFromCode8GenerateEv @5489
    _ZN2v88internal26DeferredStringCharFromCodeD0Ev @5490
    _ZN2v88internal26DeferredStringCharFromCodeD1Ev @5491
    _ZN2v88internal26DoubleToExponentialCStringEdi @5492
    _ZN2v88internal26ExternalUnsignedShortArray8SetValueEjPNS0_6ObjectE @5493
    _ZN2v88internal26ExternalizeStringExtension11ExternalizeERKNS_9ArgumentsE @5494
    _ZN2v88internal26ExternalizeStringExtension17GetNativeFunctionENS_6HandleINS_6StringEEE @5495
    _ZN2v88internal26ExternalizeStringExtension7IsAsciiERKNS_9ArgumentsE @5496
    _ZN2v88internal26ExternalizeStringExtension7kSourceE @5497 DATA
    _ZN2v88internal26ExternalizeStringExtension8RegisterEv @5498
    _ZN2v88internal26ExternalizeStringExtensionD0Ev @5499
    _ZN2v88internal26ExternalizeStringExtensionD1Ev @5500
    _ZN2v88internal26FLAG_peephole_optimizationE @5501 DATA
    _ZN2v88internal26FLAG_use_idle_notificationE @5502 DATA
    _ZN2v88internal26GenerateFastPixelArrayLoadEPNS0_14MacroAssemblerENS0_8RegisterES3_S3_S3_S3_PNS0_5LabelES5_S5_ @5503
    _ZN2v88internal26GetKeysForNamedInterceptorENS0_6HandleINS0_8JSObjectEEES3_ @5504
    _ZN2v88internal26GetPropertyWithInterceptorENS0_6HandleINS0_8JSObjectEEES3_NS1_INS0_6StringEEEP18PropertyAttributes @5505
    _ZN2v88internal26HArithmeticBinaryOperation21CalculateInferredTypeEv @5506
    _ZN2v88internal26HArithmeticBinaryOperation21RepresentationChangedENS0_14RepresentationE @5507
    _ZN2v88internal26HArithmeticBinaryOperation22InferredRepresentationEv @5508
    _ZN2v88internal26HArithmeticBinaryOperationD0Ev @5509
    _ZN2v88internal26HArithmeticBinaryOperationD1Ev @5510
    _ZN2v88internal26HeapSnapshotJSONSerializer11GetStringIdEPKc @5511
    _ZN2v88internal26HeapSnapshotJSONSerializer11SortHashMapEPNS0_7HashMapEPNS0_4ListIPNS2_5EntryENS0_25FreeStoreAllocationPolicyEEE @5512
    _ZN2v88internal26HeapSnapshotJSONSerializer12ObjectsMatchEPvS2_ @5513
    _ZN2v88internal26HeapSnapshotJSONSerializer13SerializeEdgeEPNS0_13HeapGraphEdgeE @5514
    _ZN2v88internal26HeapSnapshotJSONSerializer13SerializeImplEv @5515
    _ZN2v88internal26HeapSnapshotJSONSerializer13SerializeNodeEPNS0_9HeapEntryE @5516
    _ZN2v88internal26HeapSnapshotJSONSerializer14EnumerateNodesEv @5517
    _ZN2v88internal26HeapSnapshotJSONSerializer14SerializeNodesEv @5518
    _ZN2v88internal26HeapSnapshotJSONSerializer15SerializeStringEPKh @5519
    _ZN2v88internal26HeapSnapshotJSONSerializer16SerializeStringsEv @5520
    _ZN2v88internal26HeapSnapshotJSONSerializer17SerializeSnapshotEv @5521
    _ZN2v88internal26HeapSnapshotJSONSerializer9GetNodeIdEPNS0_9HeapEntryE @5522
    _ZN2v88internal26HeapSnapshotJSONSerializer9SerializeEPNS_12OutputStreamE @5523
    _ZN2v88internal26IndexedReferencesExtractor13VisitPointersEPPNS0_6ObjectES4_ @5524
    _ZN2v88internal26IndexedReferencesExtractorD0Ev @5525
    _ZN2v88internal26IndexedReferencesExtractorD1Ev @5526
    _ZN2v88internal26JSObjectsClusterTreeConfig6kNoKeyE @5527 DATA
    _ZN2v88internal26JSObjectsClusterTreeConfig8kNoValueE @5528 DATA
    _ZN2v88internal26LockingCommandMessageQueue3GetEv @5529
    _ZN2v88internal26LockingCommandMessageQueue3PutERKNS0_14CommandMessageE @5530
    _ZN2v88internal26LockingCommandMessageQueue5ClearEv @5531
    _ZN2v88internal26LockingCommandMessageQueueC1Ei @5532
    _ZN2v88internal26LockingCommandMessageQueueC2Ei @5533
    _ZN2v88internal26LockingCommandMessageQueueD1Ev @5534
    _ZN2v88internal26LockingCommandMessageQueueD2Ev @5535
    _ZN2v88internal26NativeRegExpMacroAssembler16CanReadUnalignedEv @5536
    _ZN2v88internal26NativeRegExpMacroAssembler18word_character_mapE @5537 DATA
    _ZN2v88internal26NativeRegExpMacroAssembler23StringCharacterPositionEPNS0_6StringEi @5538
    _ZN2v88internal26NativeRegExpMacroAssembler26CaseInsensitiveCompareUC16EPhS2_j @5539
    _ZN2v88internal26NativeRegExpMacroAssembler5MatchENS0_6HandleINS0_4CodeEEENS2_INS0_6StringEEEPiii @5540
    _ZN2v88internal26NativeRegExpMacroAssembler7ExecuteEPNS0_4CodeEPNS0_6StringEiPKhS7_Pi @5541
    _ZN2v88internal26NativeRegExpMacroAssembler9GrowStackEPhPS2_ @5542
    _ZN2v88internal26NativeRegExpMacroAssemblerC1Ev @5543
    _ZN2v88internal26NativeRegExpMacroAssemblerC2Ev @5544
    _ZN2v88internal26NativeRegExpMacroAssemblerD0Ev @5545
    _ZN2v88internal26NativeRegExpMacroAssemblerD1Ev @5546
    _ZN2v88internal26NativeRegExpMacroAssemblerD2Ev @5547
    _ZN2v88internal26RuntimeProfilerRateLimiter18SuspendIfNecessaryEv @5548
    _ZN2v88internal26SerializationAddressMapper21SerializationMatchFunEPvS2_ @5549
    _ZN2v88internal26SetPropertyWithInterceptorENS0_6HandleINS0_8JSObjectEEENS1_INS0_6StringEEENS1_INS0_6ObjectEEE18PropertyAttributesNS0_14StrictModeFlagE @5550
    _ZN2v88internal26preallocated_message_spaceE @5551 DATA
    _ZN2v88internal27BufferedUC16CharacterStream12SlowPushBackEt @5552
    _ZN2v88internal27BufferedUC16CharacterStream15SlowSeekForwardEj @5553
    _ZN2v88internal27BufferedUC16CharacterStream8PushBackEi @5554
    _ZN2v88internal27BufferedUC16CharacterStream9ReadBlockEv @5555
    _ZN2v88internal27BufferedUC16CharacterStreamC1Ev @5556
    _ZN2v88internal27BufferedUC16CharacterStreamC2Ev @5557
    _ZN2v88internal27BufferedUC16CharacterStreamD0Ev @5558
    _ZN2v88internal27BufferedUC16CharacterStreamD1Ev @5559
    _ZN2v88internal27BufferedUC16CharacterStreamD2Ev @5560
    _ZN2v88internal27DebuggerAgentMessageHandlerERKNS_5Debug7MessageE @5561
    _ZN2v88internal27FLAG_always_inline_smi_codeE @5562 DATA
    _ZN2v88internal27FLAG_eliminate_empty_blocksE @5563 DATA
    _ZN2v88internal27FLAG_log_snapshot_positionsE @5564 DATA
    _ZN2v88internal27GenerateFastPixelArrayStoreEPNS0_14MacroAssemblerENS0_8RegisterES3_S3_S3_S3_bPNS0_5LabelES5_S5_S5_ @5565
    _ZN2v88internal27HTemplateControlInstructionILi0EE12OperandCountEv @5566
    _ZN2v88internal27HTemplateControlInstructionILi0EE20InternalSetOperandAtEiPNS0_6HValueE @5567
    _ZN2v88internal27HTemplateControlInstructionILi0EE9OperandAtEi @5568
    _ZN2v88internal27HTemplateControlInstructionILi0EED0Ev @5569
    _ZN2v88internal27HTemplateControlInstructionILi0EED1Ev @5570
    _ZN2v88internal27HTemplateControlInstructionILi1EE12OperandCountEv @5571
    _ZN2v88internal27HTemplateControlInstructionILi1EE20InternalSetOperandAtEiPNS0_6HValueE @5572
    _ZN2v88internal27HTemplateControlInstructionILi1EE9OperandAtEi @5573
    _ZN2v88internal27HTemplateControlInstructionILi1EED0Ev @5574
    _ZN2v88internal27HTemplateControlInstructionILi1EED1Ev @5575
    _ZN2v88internal27JSObjectsRetainerTreeConfig6kNoKeyE @5576 DATA
    _ZN2v88internal27JSObjectsRetainerTreeConfig8kNoValueE @5577 DATA
    _ZN2v88internal27JavaScriptFrameIteratorTempINS0_18StackFrameIteratorEE7AdvanceEv @5578
    _ZN2v88internal27JavaScriptFrameIteratorTempINS0_18StackFrameIteratorEEC1ENS0_10StackFrame2IdE @5579
    _ZN2v88internal27MessageDispatchHelperThread3RunEv @5580
    _ZN2v88internal27MessageDispatchHelperThread8ScheduleEv @5581
    _ZN2v88internal27MessageDispatchHelperThreadC1Ev @5582
    _ZN2v88internal27MessageDispatchHelperThreadC2Ev @5583
    _ZN2v88internal27MessageDispatchHelperThreadD0Ev @5584
    _ZN2v88internal27MessageDispatchHelperThreadD1Ev @5585
    _ZN2v88internal27MessageDispatchHelperThreadD2Ev @5586
    _ZN2v88internal27NegativeLookaheadChoiceNode11EatsAtLeastEiib @5587
    _ZN2v88internal27NegativeLookaheadChoiceNode20GetQuickCheckDetailsEPNS0_17QuickCheckDetailsEPNS0_14RegExpCompilerEib @5588
    _ZN2v88internal27NegativeLookaheadChoiceNode24ComputeFirstCharacterSetEi @5589
    _ZN2v88internal27NegativeLookaheadChoiceNode39try_to_emit_quick_check_for_alternativeEi @5590
    _ZN2v88internal27NegativeLookaheadChoiceNodeD0Ev @5591
    _ZN2v88internal27NegativeLookaheadChoiceNodeD1Ev @5592
    _ZN2v88internal27NoAllocationStringAllocator4growEPj @5593
    _ZN2v88internal27NoAllocationStringAllocator8allocateEj @5594
    _ZN2v88internal27NoAllocationStringAllocatorC1EPcj @5595
    _ZN2v88internal27NoAllocationStringAllocatorC2EPcj @5596
    _ZN2v88internal27NoAllocationStringAllocatorD0Ev @5597
    _ZN2v88internal27NoAllocationStringAllocatorD1Ev @5598
    _ZN2v88internal27SafeStackTraceFrameIterator7AdvanceEv @5599
    _ZN2v88internal27SafeStackTraceFrameIteratorC1EPhS2_S2_S2_ @5600
    _ZN2v88internal27SafeStackTraceFrameIteratorC2EPhS2_S2_S2_ @5601
    _ZN2v88internal27SharedStoreIC_ExtendStorageENS0_9ArgumentsE @5602
    _ZN2v88internal27StringCharFromCodeGenerator12GenerateFastEPNS0_14MacroAssemblerE @5603
    _ZN2v88internal27StringCharFromCodeGenerator12GenerateSlowEPNS0_14MacroAssemblerERKNS0_17RuntimeCallHelperE @5604
    _ZN2v88internal27TypeRecordingBinaryOp_PatchENS0_9ArgumentsE @5605
    _ZN2v88internal28DeferredInlineSmiAddReversed8GenerateEv @5606
    _ZN2v88internal28DeferredInlineSmiAddReversedD0Ev @5607
    _ZN2v88internal28DeferredInlineSmiAddReversedD1Ev @5608
    _ZN2v88internal28DeferredPrefixCountOperation8GenerateEv @5609
    _ZN2v88internal28DeferredPrefixCountOperationD0Ev @5610
    _ZN2v88internal28DeferredPrefixCountOperationD1Ev @5611
    _ZN2v88internal28GetKeysForIndexedInterceptorENS0_6HandleINS0_8JSObjectEEES3_ @5612
    _ZN2v88internal28GetTypeRecordingBinaryOpStubEiNS0_12TRBinaryOpIC8TypeInfoES2_ @5613
    _ZN2v88internal28MemoryMappedExternalResource4InitEPKc @5614
    _ZN2v88internal28MemoryMappedExternalResourceC1EPKc @5615
    _ZN2v88internal28MemoryMappedExternalResourceC1EPKcb @5616
    _ZN2v88internal28MemoryMappedExternalResourceC2EPKc @5617
    _ZN2v88internal28MemoryMappedExternalResourceC2EPKcb @5618
    _ZN2v88internal28MemoryMappedExternalResourceD0Ev @5619
    _ZN2v88internal28MemoryMappedExternalResourceD1Ev @5620
    _ZN2v88internal28MemoryMappedExternalResourceD2Ev @5621
    _ZN2v88internal28ObjectLiteralPropertyChecker13CheckPropertyEPNS0_13ObjectLiteral8PropertyENS0_7Scanner8LocationEPb @5622
    _ZN2v88internal29DeferredInlineBinaryOperation16NonSmiInputLabelEv @5623
    _ZN2v88internal29DeferredInlineBinaryOperation17JumpToConstantRhsENS0_9ConditionEPNS0_3SmiE @5624
    _ZN2v88internal29DeferredInlineBinaryOperation18AutoSaveAndRestoreEv @5625
    _ZN2v88internal29DeferredInlineBinaryOperation19GenerateNonSmiInputEv @5626
    _ZN2v88internal29DeferredInlineBinaryOperation22JumpToAnswerOutOfRangeENS0_9ConditionE @5627
    _ZN2v88internal29DeferredInlineBinaryOperation24GenerateAnswerOutOfRangeEv @5628
    _ZN2v88internal29DeferredInlineBinaryOperation8GenerateEv @5629
    _ZN2v88internal29DeferredInlineBinaryOperationD0Ev @5630
    _ZN2v88internal29DeferredInlineBinaryOperationD1Ev @5631
    _ZN2v88internal29DeferredPostfixCountOperation8GenerateEv @5632
    _ZN2v88internal29DeferredPostfixCountOperationD0Ev @5633
    _ZN2v88internal29DeferredPostfixCountOperationD1Ev @5634
    _ZN2v88internal29FLAG_print_cumulative_gc_statE @5635 DATA
    _ZN2v88internal29FLAG_process_arguments_objectE @5636 DATA
    _ZN2v88internal29FunctionLoggingParserRecorder10LogMessageEiiPKcS3_ @5637
    _ZN2v88internal29FunctionLoggingParserRecorder11LogFunctionEiiii @5638
    _ZN2v88internal29FunctionLoggingParserRecorder11WriteStringENS0_6VectorIKcEE @5639
    _ZN2v88internal29FunctionLoggingParserRecorder14PauseRecordingEv @5640
    _ZN2v88internal29FunctionLoggingParserRecorder15ResumeRecordingEv @5641
    _ZN2v88internal29FunctionLoggingParserRecorder17function_positionEv @5642
    _ZN2v88internal29FunctionLoggingParserRecorderC1Ev @5643
    _ZN2v88internal29FunctionLoggingParserRecorderC2Ev @5644
    _ZN2v88internal29FunctionLoggingParserRecorderD0Ev @5645
    _ZN2v88internal29FunctionLoggingParserRecorderD1Ev @5646
    _ZN2v88internal29LHasCachedArrayIndexAndBranch11PrintDataToEPNS0_12StringStreamE @5647
    _ZN2v88internal29LHasCachedArrayIndexAndBranch15CompileToNativeEPNS0_8LCodeGenE @5648
    _ZN2v88internal29LHasCachedArrayIndexAndBranchD0Ev @5649
    _ZN2v88internal29LHasCachedArrayIndexAndBranchD1Ev @5650
    _ZN2v88internal29MarkCompactWeakObjectRetainer8RetainAsEPNS0_6ObjectE @5651
    _ZN2v88internal29MarkCompactWeakObjectRetainerD0Ev @5652
    _ZN2v88internal29MarkCompactWeakObjectRetainerD1Ev @5653
    _ZN2v88internal29NativesExternalStringResourceC1EPKc @5654
    _ZN2v88internal29NativesExternalStringResourceC2EPKc @5655
    _ZN2v88internal29NativesExternalStringResourceD0Ev @5656
    _ZN2v88internal29NativesExternalStringResourceD1Ev @5657
    _ZN2v88internal29VirtualFrameRuntimeCallHelperD0Ev @5658
    _ZN2v88internal29VirtualFrameRuntimeCallHelperD1Ev @5659
    _ZN2v88internal2IC10set_targetEPNS0_4CodeE @5660
    _ZN2v88internal2IC11ComputeModeEv @5661
    _ZN2v88internal2IC12IsContextualENS0_6HandleINS0_6ObjectEEE @5662
    _ZN2v88internal2IC14ReferenceErrorEPKcNS0_6HandleINS0_6StringEEE @5663
    _ZN2v88internal2IC19OriginalCodeAddressEv @5664
    _ZN2v88internal2IC20AddressFromUtilityIdENS1_9UtilityIdE @5665
    _ZN2v88internal2IC5ClearEPh @5666
    _ZN2v88internal2IC7addressEv @5667
    _ZN2v88internal2IC9StateFromEPNS0_4CodeEPNS0_6ObjectES5_ @5668
    _ZN2v88internal2IC9TypeErrorEPKcNS0_6HandleINS0_6ObjectEEES6_ @5669
    _ZN2v88internal2ICC1ENS1_10FrameDepthE @5670
    _ZN2v88internal2ICC2ENS1_10FrameDepthE @5671
    _ZN2v88internal2OS10DebugBreakEv @5672
    _ZN2v88internal2OS10PrintErrorEPKcz @5673
    _ZN2v88internal2OS11CreateMutexEv @5674
    _ZN2v88internal2OS11GetUserTimeEPjS2_ @5675
    _ZN2v88internal2OS11VPrintErrorEPKcPc @5676
    _ZN2v88internal2OS12CreateSocketEv @5677
    _ZN2v88internal2OS12GetLastErrorEv @5678
    _ZN2v88internal2OS12ReleaseStoreEPVii @5679
    _ZN2v88internal2OS13LocalTimezoneEd @5680
    _ZN2v88internal2OS15CreateSemaphoreEi @5681
    _ZN2v88internal2OS15LocalTimeOffsetEv @5682
    _ZN2v88internal2OS15LogFileOpenModeE @5683 DATA
    _ZN2v88internal2OS16MemoryMappedFile4openEPKc @5684
    _ZN2v88internal2OS16MemoryMappedFile6createEPKciPv @5685
    _ZN2v88internal2OS16MemoryMappedFileD0Ev @5686
    _ZN2v88internal2OS16MemoryMappedFileD1Ev @5687
    _ZN2v88internal2OS17AllocateAlignmentEv @5688
    _ZN2v88internal2OS17TimeCurrentMillisEv @5689
    _ZN2v88internal2OS18SignalCodeMovingGCEv @5690
    _ZN2v88internal2OS21DaylightSavingsOffsetEd @5691
    _ZN2v88internal2OS23IsOutsideAllocatedSpaceEPv @5692
    _ZN2v88internal2OS24ActivationFrameAlignmentEv @5693
    _ZN2v88internal2OS25LogSharedLibraryAddressesEv @5694
    _ZN2v88internal2OS28CpuFeaturesImpliedByPlatformEv @5695
    _ZN2v88internal2OS4FreeEPvj @5696
    _ZN2v88internal2OS5AbortEv @5697
    _ZN2v88internal2OS5FOpenEPKcS3_ @5698
    _ZN2v88internal2OS5PrintEPKcz @5699
    _ZN2v88internal2OS5SetupEv @5700
    _ZN2v88internal2OS5SleepEi @5701
    _ZN2v88internal2OS5TicksEv @5702
    _ZN2v88internal2OS6FPrintEP9__sFILE64PKcz @5703
    _ZN2v88internal2OS6RemoveEPKc @5704
    _ZN2v88internal2OS6StrChrEPci @5705
    _ZN2v88internal2OS6VPrintEPKcPc @5706
    _ZN2v88internal2OS7StrNCpyENS0_6VectorIcEEPKcj @5707
    _ZN2v88internal2OS7VFPrintEP9__sFILE64PKcPc @5708
    _ZN2v88internal2OS8AllocateEjPjb @5709
    _ZN2v88internal2OS8SNPrintFENS0_6VectorIcEEPKcz @5710
    _ZN2v88internal2OS9StackWalkENS0_6VectorINS1_10StackFrameEEE @5711
    _ZN2v88internal2OS9VSNPrintFENS0_6VectorIcEEPKcPc @5712
    _ZN2v88internal2OS9nan_valueEv @5713
    _ZN2v88internal2V810InitializeEPNS0_12DeserializerE @5714
    _ZN2v88internal2V811is_running_E @5715 DATA
    _ZN2v88internal2V813RandomPrivateEv @5716
    _ZN2v88internal2V813SetFatalErrorEv @5717
    _ZN2v88internal2V815has_been_setup_E @5718 DATA
    _ZN2v88internal2V815use_crankshaft_E @5719 DATA
    _ZN2v88internal2V816IdleNotificationEv @5720
    _ZN2v88internal2V816has_fatal_error_E @5721 DATA
    _ZN2v88internal2V818has_been_disposed_E @5722 DATA
    _ZN2v88internal2V823FatalProcessOutOfMemoryEPKcb @5723
    _ZN2v88internal2V824FillHeapNumberWithRandomEPNS0_6ObjectE @5724
    _ZN2v88internal2V86RandomEv @5725
    _ZN2v88internal2V88TearDownEv @5726
    _ZN2v88internal30DeferredReferenceGetKeyedValue8GenerateEv @5727
    _ZN2v88internal30DeferredReferenceGetKeyedValueD0Ev @5728
    _ZN2v88internal30DeferredReferenceGetKeyedValueD1Ev @5729
    _ZN2v88internal30DeferredReferenceGetNamedValue8GenerateEv @5730
    _ZN2v88internal30DeferredReferenceGetNamedValueD0Ev @5731
    _ZN2v88internal30DeferredReferenceGetNamedValueD1Ev @5732
    _ZN2v88internal30DeferredReferenceSetKeyedValue8GenerateEv @5733
    _ZN2v88internal30DeferredReferenceSetKeyedValueD0Ev @5734
    _ZN2v88internal30DeferredReferenceSetKeyedValueD1Ev @5735
    _ZN2v88internal30FLAG_deoptimize_uncommon_casesE @5736 DATA
    _ZN2v88internal30FLAG_expose_externalize_stringE @5737 DATA
    _ZN2v88internal30HLoadPixelArrayExternalPointer10DataEqualsEPNS0_6HValueE @5738
    _ZN2v88internal30HLoadPixelArrayExternalPointer16CompileToLithiumEPNS0_13LChunkBuilderE @5739
    _ZN2v88internal30HLoadPixelArrayExternalPointerD0Ev @5740
    _ZN2v88internal30HLoadPixelArrayExternalPointerD1Ev @5741
    _ZN2v88internal30LLoadPixelArrayExternalPointer15CompileToNativeEPNS0_8LCodeGenE @5742
    _ZN2v88internal30LLoadPixelArrayExternalPointerD0Ev @5743
    _ZN2v88internal30LLoadPixelArrayExternalPointerD1Ev @5744
    _ZN2v88internal31AggregatedHeapSnapshotGenerator12CollectStatsEPNS0_10HeapObjectE @5745
    _ZN2v88internal31AggregatedHeapSnapshotGenerator16FillHeapSnapshotEPNS0_12HeapSnapshotE @5746
    _ZN2v88internal31AggregatedHeapSnapshotGenerator16GenerateSnapshotEv @5747
    _ZN2v88internal31AggregatedHeapSnapshotGenerator21CalculateStringsStatsEv @5748
    _ZN2v88internal31AggregatedHeapSnapshotGeneratorC1EPNS0_22AggregatedHeapSnapshotE @5749
    _ZN2v88internal31AggregatedHeapSnapshotGeneratorC2EPNS0_22AggregatedHeapSnapshotE @5750
    _ZN2v88internal31AggregatedRetainerTreeAllocator13AllocateEntryEPvii @5751
    _ZN2v88internal31AggregatedRetainerTreeAllocatorD0Ev @5752
    _ZN2v88internal31AggregatedRetainerTreeAllocatorD1Ev @5753
    _ZN2v88internal31FLAG_loop_invariant_code_motionE @5754 DATA
    _ZN2v88internal31FLAG_mask_constants_with_cookieE @5755 DATA
    _ZN2v88internal31FLAG_preallocate_message_memoryE @5756 DATA
    _ZN2v88internal31FLAG_testing_serialization_fileE @5757 DATA
    _ZN2v88internal31LoadPropertyWithInterceptorOnlyENS0_9ArgumentsE @5758
    _ZN2v88internal31PointersToNewGenUpdatingVisitor12VisitPointerEPPNS0_6ObjectE @5759
    _ZN2v88internal31PointersToNewGenUpdatingVisitor13VisitPointersEPPNS0_6ObjectES4_ @5760
    _ZN2v88internal31PointersToNewGenUpdatingVisitor15VisitCodeTargetEPNS0_9RelocInfoE @5761
    _ZN2v88internal31PointersToNewGenUpdatingVisitor16VisitDebugTargetEPNS0_9RelocInfoE @5762
    _ZN2v88internal31PointersToNewGenUpdatingVisitorD0Ev @5763
    _ZN2v88internal31PointersToNewGenUpdatingVisitorD1Ev @5764
    _ZN2v88internal32FLAG_print_peephole_optimizationE @5765 DATA
    _ZN2v88internal32GenericStringUC16CharacterStream10FillBufferEjj @5766
    _ZN2v88internal32GenericStringUC16CharacterStream17BufferSeekForwardEj @5767
    _ZN2v88internal32GenericStringUC16CharacterStreamC1ENS0_6HandleINS0_6StringEEEjj @5768
    _ZN2v88internal32GenericStringUC16CharacterStreamC2ENS0_6HandleINS0_6StringEEEjj @5769
    _ZN2v88internal32GenericStringUC16CharacterStreamD0Ev @5770
    _ZN2v88internal32GenericStringUC16CharacterStreamD1Ev @5771
    _ZN2v88internal32GenericStringUC16CharacterStreamD2Ev @5772
    _ZN2v88internal32GetConstructorNameForHeapProfileEPNS0_8JSObjectE @5773
    _ZN2v88internal32InactiveThreadActivationsChecker11VisitThreadEPNS0_14ThreadLocalTopE @5774
    _ZN2v88internal32InactiveThreadActivationsCheckerD0Ev @5775
    _ZN2v88internal32InactiveThreadActivationsCheckerD1Ev @5776
    _ZN2v88internal32KeyedLoadPropertyWithInterceptorENS0_9ArgumentsE @5777
    _ZN2v88internal32SetLocalPropertyIgnoreAttributesENS0_6HandleINS0_8JSObjectEEENS1_INS0_6StringEEENS1_INS0_6ObjectEEE18PropertyAttributes @5778
    _ZN2v88internal32SharedFunctionInfoMarkingVisitor12VisitPointerEPPNS0_6ObjectE @5779
    _ZN2v88internal32SharedFunctionInfoMarkingVisitor13VisitPointersEPPNS0_6ObjectES4_ @5780
    _ZN2v88internal32SharedFunctionInfoMarkingVisitorD0Ev @5781
    _ZN2v88internal32SharedFunctionInfoMarkingVisitorD1Ev @5782
    _ZN2v88internal32ThisNamedPropertyAssigmentFinder22AssignmentFromConstantENS0_6HandleINS0_6StringEEENS2_INS0_6ObjectEEE @5783
    _ZN2v88internal32ThisNamedPropertyAssigmentFinder23AssignmentFromParameterENS0_6HandleINS0_6StringEEEi @5784
    _ZN2v88internal32ThisNamedPropertyAssigmentFinder26GetThisPropertyAssignmentsEv @5785
    _ZN2v88internal32ThisNamedPropertyAssigmentFinder28HandleThisPropertyAssignmentEPNS0_5ScopeEPNS0_10AssignmentE @5786
    _ZN2v88internal32TokenizingLineArrayCompareOutput8AddChunkEiiii @5787
    _ZN2v88internal32TokenizingLineArrayCompareOutputD0Ev @5788
    _ZN2v88internal32TokenizingLineArrayCompareOutputD1Ev @5789
    _ZN2v88internal33FLAG_cleanup_caches_in_maps_at_gcE @5790 DATA
    _ZN2v88internal34DeferredInlineSmiOperationReversed8GenerateEv @5791
    _ZN2v88internal34DeferredInlineSmiOperationReversedD0Ev @5792
    _ZN2v88internal34DeferredInlineSmiOperationReversedD1Ev @5793
    _ZN2v88internal34EnumerateOptimizedFunctionsVisitor12EnterContextEPNS0_7ContextE @5794
    _ZN2v88internal34EnumerateOptimizedFunctionsVisitor12LeaveContextEPNS0_7ContextE @5795
    _ZN2v88internal34EnumerateOptimizedFunctionsVisitor13VisitFunctionEPNS0_10JSFunctionE @5796
    _ZN2v88internal34EnumerateOptimizedFunctionsVisitorD0Ev @5797
    _ZN2v88internal34EnumerateOptimizedFunctionsVisitorD1Ev @5798
    _ZN2v88internal34FLAG_debug_script_collected_eventsE @5799 DATA
    _ZN2v88internal34FLAG_max_stack_trace_source_lengthE @5800 DATA
    _ZN2v88internal34LoadPropertyWithInterceptorForCallENS0_9ArgumentsE @5801
    _ZN2v88internal34LoadPropertyWithInterceptorForLoadENS0_9ArgumentsE @5802
    _ZN2v88internal35LookupSingleCharacterStringFromCodeEj @5803
    _ZN2v88internal36SetExpectedNofPropertiesFromEstimateENS0_6HandleINS0_18SharedFunctionInfoEEEi @5804
    _ZN2v88internal37DependentFunctionsDeoptimizingVisitor12EnterContextEPNS0_7ContextE @5805
    _ZN2v88internal37DependentFunctionsDeoptimizingVisitor12LeaveContextEPNS0_7ContextE @5806
    _ZN2v88internal37DependentFunctionsDeoptimizingVisitor13VisitFunctionEPNS0_10JSFunctionE @5807
    _ZN2v88internal37DependentFunctionsDeoptimizingVisitorD0Ev @5808
    _ZN2v88internal37DependentFunctionsDeoptimizingVisitorD1Ev @5809
    _ZN2v88internal37FLAG_aggressive_loop_invariant_motionE @5810 DATA
    _ZN2v88internal37FLAG_canonicalize_object_literal_mapsE @5811 DATA
    _ZN2v88internal38SnapshottingProgressReportingInterfaceD0Ev @5812
    _ZN2v88internal38SnapshottingProgressReportingInterfaceD1Ev @5813
    _ZN2v88internal3CPU10DebugBreakEv @5814
    _ZN2v88internal3CPU11FlushICacheEPvj @5815
    _ZN2v88internal3CPU5SetupEv @5816
    _ZN2v88internal3Log10OpenStdoutEv @5817
    _ZN2v88internal3Log11GetLogLinesEiPci @5818
    _ZN2v88internal3Log11WriteToFileEPKci @5819
    _ZN2v88internal3Log11is_stopped_E @5820 DATA
    _ZN2v88internal3Log13WriteToMemoryEPKci @5821
    _ZN2v88internal3Log14output_buffer_E @5822 DATA
    _ZN2v88internal3Log14output_handle_E @5823 DATA
    _ZN2v88internal3Log15message_buffer_E @5824 DATA
    _ZN2v88internal3Log16OpenMemoryBufferEv @5825
    _ZN2v88internal3Log18kDynamicBufferSealE @5826 DATA
    _ZN2v88internal3Log19output_code_handle_E @5827 DATA
    _ZN2v88internal3Log4InitEv @5828
    _ZN2v88internal3Log5CloseEv @5829
    _ZN2v88internal3Log5WriteE @5830 DATA
    _ZN2v88internal3Log6mutex_E @5831 DATA
    _ZN2v88internal3Log8OpenFileEPKc @5832
    _ZN2v88internal3Map12FindAccessorEPNS0_6StringE @5833
    _ZN2v88internal3Map14CopyNormalizedENS0_25PropertyNormalizationModeENS0_24NormalizedMapSharingModeE @5834
    _ZN2v88internal3Map15FindInCodeCacheEPNS0_6StringENS0_4Code5FlagsE @5835
    _ZN2v88internal3Map15UpdateCodeCacheEPNS0_6StringEPNS0_4CodeE @5836
    _ZN2v88internal3Map16IndexInCodeCacheEPNS0_6ObjectEPNS0_4CodeE @5837
    _ZN2v88internal3Map16PropertyIndexForEPNS0_6StringE @5838
    _ZN2v88internal3Map18CreateBackPointersEv @5839
    _ZN2v88internal3Map19CopyDropDescriptorsEv @5840
    _ZN2v88internal3Map19CopyDropTransitionsEv @5841
    _ZN2v88internal3Map19LookupInDescriptorsEPNS0_8JSObjectEPNS0_6StringEPNS0_12LookupResultE @5842
    _ZN2v88internal3Map19RemoveFromCodeCacheEPNS0_6StringEPNS0_4CodeEi @5843
    _ZN2v88internal3Map21NextFreePropertyIndexEv @5844
    _ZN2v88internal3Map22TraverseTransitionTreeEPFvPS1_PvES3_ @5845
    _ZN2v88internal3Map23ClearNonLiveTransitionsEPNS0_6ObjectE @5846
    _ZN2v88internal3Map27NumberOfDescribedPropertiesEv @5847
    _ZN2v88internal3Smi8SmiPrintEP9__sFILE64 @5848
    _ZN2v88internal3Smi8SmiPrintEPNS0_12StringStreamE @5849
    _ZN2v88internal3Top10InitializeEv @5850
    _ZN2v88internal3Top10PrintStackEPNS0_12StringStreamE @5851
    _ZN2v88internal3Top10PrintStackEv @5852
    _ZN2v88internal3Top13ArchiveThreadEPc @5853
    _ZN2v88internal3Top13IterateThreadEPNS0_13ThreadVisitorE @5854
    _ZN2v88internal3Top13IterateThreadEPNS0_13ThreadVisitorEPc @5855
    _ZN2v88internal3Top13RestoreThreadEPc @5856
    _ZN2v88internal3Top13ScheduleThrowEPNS0_6ObjectE @5857
    _ZN2v88internal3Top13StackOverflowEv @5858
    _ZN2v88internal3Top13break_access_E @5859 DATA
    _ZN2v88internal3Top13thread_local_E @5860 DATA
    _ZN2v88internal3Top14MayNamedAccessEPNS0_8JSObjectEPNS0_6ObjectENS_10AccessTypeE @5861
    _ZN2v88internal3Top14TraceExceptionEb @5862
    _ZN2v88internal3Top14global_contextEv @5863
    _ZN2v88internal3Top15ComputeLocationEPNS0_15MessageLocationE @5864
    _ZN2v88internal3Top16MayIndexedAccessEPNS0_8JSObjectEjNS_10AccessTypeE @5865
    _ZN2v88internal3Top16StackTraceStringEv @5866
    _ZN2v88internal3Top16is_out_of_memoryEv @5867
    _ZN2v88internal3Top17SetCurrentVMStateENS0_8StateTagE @5868
    _ZN2v88internal3Top18IsExternallyCaughtEv @5869
    _ZN2v88internal3Top18TerminateExecutionEv @5870
    _ZN2v88internal3Top19get_address_from_idENS1_9AddressIdE @5871
    _ZN2v88internal3Top21InitializeThreadLocalEv @5872
    _ZN2v88internal3Top21ReportPendingMessagesEv @5873
    _ZN2v88internal3Top21ShouldReportExceptionEPbb @5874
    _ZN2v88internal3Top21ThrowIllegalOperationEv @5875
    _ZN2v88internal3Top21kStackOverflowMessageE @5876 DATA
    _ZN2v88internal3Top22PrintCurrentStackTraceEP9__sFILE64 @5877
    _ZN2v88internal3Top23GetCallingGlobalContextEv @5878
    _ZN2v88internal3Top23RegisterTryCatchHandlerEPNS_8TryCatchE @5879
    _ZN2v88internal3Top23ReportFailedAccessCheckEPNS0_8JSObjectENS_10AccessTypeE @5880
    _ZN2v88internal3Top24CaptureCurrentStackTraceEiNS_10StackTrace17StackTraceOptionsE @5881
    _ZN2v88internal3Top24initial_object_prototypeEv @5882
    _ZN2v88internal3Top25PromoteScheduledExceptionEv @5883
    _ZN2v88internal3Top25UnregisterTryCatchHandlerEPNS_8TryCatchE @5884
    _ZN2v88internal3Top26context_extension_functionEv @5885
    _ZN2v88internal3Top27OptionalRescheduleExceptionEb @5886
    _ZN2v88internal3Top27runtime_profiler_semaphore_E @5887 DATA
    _ZN2v88internal3Top28SetFailedAccessCheckCallbackEPFvNS_5LocalINS_6ObjectEEENS_10AccessTypeENS2_INS_5ValueEEEE @5888
    _ZN2v88internal3Top41SetCaptureStackTraceForUncaughtExceptionsEbiNS_10StackTrace17StackTraceOptionsE @5889
    _ZN2v88internal3Top5ThrowEPNS0_6ObjectEPNS0_15MessageLocationE @5890
    _ZN2v88internal3Top7DoThrowEPNS0_11MaybeObjectEPNS0_15MessageLocationEPKc @5891
    _ZN2v88internal3Top7IterateEPNS0_13ObjectVisitorE @5892
    _ZN2v88internal3Top7IterateEPNS0_13ObjectVisitorEPNS0_14ThreadLocalTopE @5893
    _ZN2v88internal3Top7IterateEPNS0_13ObjectVisitorEPc @5894
    _ZN2v88internal3Top7ReThrowEPNS0_11MaybeObjectEPNS0_15MessageLocationE @5895
    _ZN2v88internal3Top8TearDownEv @5896
    _ZN2v88internal40ExternalTwoByteStringUC16CharacterStream15SlowSeekForwardEj @5897
    _ZN2v88internal40ExternalTwoByteStringUC16CharacterStream8PushBackEi @5898
    _ZN2v88internal40ExternalTwoByteStringUC16CharacterStream9ReadBlockEv @5899
    _ZN2v88internal40ExternalTwoByteStringUC16CharacterStreamC1ENS0_6HandleINS0_21ExternalTwoByteStringEEEii @5900
    _ZN2v88internal40ExternalTwoByteStringUC16CharacterStreamC2ENS0_6HandleINS0_21ExternalTwoByteStringEEEii @5901
    _ZN2v88internal40ExternalTwoByteStringUC16CharacterStreamD0Ev @5902
    _ZN2v88internal40ExternalTwoByteStringUC16CharacterStreamD1Ev @5903
    _ZN2v88internal40ExternalTwoByteStringUC16CharacterStreamD2Ev @5904
    _ZN2v88internal42OptimizedObjectForAddingMultiplePropertiesC1ENS0_6HandleINS0_8JSObjectEEEib @5905
    _ZN2v88internal42OptimizedObjectForAddingMultiplePropertiesC2ENS0_6HandleINS0_8JSObjectEEEib @5906
    _ZN2v88internal42OptimizedObjectForAddingMultiplePropertiesD1Ev @5907
    _ZN2v88internal42OptimizedObjectForAddingMultiplePropertiesD2Ev @5908
    _ZN2v88internal43capture_stack_trace_for_uncaught_exceptionsE @5909 DATA
    _ZN2v88internal43stack_trace_for_uncaught_exceptions_optionsE @5910 DATA
    _ZN2v88internal44DeferredIsStringWrapperSafeForDefaultValueOf8GenerateEv @5911
    _ZN2v88internal44DeferredIsStringWrapperSafeForDefaultValueOfD0Ev @5912
    _ZN2v88internal44DeferredIsStringWrapperSafeForDefaultValueOfD1Ev @5913
    _ZN2v88internal47stack_trace_for_uncaught_exceptions_frame_limitE @5914 DATA
    _ZN2v88internal4Call13ComputeTargetENS0_6HandleINS0_3MapEEENS2_INS0_6StringEEE @5915
    _ZN2v88internal4Call13IsMonomorphicEv @5916
    _ZN2v88internal4Call16GetReceiverTypesEv @5917
    _ZN2v88internal4Call18RecordTypeFeedbackEPNS0_18TypeFeedbackOracleE @5918
    _ZN2v88internal4Call19ComputeGlobalTargetENS0_6HandleINS0_12GlobalObjectEEENS2_INS0_6StringEEE @5919
    _ZN2v88internal4Call6AcceptEPNS0_10AstVisitorE @5920
    _ZN2v88internal4Call6AsCallEv @5921
    _ZN2v88internal4Call9sentinel_E @5922 DATA
    _ZN2v88internal4CallD0Ev @5923
    _ZN2v88internal4CallD1Ev @5924
    _ZN2v88internal4Code12FindFirstMapEv @5925
    _ZN2v88internal4Code14SourcePositionEPh @5926
    _ZN2v88internal4Code15CodeIterateBodyEPNS0_13ObjectVisitorE @5927
    _ZN2v88internal4Code17GetSafepointEntryEPh @5928
    _ZN2v88internal4Code20InvalidateRelocationEv @5929
    _ZN2v88internal4Code20SetNoStackCheckTableEv @5930
    _ZN2v88internal4Code23SourceStatementPositionEPh @5931
    _ZN2v88internal4Code8CopyFromERKNS0_8CodeDescE @5932
    _ZN2v88internal4Code8RelocateEi @5933
    _ZN2v88internal4CopyENS0_6HandleINS0_8JSObjectEEE @5934
    _ZN2v88internal4HAdd10DataEqualsEPNS0_6HValueE @5935
    _ZN2v88internal4HAdd10InferRangeEv @5936
    _ZN2v88internal4HAdd16CompileToLithiumEPNS0_13LChunkBuilderE @5937
    _ZN2v88internal4HAdd21CalculateInferredTypeEv @5938
    _ZN2v88internal4HAdd30EnsureAndPropagateNotMinusZeroEPNS0_9BitVectorE @5939
    _ZN2v88internal4HAddD0Ev @5940
    _ZN2v88internal4HAddD1Ev @5941
    _ZN2v88internal4HDiv10DataEqualsEPNS0_6HValueE @5942
    _ZN2v88internal4HDiv10InferRangeEv @5943
    _ZN2v88internal4HDiv16CompileToLithiumEPNS0_13LChunkBuilderE @5944
    _ZN2v88internal4HDiv30EnsureAndPropagateNotMinusZeroEPNS0_9BitVectorE @5945
    _ZN2v88internal4HDivC1EPNS0_6HValueES3_ @5946
    _ZN2v88internal4HDivD0Ev @5947
    _ZN2v88internal4HDivD1Ev @5948
    _ZN2v88internal4HMod10DataEqualsEPNS0_6HValueE @5949
    _ZN2v88internal4HMod10InferRangeEv @5950
    _ZN2v88internal4HMod16CompileToLithiumEPNS0_13LChunkBuilderE @5951
    _ZN2v88internal4HMod30EnsureAndPropagateNotMinusZeroEPNS0_9BitVectorE @5952
    _ZN2v88internal4HModD0Ev @5953
    _ZN2v88internal4HModD1Ev @5954
    _ZN2v88internal4HMul10DataEqualsEPNS0_6HValueE @5955
    _ZN2v88internal4HMul10InferRangeEv @5956
    _ZN2v88internal4HMul16CompileToLithiumEPNS0_13LChunkBuilderE @5957
    _ZN2v88internal4HMul30EnsureAndPropagateNotMinusZeroEPNS0_9BitVectorE @5958
    _ZN2v88internal4HMulD0Ev @5959
    _ZN2v88internal4HMulD1Ev @5960
    _ZN2v88internal4HPhi10InferRangeEv @5961
    _ZN2v88internal4HPhi12InitRealUsesEi @5962
    _ZN2v88internal4HPhi12OperandCountEv @5963
    _ZN2v88internal4HPhi15DeleteFromGraphEv @5964
    _ZN2v88internal4HPhi17AddIndirectUsesToEPi @5965
    _ZN2v88internal4HPhi17AddNonPhiUsesFromEPS1_ @5966
    _ZN2v88internal4HPhi20InternalSetOperandAtEiPNS0_6HValueE @5967
    _ZN2v88internal4HPhi21CalculateInferredTypeEv @5968
    _ZN2v88internal4HPhi22InferredRepresentationEv @5969
    _ZN2v88internal4HPhi23GetRedundantReplacementEv @5970
    _ZN2v88internal4HPhi7PrintToEPNS0_12StringStreamE @5971
    _ZN2v88internal4HPhi8AddInputEPNS0_6HValueE @5972
    _ZN2v88internal4HPhi9OperandAtEi @5973
    _ZN2v88internal4HPhiD0Ev @5974
    _ZN2v88internal4HPhiD1Ev @5975
    _ZN2v88internal4HSar10DataEqualsEPNS0_6HValueE @5976
    _ZN2v88internal4HSar10InferRangeEv @5977
    _ZN2v88internal4HSar16CompileToLithiumEPNS0_13LChunkBuilderE @5978
    _ZN2v88internal4HSar21CalculateInferredTypeEv @5979
    _ZN2v88internal4HSarD0Ev @5980
    _ZN2v88internal4HSarD1Ev @5981
    _ZN2v88internal4HShl10DataEqualsEPNS0_6HValueE @5982
    _ZN2v88internal4HShl10InferRangeEv @5983
    _ZN2v88internal4HShl16CompileToLithiumEPNS0_13LChunkBuilderE @5984
    _ZN2v88internal4HShl21CalculateInferredTypeEv @5985
    _ZN2v88internal4HShlD0Ev @5986
    _ZN2v88internal4HShlD1Ev @5987
    _ZN2v88internal4HShr10DataEqualsEPNS0_6HValueE @5988
    _ZN2v88internal4HShr16CompileToLithiumEPNS0_13LChunkBuilderE @5989
    _ZN2v88internal4HShr21CalculateInferredTypeEv @5990
    _ZN2v88internal4HShrD0Ev @5991
    _ZN2v88internal4HShrD1Ev @5992
    _ZN2v88internal4HSub10DataEqualsEPNS0_6HValueE @5993
    _ZN2v88internal4HSub10InferRangeEv @5994
    _ZN2v88internal4HSub16CompileToLithiumEPNS0_13LChunkBuilderE @5995
    _ZN2v88internal4HSub30EnsureAndPropagateNotMinusZeroEPNS0_9BitVectorE @5996
    _ZN2v88internal4HSubD0Ev @5997
    _ZN2v88internal4HSubD1Ev @5998
    _ZN2v88internal4Heap10CreateCodeERKNS0_8CodeDescENS0_4Code5FlagsENS0_6HandleINS0_6ObjectEEE @5999
    _ZN2v88internal4Heap10DoScavengeEPNS0_13ObjectVisitorEPh @6000
    _ZN2v88internal4Heap10map_space_E @6001 DATA
    _ZN2v88internal4Heap10new_space_E @6002 DATA
    _ZN2v88internal4Heap11AllocateMapENS0_12InstanceTypeEi @6003
    _ZN2v88internal4Heap11AllocateRawEiNS0_15AllocationSpaceES2_ @6004
    _ZN2v88internal4Heap11MarkCompactEPNS0_8GCTracerE @6005
    _ZN2v88internal4Heap11RecordStatsEPNS0_9HeapStatsEb @6006
    _ZN2v88internal4Heap11RecordWriteEPhi @6007
    _ZN2v88internal4Heap11cell_space_E @6008 DATA
    _ZN2v88internal4Heap11code_space_E @6009 DATA
    _ZN2v88internal4Heap12CopyJSObjectEPNS0_8JSObjectE @6010
    _ZN2v88internal4Heap12HasBeenSetupEv @6011
    _ZN2v88internal4Heap12IterateRootsEPNS0_13ObjectVisitorENS0_9VisitModeE @6012
    _ZN2v88internal4Heap12LookupSymbolENS0_6VectorIKcEE @6013
    _ZN2v88internal4Heap12LookupSymbolEPNS0_6StringE @6014
    _ZN2v88internal4Heap12ReserveSpaceEiiiiiii @6015
    _ZN2v88internal4Heap12struct_tableE @6016 DATA
    _ZN2v88internal4Heap13AllocateProxyEPhNS0_13PretenureFlagE @6017
    _ZN2v88internal4Heap13ConfigureHeapEiii @6018
    _ZN2v88internal4Heap13CreateOddballEPKcPNS0_6ObjectE @6019
    _ZN2v88internal4Heap13SizeOfObjectsEv @6020
    _ZN2v88internal4Heap14AllocateStructENS0_12InstanceTypeE @6021
    _ZN2v88internal4Heap14AllocateSymbolENS0_6VectorIKcEEij @6022
    _ZN2v88internal4Heap14CollectGarbageENS0_15AllocationSpaceENS0_16GarbageCollectorE @6023
    _ZN2v88internal4Heap14FindCodeObjectEPh @6024
    _ZN2v88internal4Heap14NumberToStringEPNS0_6ObjectEb @6025
    _ZN2v88internal4Heap14SetStackLimitsEv @6026
    _ZN2v88internal4Heap14hidden_symbol_E @6027 DATA
    _ZN2v88internal4Heap14survival_rate_E @6028 DATA
    _ZN2v88internal4Heap15CommittedMemoryEv @6029
    _ZN2v88internal4Heap15PerformScavengeEv @6030
    _ZN2v88internal4Heap15ScavengePointerEPPNS0_10HeapObjectE @6031
    _ZN2v88internal4Heap15old_data_space_E @6032 DATA
    _ZN2v88internal4Heap16AllocateFunctionEPNS0_3MapEPNS0_18SharedFunctionInfoEPNS0_6ObjectENS0_13PretenureFlagE @6033
    _ZN2v88internal4Heap16AllocateJSObjectEPNS0_10JSFunctionENS0_13PretenureFlagE @6034
    _ZN2v88internal4Heap16CreateApiObjectsEv @6035
    _ZN2v88internal4Heap16CreateCEntryStubEv @6036
    _ZN2v88internal4Heap16CreateFixedStubsEv @6037
    _ZN2v88internal4Heap16IdleNotificationEv @6038
    _ZN2v88internal4Heap16IterateWeakRootsEPNS0_13ObjectVisitorENS0_9VisitModeE @6039
    _ZN2v88internal4Heap16NumberFromDoubleEdNS0_13PretenureFlagE @6040
    _ZN2v88internal4Heap16code_range_size_E @6041 DATA
    _ZN2v88internal4Heap17AllocateByteArrayEi @6042
    _ZN2v88internal4Heap17AllocateByteArrayEiNS0_13PretenureFlagE @6043
    _ZN2v88internal4Heap17AllocateCodeCacheEv @6044
    _ZN2v88internal4Heap17AllocateHashTableEiNS0_13PretenureFlagE @6045
    _ZN2v88internal4Heap17AllocateSubStringEPNS0_6StringEiiNS0_13PretenureFlagE @6046
    _ZN2v88internal4Heap17CollectAllGarbageEb @6047
    _ZN2v88internal4Heap17CreateInitialMapsEv @6048
    _ZN2v88internal4Heap17CreateJSEntryStubEv @6049
    _ZN2v88internal4Heap17LookupAsciiSymbolENS0_6VectorIKcEE @6050
    _ZN2v88internal4Heap17LookupAsciiSymbolEPKc @6051
    _ZN2v88internal4Heap17PrepareForCompareEPNS0_6StringE @6052
    _ZN2v88internal4Heap17PromotedSpaceSizeEv @6053
    _ZN2v88internal4Heap17string_type_tableE @6054 DATA
    _ZN2v88internal4Heap18AllocateConsStringEPNS0_6StringES3_ @6055
    _ZN2v88internal4Heap18AllocateFixedArrayEi @6056
    _ZN2v88internal4Heap18AllocateFixedArrayEiNS0_13PretenureFlagE @6057
    _ZN2v88internal4Heap18AllocateHeapNumberEd @6058
    _ZN2v88internal4Heap18AllocateHeapNumberEdNS0_13PretenureFlagE @6059
    _ZN2v88internal4Heap18AllocateInitialMapEPNS0_10JSFunctionE @6060
    _ZN2v88internal4Heap18AllocatePartialMapENS0_12InstanceTypeEi @6061
    _ZN2v88internal4Heap18AllocatePixelArrayEiPhNS0_13PretenureFlagE @6062
    _ZN2v88internal4Heap18InitializeFunctionEPNS0_10JSFunctionEPNS0_18SharedFunctionInfoEPNS0_6ObjectE @6063
    _ZN2v88internal4Heap18IterateStrongRootsEPNS0_13ObjectVisitorENS0_9VisitModeE @6064
    _ZN2v88internal4Heap18ScavengeObjectSlowEPPNS0_10HeapObjectES3_ @6065
    _ZN2v88internal4Heap18SymbolMapForStringEPNS0_6StringE @6066
    _ZN2v88internal4Heap18contexts_disposed_E @6067 DATA
    _ZN2v88internal4Heap18old_gen_exhausted_E @6068 DATA
    _ZN2v88internal4Heap18old_pointer_space_E @6069 DATA
    _ZN2v88internal4Heap19AllocateWithContextEPNS0_7ContextEPNS0_8JSObjectEb @6070
    _ZN2v88internal4Heap19IterateDirtyRegionsEPNS0_10PagedSpaceEPFbPhS4_PFvPPNS0_10HeapObjectEEES9_NS1_26ExpectedPageWatermarkStateE @6071
    _ZN2v88internal4Heap19IterateDirtyRegionsEjPhS2_PFbS2_S2_PFvPPNS0_10HeapObjectEEES7_ @6072
    _ZN2v88internal4Heap19LookupTwoByteSymbolENS0_6VectorIKtEE @6073
    _ZN2v88internal4Heap19MarkCompactPrologueEb @6074
    _ZN2v88internal4Heap19max_semispace_size_E @6075 DATA
    _ZN2v88internal4Heap20AllocateGlobalObjectEPNS0_10JSFunctionE @6076
    _ZN2v88internal4Heap20ConfigureHeapDefaultEv @6077
    _ZN2v88internal4Heap20CreateFillerObjectAtEPhi @6078
    _ZN2v88internal4Heap20CreateInitialObjectsEv @6079
    _ZN2v88internal4Heap20GetNumberStringCacheEPNS0_6ObjectE @6080
    _ZN2v88internal4Heap20LookupSymbolIfExistsEPNS0_6StringEPS3_ @6081
    _ZN2v88internal4Heap20SetNumberStringCacheEPNS0_6ObjectEPNS0_6StringE @6082
    _ZN2v88internal4Heap20max_executable_size_E @6083 DATA
    _ZN2v88internal4Heap20survival_rate_trend_E @6084 DATA
    _ZN2v88internal4Heap21AddGCEpilogueCallbackEPFvNS_6GCTypeENS_15GCCallbackFlagsEES2_ @6085
    _ZN2v88internal4Heap21AddGCPrologueCallbackEPFvNS_6GCTypeENS_15GCCallbackFlagsEES2_ @6086
    _ZN2v88internal4Heap21AllocateExternalArrayEiNS_17ExternalArrayTypeEPvNS0_13PretenureFlagE @6087
    _ZN2v88internal4Heap21AllocateGlobalContextEv @6088
    _ZN2v88internal4Heap21AllocateRawFixedArrayEi @6089
    _ZN2v88internal4Heap21AllocateRawFixedArrayEiNS0_13PretenureFlagE @6090
    _ZN2v88internal4Heap21CopyFixedArrayWithMapEPNS0_10FixedArrayEPNS0_3MapE @6091
    _ZN2v88internal4Heap21GcSafeSizeOfOldObjectEPNS0_10HeapObjectE @6092
    _ZN2v88internal4Heap21ProcessWeakReferencesEPNS0_18WeakObjectRetainerE @6093
    _ZN2v88internal4Heap21constant_symbol_tableE @6094 DATA
    _ZN2v88internal4Heap21global_contexts_list_E @6095 DATA
    _ZN2v88internal4Heap22AllocateInternalSymbolEPN7unibrow15CharacterStreamEij @6096
    _ZN2v88internal4Heap22AllocateRawAsciiStringEiNS0_13PretenureFlagE @6097
    _ZN2v88internal4Heap22AllocateStringFromUtf8ENS0_6VectorIKcEENS0_13PretenureFlagE @6098
    _ZN2v88internal4Heap22FlushNumberStringCacheEv @6099
    _ZN2v88internal4Heap22SelectGarbageCollectorENS0_15AllocationSpaceE @6100
    _ZN2v88internal4Heap22gc_epilogue_callbacks_E @6101 DATA
    _ZN2v88internal4Heap22gc_prologue_callbacks_E @6102 DATA
    _ZN2v88internal4Heap23AllocateArgumentsObjectEPNS0_6ObjectEi @6103
    _ZN2v88internal4Heap23AllocateEmptyFixedArrayEv @6104
    _ZN2v88internal4Heap23AllocateFunctionContextEiPNS0_10JSFunctionE @6105
    _ZN2v88internal4Heap23AllocateJSMessageObjectEPNS0_6StringEPNS0_7JSArrayEiiPNS0_6ObjectES7_S7_ @6106
    _ZN2v88internal4Heap23AllocateJSObjectFromMapEPNS0_3MapENS0_13PretenureFlagE @6107
    _ZN2v88internal4Heap23AllocateStringFromAsciiENS0_6VectorIKcEENS0_13PretenureFlagE @6108
    _ZN2v88internal4Heap23MapForExternalArrayTypeENS_17ExternalArrayTypeE @6109
    _ZN2v88internal4Heap23ReportStatisticsAfterGCEv @6110
    _ZN2v88internal4Heap23UpdateSurvivalRateTrendEi @6111
    _ZN2v88internal4Heap23initial_semispace_size_E @6112 DATA
    _ZN2v88internal4Heap24AllocateRawTwoByteStringEiNS0_13PretenureFlagE @6113
    _ZN2v88internal4Heap24ClearNormalizedMapCachesEv @6114
    _ZN2v88internal4Heap24PerformGarbageCollectionENS0_16GarbageCollectorEPNS0_8GCTracerE @6115
    _ZN2v88internal4Heap24PrintShortHeapStatisticsEv @6116
    _ZN2v88internal4Heap24RemoveGCEpilogueCallbackEPFvNS_6GCTypeENS_15GCCallbackFlagsEE @6117
    _ZN2v88internal4Heap24RemoveGCPrologueCallbackEPFvNS_6GCTypeENS_15GCCallbackFlagsEE @6118
    _ZN2v88internal4Heap24ReportStatisticsBeforeGCEv @6119
    _ZN2v88internal4Heap24max_old_generation_size_E @6120 DATA
    _ZN2v88internal4Heap24old_gen_promotion_limit_E @6121 DATA
    _ZN2v88internal4Heap24reserved_semispace_size_E @6122 DATA
    _ZN2v88internal4Heap25AllocateFunctionPrototypeEPNS0_10JSFunctionE @6123
    _ZN2v88internal4Heap25AllocateStringFromTwoByteENS0_6VectorIKtEENS0_13PretenureFlagE @6124
    _ZN2v88internal4Heap25CommittedMemoryExecutableEv @6125
    _ZN2v88internal4Heap25GarbageCollectionEpilogueEv @6126
    _ZN2v88internal4Heap25GarbageCollectionPrologueEv @6127
    _ZN2v88internal4Heap25InitializeJSObjectFromMapEPNS0_8JSObjectEPNS0_10FixedArrayEPNS0_3MapE @6128
    _ZN2v88internal4Heap25ReinitializeJSGlobalProxyEPNS0_10JSFunctionEPNS0_13JSGlobalProxyE @6129
    _ZN2v88internal4Heap25old_gen_allocation_limit_E @6130 DATA
    _ZN2v88internal4Heap26AllocateSharedFunctionInfoEPNS0_6ObjectE @6131
    _ZN2v88internal4Heap26AllocateStringFromUtf8SlowENS0_6VectorIKcEENS0_13PretenureFlagE @6132
    _ZN2v88internal4Heap26CollectAllAvailableGarbageEv @6133
    _ZN2v88internal4Heap26CreateJSConstructEntryStubEv @6134
    _ZN2v88internal4Heap26EnsureFromSpaceIsCommittedEv @6135
    _ZN2v88internal4Heap26PromotedExternalMemorySizeEv @6136
    _ZN2v88internal4Heap26external_allocation_limit_E @6137 DATA
    _ZN2v88internal4Heap27AllocateFixedArrayWithHolesEiNS0_13PretenureFlagE @6138
    _ZN2v88internal4Heap27ClearJSFunctionResultCachesEv @6139
    _ZN2v88internal4Heap27InitializeNumberStringCacheEv @6140
    _ZN2v88internal4Heap27gc_safe_size_of_old_object_E @6141 DATA
    _ZN2v88internal4Heap27unflattened_strings_length_E @6142 DATA
    _ZN2v88internal4Heap28AllocateJSGlobalPropertyCellEPNS0_6ObjectE @6143
    _ZN2v88internal4Heap28IteratePointersInDirtyRegionEPhS2_PFvPPNS0_10HeapObjectEE @6144
    _ZN2v88internal4Heap28always_allocate_scope_depth_E @6145 DATA
    _ZN2v88internal4Heap28global_gc_epilogue_callback_E @6146 DATA
    _ZN2v88internal4Heap28global_gc_prologue_callback_E @6147 DATA
    _ZN2v88internal4Heap29RootIndexForExternalArrayTypeENS_17ExternalArrayTypeE @6148
    _ZN2v88internal4Heap29previous_survival_rate_trend_E @6149 DATA
    _ZN2v88internal4Heap30CheckNewSpaceExpansionCriteriaEv @6150
    _ZN2v88internal4Heap30linear_allocation_scope_depth_E @6151 DATA
    _ZN2v88internal4Heap30survived_since_last_expansion_E @6152 DATA
    _ZN2v88internal4Heap30young_survivors_after_last_gc_E @6153 DATA
    _ZN2v88internal4Heap31AllocateExternalStringFromAsciiEPNS_6String27ExternalAsciiStringResourceE @6154
    _ZN2v88internal4Heap31AllocateUninitializedFixedArrayEi @6155
    _ZN2v88internal4Heap32IteratePointersInDirtyMapsRegionEPhS2_PFvPPNS0_10HeapObjectEE @6156
    _ZN2v88internal4Heap33AllocateExternalStringFromTwoByteEPNS_6String22ExternalStringResourceE @6157
    _ZN2v88internal4Heap33IterateAndMarkPointersToFromSpaceEPhS2_PFvPPNS0_10HeapObjectEE @6158
    _ZN2v88internal4Heap33high_survival_rate_period_length_E @6159 DATA
    _ZN2v88internal4Heap35GcSafeSizeOfOldObjectWithEncodedMapEPNS0_10HeapObjectE @6160
    _ZN2v88internal4Heap35LookupSingleCharacterStringFromCodeEt @6161
    _ZN2v88internal4Heap36amount_of_external_allocated_memory_E @6162 DATA
    _ZN2v88internal4Heap45UpdateNewSpaceReferencesInExternalStringTableEPFPNS0_6StringEPPNS0_6ObjectEE @6163
    _ZN2v88internal4Heap49UpdateNewSpaceReferenceInExternalStringTableEntryEPPNS0_6ObjectE @6164
    _ZN2v88internal4Heap54amount_of_external_allocated_memory_at_last_global_gc_E @6165 DATA
    _ZN2v88internal4Heap5SetupEb @6166
    _ZN2v88internal4Heap6ShrinkEv @6167
    _ZN2v88internal4Heap6roots_E @6168 DATA
    _ZN2v88internal4Heap7InSpaceEPNS0_10HeapObjectENS0_15AllocationSpaceE @6169
    _ZN2v88internal4Heap7InSpaceEPhNS0_15AllocationSpaceE @6170
    _ZN2v88internal4Heap7tracer_E @6171 DATA
    _ZN2v88internal4Heap8AllocateEPNS0_3MapENS0_15AllocationSpaceE @6172
    _ZN2v88internal4Heap8CapacityEv @6173
    _ZN2v88internal4Heap8ContainsEPNS0_10HeapObjectE @6174
    _ZN2v88internal4Heap8ContainsEPh @6175
    _ZN2v88internal4Heap8CopyCodeEPNS0_4CodeE @6176
    _ZN2v88internal4Heap8CopyCodeEPNS0_4CodeENS0_6VectorIhEE @6177
    _ZN2v88internal4Heap8ScavengeEv @6178
    _ZN2v88internal4Heap8TearDownEv @6179
    _ZN2v88internal4Heap9AvailableEv @6180
    _ZN2v88internal4Heap9gc_count_E @6181 DATA
    _ZN2v88internal4Heap9gc_state_E @6182 DATA
    _ZN2v88internal4Heap9lo_space_E @6183 DATA
    _ZN2v88internal4Heap9mc_count_E @6184 DATA
    _ZN2v88internal4Heap9ms_count_E @6185 DATA
    _ZN2v88internal4LGap11PrintDataToEPNS0_12StringStreamE @6186
    _ZN2v88internal4LGap15CompileToNativeEPNS0_8LCodeGenE @6187
    _ZN2v88internal4LGapD0Ev @6188
    _ZN2v88internal4LGapD1Ev @6189
    _ZN2v88internal4ListINS0_14CharacterRangeENS0_24ZoneListAllocationPolicyEE17ResizeAddInternalERKS2_ @6190
    _ZN2v88internal4ListINS0_14CharacterRangeENS0_24ZoneListAllocationPolicyEE3AddERKS2_ @6191
    _ZN2v88internal4ListINS0_15ClustersCoarser15ClusterBackRefsENS0_24ZoneListAllocationPolicyEE17ResizeAddInternalERKS3_ @6192
    _ZN2v88internal4ListINS0_21SafepointTableBuilder18DeoptimizationInfoENS0_24ZoneListAllocationPolicyEE17ResizeAddInternalERKS3_ @6193
    _ZN2v88internal4ListINS0_35HeapNumberMaterializationDescriptorENS0_25FreeStoreAllocationPolicyEE17ResizeAddInternalERKS2_ @6194
    _ZN2v88internal4ListINS0_6HandleINS0_6StringEEENS0_24ZoneListAllocationPolicyEE8AddBlockES4_i @6195
    _ZN2v88internal4Page27watermark_invalidated_mark_E @6196 DATA
    _ZN2v88internal4Slot6AcceptEPNS0_10AstVisitorE @6197
    _ZN2v88internal4Slot6AsSlotEv @6198
    _ZN2v88internal4SlotD0Ev @6199
    _ZN2v88internal4SlotD1Ev @6200
    _ZN2v88internal4Zone16allocation_size_E @6201 DATA
    _ZN2v88internal4Zone18zone_excess_limit_E @6202 DATA
    _ZN2v88internal4Zone24segment_bytes_allocated_E @6203 DATA
    _ZN2v88internal4Zone3NewEi @6204
    _ZN2v88internal4Zone6limit_E @6205 DATA
    _ZN2v88internal4Zone9DeleteAllEv @6206
    _ZN2v88internal4Zone9NewExpandEi @6207
    _ZN2v88internal4Zone9position_E @6208 DATA
    _ZN2v88internal5Block25StatementAsCountOperationEv @6209
    _ZN2v88internal5Block27StatementAsSimpleAssignmentEv @6210
    _ZN2v88internal5Block6AcceptEPNS0_10AstVisitorE @6211
    _ZN2v88internal5Block7AsBlockEv @6212
    _ZN2v88internal5BlockC1EPNS0_8ZoneListINS0_6HandleINS0_6StringEEEEEib @6213
    _ZN2v88internal5BlockD0Ev @6214
    _ZN2v88internal5BlockD1Ev @6215
    _ZN2v88internal5Debug10ThreadInitEv @6216
    _ZN2v88internal5Debug10registers_E @6217 DATA
    _ZN2v88internal5Debug11ClearStepInEv @6218
    _ZN2v88internal5Debug11IsBreakStubEPNS0_4CodeE @6219
    _ZN2v88internal5Debug11PrepareStepENS0_10StepActionEi @6220
    _ZN2v88internal5Debug12ArchiveDebugEPc @6221
    _ZN2v88internal5Debug12ClearOneShotEv @6222
    _ZN2v88internal5Debug12ClearStepOutEv @6223
    _ZN2v88internal5Debug12GenerateSlotEPNS0_14MacroAssemblerE @6224
    _ZN2v88internal5Debug12GetDebugInfoENS0_6HandleINS0_18SharedFunctionInfoEEE @6225
    _ZN2v88internal5Debug12HandleStepInENS0_6HandleINS0_10JSFunctionEEENS2_INS0_6ObjectEEEPhb @6226
    _ZN2v88internal5Debug12HasDebugInfoENS0_6HandleINS0_18SharedFunctionInfoEEE @6227
    _ZN2v88internal5Debug12IsDebugBreakEPh @6228
    _ZN2v88internal5Debug12RestoreDebugEPc @6229
    _ZN2v88internal5Debug13ClearStepNextEv @6230
    _ZN2v88internal5Debug13ClearSteppingEv @6231
    _ZN2v88internal5Debug13IsDebugGlobalEPNS0_12GlobalObjectE @6232
    _ZN2v88internal5Debug13SetBreakPointENS0_6HandleINS0_18SharedFunctionInfoEEENS2_INS0_6ObjectEEEPi @6233
    _ZN2v88internal5Debug13script_cache_E @6234 DATA
    _ZN2v88internal5Debug13thread_local_E @6235 DATA
    _ZN2v88internal5Debug14ActivateStepInEPNS0_10StackFrameE @6236
    _ZN2v88internal5Debug14FindDebugBreakENS0_6HandleINS0_4CodeEEENS0_9RelocInfo4ModeE @6237
    _ZN2v88internal5Debug14debug_context_E @6238 DATA
    _ZN2v88internal5Debug14disable_break_E @6239 DATA
    _ZN2v88internal5Debug15ActivateStepOutEPNS0_10StackFrameE @6240
    _ZN2v88internal5Debug15CheckBreakPointENS0_6HandleINS0_6ObjectEEE @6241
    _ZN2v88internal5Debug15ClearBreakPointENS0_6HandleINS0_6ObjectEEE @6242
    _ZN2v88internal5Debug15EnsureDebugInfoENS0_6HandleINS0_18SharedFunctionInfoEEE @6243
    _ZN2v88internal5Debug15IsBreakAtReturnEPNS0_15JavaScriptFrameE @6244
    _ZN2v88internal5Debug15RemoveDebugInfoENS0_6HandleINS0_9DebugInfoEEE @6245
    _ZN2v88internal5Debug16CheckBreakPointsENS0_6HandleINS0_6ObjectEEE @6246
    _ZN2v88internal5Debug16ClearMirrorCacheEv @6247
    _ZN2v88internal5Debug16FloodWithOneShotENS0_6HandleINS0_18SharedFunctionInfoEEE @6248
    _ZN2v88internal5Debug16GetLoadedScriptsEv @6249
    _ZN2v88internal5Debug16StepNextContinueEPNS0_21BreakLocationIteratorEPNS0_15JavaScriptFrameE @6250
    _ZN2v88internal5Debug16debug_info_list_E @6251 DATA
    _ZN2v88internal5Debug17CreateScriptCacheEv @6252
    _ZN2v88internal5Debug17IsSourceBreakStubEPNS0_4CodeE @6253
    _ZN2v88internal5Debug17debug_break_slot_E @6254 DATA
    _ZN2v88internal5Debug17has_break_points_E @6255 DATA
    _ZN2v88internal5Debug18DestroyScriptCacheEv @6256
    _ZN2v88internal5Debug18IsBreakOnExceptionENS0_18ExceptionBreakTypeE @6257
    _ZN2v88internal5Debug19ClearAllBreakPointsEv @6258
    _ZN2v88internal5Debug19HandleWeakDebugInfoENS_10PersistentINS_5ValueEEEPv @6259
    _ZN2v88internal5Debug19SetAfterBreakTargetEPNS0_15JavaScriptFrameE @6260
    _ZN2v88internal5Debug19break_on_exception_E @6261 DATA
    _ZN2v88internal5Debug19debug_break_return_E @6262 DATA
    _ZN2v88internal5Debug20IsDebugBreakAtReturnEPNS0_9RelocInfoE @6263
    _ZN2v88internal5Debug21ArchiveSpacePerThreadEv @6264
    _ZN2v88internal5Debug21CompileDebuggerScriptEi @6265
    _ZN2v88internal5Debug21FramesHaveBeenDroppedENS0_10StackFrame2IdENS1_13FrameDropModeEPPNS0_6ObjectE @6266
    _ZN2v88internal5Debug22AddScriptToScriptCacheENS0_6HandleINS0_6ScriptEEE @6267
    _ZN2v88internal5Debug22AfterGarbageCollectionEv @6268
    _ZN2v88internal5Debug22ChangeBreakOnExceptionENS0_18ExceptionBreakTypeEb @6269
    _ZN2v88internal5Debug22GenerateSlotDebugBreakEPNS0_14MacroAssemblerE @6270
    _ZN2v88internal5Debug22SetUpFrameDropperFrameEPNS0_10StackFrameENS0_6HandleINS0_4CodeEEE @6271
    _ZN2v88internal5Debug22kFrameDropperFrameSizeE @6272 DATA
    _ZN2v88internal5Debug22kFrameDropperSupportedE @6273 DATA
    _ZN2v88internal5Debug23FloodHandlerWithOneShotEv @6274
    _ZN2v88internal5Debug23GetSourceBreakLocationsENS0_6HandleINS0_18SharedFunctionInfoEEE @6275
    _ZN2v88internal5Debug24GenerateCallICDebugBreakEPNS0_14MacroAssemblerE @6276
    _ZN2v88internal5Debug24GenerateLoadICDebugBreakEPNS0_14MacroAssemblerE @6277
    _ZN2v88internal5Debug24GenerateReturnDebugBreakEPNS0_14MacroAssemblerE @6278
    _ZN2v88internal5Debug25GenerateStoreICDebugBreakEPNS0_14MacroAssemblerE @6279
    _ZN2v88internal5Debug25PreemptionWhileInDebuggerEv @6280
    _ZN2v88internal5Debug27GeneratePlainReturnLiveEditEPNS0_14MacroAssemblerE @6281
    _ZN2v88internal5Debug28GenerateFrameDropperLiveEditEPNS0_14MacroAssemblerE @6282
    _ZN2v88internal5Debug28break_on_uncaught_exception_E @6283 DATA
    _ZN2v88internal5Debug29GenerateKeyedLoadICDebugBreakEPNS0_14MacroAssemblerE @6284
    _ZN2v88internal5Debug30GenerateKeyedStoreICDebugBreakEPNS0_14MacroAssemblerE @6285
    _ZN2v88internal5Debug31GenerateConstructCallDebugBreakEPNS0_14MacroAssemblerE @6286
    _ZN2v88internal5Debug33GenerateStubNoRegistersDebugBreakEPNS0_14MacroAssemblerE @6287
    _ZN2v88internal5Debug4LoadEv @6288
    _ZN2v88internal5Debug5BreakENS0_9ArgumentsE @6289
    _ZN2v88internal5Debug5SetupEb @6290
    _ZN2v88internal5Debug6UnloadEv @6291
    _ZN2v88internal5Debug7IterateEPNS0_13ObjectVisitorE @6292
    _ZN2v88internal5Debug8NewBreakENS0_10StackFrame2IdE @6293
    _ZN2v88internal5Debug8SetBreakENS0_10StackFrame2IdEi @6294
    _ZN2v88internal5DiyFp8MultiplyERKS1_ @6295
    _ZN2v88internal5FlushEP9__sFILE64 @6296
    _ZN2v88internal5HCallILi0EE21CalculateInferredTypeEv @6297
    _ZN2v88internal5HCallILi0EE6IsCallEv @6298
    _ZN2v88internal5HCallILi0EED0Ev @6299
    _ZN2v88internal5HCallILi0EED1Ev @6300
    _ZN2v88internal5HCallILi1EE21CalculateInferredTypeEv @6301
    _ZN2v88internal5HCallILi1EE6IsCallEv @6302
    _ZN2v88internal5HCallILi1EED0Ev @6303
    _ZN2v88internal5HCallILi1EED1Ev @6304
    _ZN2v88internal5HCallILi2EE21CalculateInferredTypeEv @6305
    _ZN2v88internal5HCallILi2EE6IsCallEv @6306
    _ZN2v88internal5HCallILi2EED0Ev @6307
    _ZN2v88internal5HCallILi2EED1Ev @6308
    _ZN2v88internal5HGoto16CompileToLithiumEPNS0_13LChunkBuilderE @6309
    _ZN2v88internal5HGotoD0Ev @6310
    _ZN2v88internal5HGotoD1Ev @6311
    _ZN2v88internal5HTest16CompileToLithiumEPNS0_13LChunkBuilderE @6312
    _ZN2v88internal5HTestD0Ev @6313
    _ZN2v88internal5HTestD1Ev @6314
    _ZN2v88internal5HType13ToShortStringEv @6315
    _ZN2v88internal5HType13TypeFromValueENS0_6HandleINS0_6ObjectEEE @6316
    _ZN2v88internal5HType8ToStringEv @6317
    _ZN2v88internal5LAddI15CompileToNativeEPNS0_8LCodeGenE @6318
    _ZN2v88internal5LAddID0Ev @6319
    _ZN2v88internal5LAddID1Ev @6320
    _ZN2v88internal5LBitI15CompileToNativeEPNS0_8LCodeGenE @6321
    _ZN2v88internal5LBitID0Ev @6322
    _ZN2v88internal5LBitID1Ev @6323
    _ZN2v88internal5LCmpT15CompileToNativeEPNS0_8LCodeGenE @6324
    _ZN2v88internal5LCmpTD0Ev @6325
    _ZN2v88internal5LCmpTD1Ev @6326
    _ZN2v88internal5LDivI15CompileToNativeEPNS0_8LCodeGenE @6327
    _ZN2v88internal5LDivID0Ev @6328
    _ZN2v88internal5LDivID1Ev @6329
    _ZN2v88internal5LGoto11PrintDataToEPNS0_12StringStreamE @6330
    _ZN2v88internal5LGoto15CompileToNativeEPNS0_8LCodeGenE @6331
    _ZN2v88internal5LGotoD0Ev @6332
    _ZN2v88internal5LGotoD1Ev @6333
    _ZN2v88internal5LModI15CompileToNativeEPNS0_8LCodeGenE @6334
    _ZN2v88internal5LModID0Ev @6335
    _ZN2v88internal5LModID1Ev @6336
    _ZN2v88internal5LMulI15CompileToNativeEPNS0_8LCodeGenE @6337
    _ZN2v88internal5LMulID0Ev @6338
    _ZN2v88internal5LMulID1Ev @6339
    _ZN2v88internal5LSubI15CompileToNativeEPNS0_8LCodeGenE @6340
    _ZN2v88internal5LSubID0Ev @6341
    _ZN2v88internal5LSubID1Ev @6342
    _ZN2v88internal5MutexD0Ev @6343
    _ZN2v88internal5MutexD1Ev @6344
    _ZN2v88internal5Range11AddConstantEi @6345
    _ZN2v88internal5Range19AddAndCheckOverflowEPS1_ @6346
    _ZN2v88internal5Range19MulAndCheckOverflowEPS1_ @6347
    _ZN2v88internal5Range19SubAndCheckOverflowEPS1_ @6348
    _ZN2v88internal5Range9KeepOrderEv @6349
    _ZN2v88internal5Scope10InitializeEb @6350
    _ZN2v88internal5Scope11LocalLookupENS0_6HandleINS0_6StringEEE @6351
    _ZN2v88internal5Scope11SetDefaultsENS1_4TypeEPS1_NS0_6HandleINS0_19SerializedScopeInfoEEE @6352
    _ZN2v88internal5Scope12AddParameterEPNS0_8VariableE @6353
    _ZN2v88internal5Scope12DeclareLocalENS0_6HandleINS0_6StringEEENS0_8Variable4ModeE @6354
    _ZN2v88internal5Scope12MustAllocateEPNS0_8VariableE @6355
    _ZN2v88internal5Scope12NewTemporaryENS0_6HandleINS0_6StringEEE @6356
    _ZN2v88internal5Scope13DeclareGlobalENS0_6HandleINS0_6StringEEE @6357
    _ZN2v88internal5Scope13NewUnresolvedENS0_6HandleINS0_6StringEEEb @6358
    _ZN2v88internal5Scope14AddDeclarationEPNS0_11DeclarationE @6359
    _ZN2v88internal5Scope15LookupRecursiveENS0_6HandleINS0_6StringEEEbPPNS0_8VariableE @6360
    _ZN2v88internal5Scope15ResolveVariableEPS1_NS0_6HandleINS0_7ContextEEEPNS0_13VariableProxyE @6361
    _ZN2v88internal5Scope16AllocateHeapSlotEPNS0_8VariableE @6362
    _ZN2v88internal5Scope16RemoveUnresolvedEPNS0_13VariableProxyE @6363
    _ZN2v88internal5Scope17AllocateStackSlotEPNS0_8VariableE @6364
    _ZN2v88internal5Scope17AllocateVariablesENS0_6HandleINS0_7ContextEEE @6365
    _ZN2v88internal5Scope18ContextChainLengthEPS1_ @6366
    _ZN2v88internal5Scope18DeclareFunctionVarENS0_6HandleINS0_6StringEEE @6367
    _ZN2v88internal5Scope18PropagateScopeInfoEbb @6368
    _ZN2v88internal5Scope20CollectUsedVariablesINS0_19PreallocatedStorageEEEvPNS0_4ListIPNS0_8VariableET_EE @6369
    _ZN2v88internal5Scope20CollectUsedVariablesINS0_24ZoneListAllocationPolicyEEEvPNS0_4ListIPNS0_8VariableET_EE @6370
    _ZN2v88internal5Scope20CollectUsedVariablesINS0_25FreeStoreAllocationPolicyEEEvPNS0_4ListIPNS0_8VariableET_EE @6371
    _ZN2v88internal5Scope21DeserializeScopeChainEPNS0_15CompilationInfoEPS1_ @6372
    _ZN2v88internal5Scope21HasArgumentsParameterEv @6373
    _ZN2v88internal5Scope21MustAllocateInContextEPNS0_8VariableE @6374
    _ZN2v88internal5Scope23AllocateParameterLocalsEv @6375
    _ZN2v88internal5Scope23SetIllegalRedeclarationEPNS0_10ExpressionE @6376
    _ZN2v88internal5Scope25AllocateNonParameterLocalEPNS0_8VariableE @6377
    _ZN2v88internal5Scope25VisitIllegalRedeclarationEPNS0_10AstVisitorE @6378
    _ZN2v88internal5Scope26AllocateNonParameterLocalsEv @6379
    _ZN2v88internal5Scope27ResolveVariablesRecursivelyEPS1_NS0_6HandleINS0_7ContextEEE @6380
    _ZN2v88internal5Scope28AllocateVariablesRecursivelyEv @6381
    _ZN2v88internal5Scope5LeaveEv @6382
    _ZN2v88internal5Scope6LookupENS0_6HandleINS0_6StringEEE @6383
    _ZN2v88internal5Scope7AnalyzeEPNS0_15CompilationInfoE @6384
    _ZN2v88internal5Scope8NonLocalENS0_6HandleINS0_6StringEEENS0_8Variable4ModeE @6385
    _ZN2v88internal5ScopeC1ENS1_4TypeE @6386
    _ZN2v88internal5ScopeC1EPS1_NS0_6HandleINS0_19SerializedScopeInfoEEE @6387
    _ZN2v88internal5ScopeC1EPS1_NS1_4TypeE @6388
    _ZN2v88internal5ScopeC2ENS1_4TypeE @6389
    _ZN2v88internal5ScopeC2EPS1_NS0_6HandleINS0_19SerializedScopeInfoEEE @6390
    _ZN2v88internal5ScopeC2EPS1_NS1_4TypeE @6391
    _ZN2v88internal5ScopeD0Ev @6392
    _ZN2v88internal5ScopeD1Ev @6393
    _ZN2v88internal5Space13SizeOfObjectsEv @6394
    _ZN2v88internal5SpaceD0Ev @6395
    _ZN2v88internal5SpaceD1Ev @6396
    _ZN2v88internal5Throw6AcceptEPNS0_10AstVisitorE @6397
    _ZN2v88internal5Throw7AsThrowEv @6398
    _ZN2v88internal5ThrowD0Ev @6399
    _ZN2v88internal5ThrowD1Ev @6400
    _ZN2v88internal5Token10token_typeE @6401 DATA
    _ZN2v88internal5Token11precedence_E @6402 DATA
    _ZN2v88internal5Token5name_E @6403 DATA
    _ZN2v88internal5Token7string_E @6404 DATA
    _ZN2v88internal5Trace12mentions_regEi @6405
    _ZN2v88internal5Trace14DeferredAction8MentionsEi @6406
    _ZN2v88internal5Trace17GetStoredPositionEiPi @6407
    _ZN2v88internal5Trace21FindAffectedRegistersEPNS0_6OutSetE @6408
    _ZN2v88internal5Trace22PerformDeferredActionsEPNS0_20RegExpMacroAssemblerEiRNS0_6OutSetEPS4_S6_ @6409
    _ZN2v88internal5Trace24RestoreAffectedRegistersEPNS0_20RegExpMacroAssemblerEiRNS0_6OutSetES5_ @6410
    _ZN2v88internal5Trace26InvalidateCurrentCharacterEv @6411
    _ZN2v88internal5Trace29AdvanceCurrentPositionInTraceEiPNS0_14RegExpCompilerE @6412
    _ZN2v88internal5Trace5FlushEPNS0_14RegExpCompilerEPNS0_10RegExpNodeE @6413
    _ZN2v88internal6Bignum11PlusCompareERKS1_S3_S3_ @6414
    _ZN2v88internal6Bignum12AssignBignumERKS1_ @6415
    _ZN2v88internal6Bignum12AssignUInt16Et @6416
    _ZN2v88internal6Bignum12AssignUInt64Ey @6417
    _ZN2v88internal6Bignum13SubtractTimesERKS1_i @6418
    _ZN2v88internal6Bignum14SubtractBignumERKS1_ @6419
    _ZN2v88internal6Bignum15AssignHexStringENS0_6VectorIKcEE @6420
    _ZN2v88internal6Bignum15BigitsShiftLeftEi @6421
    _ZN2v88internal6Bignum16MultiplyByUInt32Ej @6422
    _ZN2v88internal6Bignum16MultiplyByUInt64Ey @6423
    _ZN2v88internal6Bignum17AssignPowerUInt16Eti @6424
    _ZN2v88internal6Bignum19AssignDecimalStringENS0_6VectorIKcEE @6425
    _ZN2v88internal6Bignum20MultiplyByPowerOfTenEi @6426
    _ZN2v88internal6Bignum21DivideModuloIntBignumERKS1_ @6427
    _ZN2v88internal6Bignum4ZeroEv @6428
    _ZN2v88internal6Bignum5AlignERKS1_ @6429
    _ZN2v88internal6Bignum5ClampEv @6430
    _ZN2v88internal6Bignum6SquareEv @6431
    _ZN2v88internal6Bignum7CompareERKS1_S3_ @6432
    _ZN2v88internal6Bignum9AddBignumERKS1_ @6433
    _ZN2v88internal6Bignum9AddUInt64Ey @6434
    _ZN2v88internal6Bignum9ShiftLeftEi @6435
    _ZN2v88internal6BignumC1Ev @6436
    _ZN2v88internal6BignumC2Ev @6437
    _ZN2v88internal6CallIC12GenerateMissEPNS0_14MacroAssemblerEi @6438
    _ZN2v88internal6CallIC14GenerateNormalEPNS0_14MacroAssemblerEi @6439
    _ZN2v88internal6CallIC19GenerateMegamorphicEPNS0_14MacroAssemblerEi @6440
    _ZN2v88internal6FLAG_hE @6441 DATA
    _ZN2v88internal6HBitOr10DataEqualsEPNS0_6HValueE @6442
    _ZN2v88internal6HBitOr10InferRangeEv @6443
    _ZN2v88internal6HBitOr16CompileToLithiumEPNS0_13LChunkBuilderE @6444
    _ZN2v88internal6HBitOr21CalculateInferredTypeEv @6445
    _ZN2v88internal6HBitOrD0Ev @6446
    _ZN2v88internal6HBitOrD1Ev @6447
    _ZN2v88internal6HGraph10InferTypesEPNS0_8ZoneListIPNS0_6HValueEEE @6448
    _ZN2v88internal6HGraph11CollectPhisEv @6449
    _ZN2v88internal6HGraph11GetConstantEPNS0_14SetOncePointerINS0_9HConstantEEEPNS0_6ObjectE @6450
    _ZN2v88internal6HGraph11OrderBlocksEv @6451
    _ZN2v88internal6HGraph12CanonicalizeEv @6452
    _ZN2v88internal6HGraph12GetConstant1Ev @6453
    _ZN2v88internal6HGraph13HasOsrEntryAtEPNS0_18IterationStatementE @6454
    _ZN2v88internal6HGraph15GetConstantTrueEv @6455
    _ZN2v88internal6HGraph16AssignDominatorsEv @6456
    _ZN2v88internal6HGraph16CreateBasicBlockEv @6457
    _ZN2v88internal6HGraph16GetConstantFalseEv @6458
    _ZN2v88internal6HGraph17GetConstantMinus1Ev @6459
    _ZN2v88internal6HGraph19PostorderLoopBlocksEPNS0_16HLoopInformationEPNS0_9BitVectorEPNS0_8ZoneListIPNS0_11HBasicBlockEEES8_ @6460
    _ZN2v88internal6HGraph22ComputeMinusZeroChecksEv @6461
    _ZN2v88internal6HGraph22EliminateRedundantPhisEv @6462
    _ZN2v88internal6HGraph23InitializeInferredTypesEii @6463
    _ZN2v88internal6HGraph23InitializeInferredTypesEv @6464
    _ZN2v88internal6HGraph24PropagateMinusZeroChecksEPNS0_6HValueEPNS0_9BitVectorE @6465
    _ZN2v88internal6HGraph27InsertRepresentationChangesEPNS0_6HValueE @6466
    _ZN2v88internal6HGraph27InsertRepresentationChangesEv @6467
    _ZN2v88internal6HGraph32InsertRepresentationChangeForUseEPNS0_6HValueES3_NS0_14RepresentationEb @6468
    _ZN2v88internal6HGraph7CompileEv @6469
    _ZN2v88internal6HGraph9PostorderEPNS0_11HBasicBlockEPNS0_9BitVectorEPNS0_8ZoneListIS3_EES3_ @6470
    _ZN2v88internal6HGraphC1EPNS0_15CompilationInfoE @6471
    _ZN2v88internal6HGraphC2EPNS0_15CompilationInfoE @6472
    _ZN2v88internal6HIsSmi10DataEqualsEPNS0_6HValueE @6473
    _ZN2v88internal6HIsSmi16CompileToLithiumEPNS0_13LChunkBuilderE @6474
    _ZN2v88internal6HIsSmiD0Ev @6475
    _ZN2v88internal6HIsSmiD1Ev @6476
    _ZN2v88internal6HPhase12kFullCodeGenE @6477 DATA
    _ZN2v88internal6HPhase5BeginEPKcPNS0_6HGraphEPNS0_6LChunkEPNS0_10LAllocatorE @6478
    _ZN2v88internal6HPhase6kTotalE @6479 DATA
    _ZN2v88internal6HPower10DataEqualsEPNS0_6HValueE @6480
    _ZN2v88internal6HPower16CompileToLithiumEPNS0_13LChunkBuilderE @6481
    _ZN2v88internal6HPowerD0Ev @6482
    _ZN2v88internal6HPowerD1Ev @6483
    _ZN2v88internal6HThrow16CompileToLithiumEPNS0_13LChunkBuilderE @6484
    _ZN2v88internal6HThrowD0Ev @6485
    _ZN2v88internal6HThrowD1Ev @6486
    _ZN2v88internal6HValue10DataEqualsEPS1_ @6487
    _ZN2v88internal6HValue10InferRangeEv @6488
    _ZN2v88internal6HValue11AddNewRangeEPNS0_5RangeE @6489
    _ZN2v88internal6HValue11PrintNameToEPNS0_12StringStreamE @6490
    _ZN2v88internal6HValue11PrintTypeToENS0_5HTypeEPNS0_12StringStreamE @6491
    _ZN2v88internal6HValue11RegisterUseEiPS1_ @6492
    _ZN2v88internal6HValue12CanonicalizeEv @6493
    _ZN2v88internal6HValue12ReplaceAtUseEPS1_S2_ @6494
    _ZN2v88internal6HValue12ReplaceValueEPS1_ @6495
    _ZN2v88internal6HValue12SetOperandAtEiPS1_ @6496
    _ZN2v88internal6HValue13ClearOperandsEv @6497
    _ZN2v88internal6HValue16ReplaceAndDeleteEPS1_ @6498
    _ZN2v88internal6HValue17ReplaceFirstAtUseEPS1_S2_NS0_14RepresentationE @6499
    _ZN2v88internal6HValue17UsesMultipleTimesEPS1_ @6500
    _ZN2v88internal6HValue18LookupOperandIndexEiPS1_ @6501
    _ZN2v88internal6HValue18UpdateInferredTypeEv @6502
    _ZN2v88internal6HValue19ComputeInitialRangeEv @6503
    _ZN2v88internal6HValue20InternalReplaceAtUseEPS1_S2_ @6504
    _ZN2v88internal6HValue20RemoveLastAddedRangeEv @6505
    _ZN2v88internal6HValue21CalculateInferredTypeEv @6506
    _ZN2v88internal6HValue21RepresentationChangedENS0_14RepresentationE @6507
    _ZN2v88internal6HValue22InferredRepresentationEv @6508
    _ZN2v88internal6HValue30EnsureAndPropagateNotMinusZeroEPNS0_9BitVectorE @6509
    _ZN2v88internal6HValue6DeleteEv @6510
    _ZN2v88internal6HValue6EqualsEPS1_ @6511
    _ZN2v88internal6HValue8HashcodeEv @6512
    _ZN2v88internal6HValue8SetBlockEPNS0_11HBasicBlockE @6513
    _ZN2v88internal6HValueD0Ev @6514
    _ZN2v88internal6HValueD1Ev @6515
    _ZN2v88internal6LChunk10AddGapMoveEiPNS0_8LOperandES3_ @6516
    _ZN2v88internal6LChunk11ParameterAtEi @6517
    _ZN2v88internal6LChunk14AddInstructionEPNS0_12LInstructionEPNS0_11HBasicBlockE @6518
    _ZN2v88internal6LChunk15MarkEmptyBlocksEv @6519
    _ZN2v88internal6LChunk16GetNextSpillSlotEb @6520
    _ZN2v88internal6LChunk17GetNextSpillIndexEb @6521
    _ZN2v88internal6LChunk21DefineConstantOperandEPNS0_9HConstantE @6522
    _ZN2v88internal6LCmpID15CompileToNativeEPNS0_8LCodeGenE @6523
    _ZN2v88internal6LCmpIDD0Ev @6524
    _ZN2v88internal6LCmpIDD1Ev @6525
    _ZN2v88internal6LIsSmi15CompileToNativeEPNS0_8LCodeGenE @6526
    _ZN2v88internal6LIsSmiD0Ev @6527
    _ZN2v88internal6LIsSmiD1Ev @6528
    _ZN2v88internal6LLabel11PrintDataToEPNS0_12StringStreamE @6529
    _ZN2v88internal6LLabel15CompileToNativeEPNS0_8LCodeGenE @6530
    _ZN2v88internal6LLabelD0Ev @6531
    _ZN2v88internal6LLabelD1Ev @6532
    _ZN2v88internal6LPower15CompileToNativeEPNS0_8LCodeGenE @6533
    _ZN2v88internal6LPowerD0Ev @6534
    _ZN2v88internal6LPowerD1Ev @6535
    _ZN2v88internal6LThrow15CompileToNativeEPNS0_8LCodeGenE @6536
    _ZN2v88internal6LThrowD0Ev @6537
    _ZN2v88internal6LThrowD1Ev @6538
    _ZN2v88internal6LoadIC12GenerateMissEPNS0_14MacroAssemblerE @6539
    _ZN2v88internal6LoadIC12UpdateCachesEPNS0_12LookupResultENS0_16InlineCacheStateENS0_6HandleINS0_6ObjectEEENS5_INS0_6StringEEE @6540
    _ZN2v88internal6LoadIC14GenerateNormalEPNS0_14MacroAssemblerE @6541
    _ZN2v88internal6LoadIC16PatchInlinedLoadEPhPNS0_6ObjectEi @6542
    _ZN2v88internal6LoadIC19ClearInlinedVersionEPh @6543
    _ZN2v88internal6LoadIC19GenerateArrayLengthEPNS0_14MacroAssemblerE @6544
    _ZN2v88internal6LoadIC19GenerateMegamorphicEPNS0_14MacroAssemblerE @6545
    _ZN2v88internal6LoadIC20GenerateStringLengthEPNS0_14MacroAssemblerEb @6546
    _ZN2v88internal6LoadIC24kOffsetToLoadInstructionE @6547 DATA
    _ZN2v88internal6LoadIC25GenerateFunctionPrototypeEPNS0_14MacroAssemblerE @6548
    _ZN2v88internal6LoadIC26PatchInlinedContextualLoadEPhPNS0_6ObjectES4_b @6549
    _ZN2v88internal6LoadIC4LoadENS0_16InlineCacheStateENS0_6HandleINS0_6ObjectEEENS3_INS0_6StringEEE @6550
    _ZN2v88internal6LoadIC5ClearEPhPNS0_4CodeE @6551
    _ZN2v88internal6Logger10DebugEventEPKcNS0_6VectorItEE @6552
    _ZN2v88internal6Logger10LogRuntimeENS0_6VectorIKcEEPNS0_7JSArrayE @6553
    _ZN2v88internal6Logger11DeleteEventEPKcPv @6554
    _ZN2v88internal6Logger11GetLogLinesEiPci @6555
    _ZN2v88internal6Logger11HandleEventEPKcPPNS0_6ObjectE @6556
    _ZN2v88internal6Logger11LogCodeInfoEv @6557
    _ZN2v88internal6Logger11StringEventEPKcS3_ @6558
    _ZN2v88internal6Logger12ApiEntryCallEPKc @6559
    _ZN2v88internal6Logger12IntPtrTEventEPKci @6560
    _ZN2v88internal6Logger12SFIMoveEventEPhS2_ @6561
    _ZN2v88internal6Logger13CallbackEventEPNS0_6StringEPh @6562
    _ZN2v88internal6Logger13CodeMoveEventEPhS2_ @6563
    _ZN2v88internal6Logger13LogCodeObjectEPNS0_6ObjectE @6564
    _ZN2v88internal6Logger13PauseProfilerEii @6565
    _ZN2v88internal6Logger13ResourceEventEPKcS3_ @6566
    _ZN2v88internal6Logger14LogCodeObjectsEv @6567
    _ZN2v88internal6Logger14ResumeProfilerEii @6568
    _ZN2v88internal6Logger15ApiObjectAccessEPKcPNS0_8JSObjectE @6569
    _ZN2v88internal6Logger15CodeCreateEventENS1_16LogEventsAndTagsEPNS0_4CodeEPKc @6570
    _ZN2v88internal6Logger15CodeCreateEventENS1_16LogEventsAndTagsEPNS0_4CodeEPNS0_18SharedFunctionInfoEPNS0_6StringE @6571
    _ZN2v88internal6Logger15CodeCreateEventENS1_16LogEventsAndTagsEPNS0_4CodeEPNS0_18SharedFunctionInfoEPNS0_6StringEi @6572
    _ZN2v88internal6Logger15CodeCreateEventENS1_16LogEventsAndTagsEPNS0_4CodeEPNS0_6StringE @6573
    _ZN2v88internal6Logger15CodeCreateEventENS1_16LogEventsAndTagsEPNS0_4CodeEi @6574
    _ZN2v88internal6Logger15CodeDeleteEventEPh @6575
    _ZN2v88internal6Logger15HeapSampleStatsEPKcS3_ii @6576
    _ZN2v88internal6Logger15LogRegExpSourceENS0_6HandleINS0_8JSRegExpEEE @6577
    _ZN2v88internal6Logger16SuspectReadEventEPNS0_6StringEPNS0_6ObjectE @6578
    _ZN2v88internal6Logger16logging_nesting_E @6579 DATA
    _ZN2v88internal6Logger17CodeMovingGCEventEv @6580
    _ZN2v88internal6Logger17MoveEventInternalENS1_16LogEventsAndTagsEPhS3_ @6581
    _ZN2v88internal6Logger17UncheckedIntEventEPKci @6582
    _ZN2v88internal6Logger18HeapSampleEndEventEPKcS3_ @6583
    _ZN2v88internal6Logger18ProfilerBeginEventEv @6584
    _ZN2v88internal6Logger18RegExpCompileEventENS0_6HandleINS0_8JSRegExpEEEb @6585
    _ZN2v88internal6Logger18SharedLibraryEventEPKcjj @6586
    _ZN2v88internal6Logger18SharedLibraryEventEPKwjj @6587
    _ZN2v88internal6Logger19DeleteEventInternalENS1_16LogEventsAndTagsEPh @6588
    _ZN2v88internal6Logger19EnsureTickerStartedEv @6589
    _ZN2v88internal6Logger19EnsureTickerStoppedEv @6590
    _ZN2v88internal6Logger19GetterCallbackEventEPNS0_6StringEPh @6591
    _ZN2v88internal6Logger19HeapSampleItemEventEPKcii @6592
    _ZN2v88internal6Logger19SetterCallbackEventEPNS0_6StringEPh @6593
    _ZN2v88internal6Logger20HeapSampleBeginEventEPKcS3_ @6594
    _ZN2v88internal6Logger20LogAccessorCallbacksEv @6595
    _ZN2v88internal6Logger20LogCompiledFunctionsEv @6596
    _ZN2v88internal6Logger20UncheckedStringEventEPKcS3_ @6597
    _ZN2v88internal6Logger21ApiNamedSecurityCheckEPNS0_6ObjectE @6598
    _ZN2v88internal6Logger21CallbackEventInternalEPKcS3_Ph @6599
    _ZN2v88internal6Logger21RegExpCodeCreateEventEPNS0_4CodeEPNS0_6StringE @6600
    _ZN2v88internal6Logger21SnapshotPositionEventEPhi @6601
    _ZN2v88internal6Logger21UncheckedIntPtrTEventEPKci @6602
    _ZN2v88internal6Logger21cpu_profiler_nesting_E @6603 DATA
    _ZN2v88internal6Logger21sliding_state_window_E @6604 DATA
    _ZN2v88internal6Logger22ApiNamedPropertyAccessEPKcPNS0_8JSObjectEPNS0_6ObjectE @6605
    _ZN2v88internal6Logger22heap_profiler_nesting_E @6606 DATA
    _ZN2v88internal6Logger23ApiIndexedSecurityCheckEj @6607
    _ZN2v88internal6Logger23IsProfilerSamplerActiveEv @6608
    _ZN2v88internal6Logger23LowLevelCodeCreateEventEPNS0_4CodeEPNS0_17LogMessageBuilderE @6609
    _ZN2v88internal6Logger23StopLoggingAndProfilingEv @6610
    _ZN2v88internal6Logger24ApiIndexedPropertyAccessEPKcPNS0_8JSObjectEj @6611
    _ZN2v88internal6Logger24EnableSlidingStateWindowEv @6612
    _ZN2v88internal6Logger24GetActiveProfilerModulesEv @6613
    _ZN2v88internal6Logger25HeapSampleJSProducerEventEPKcPPh @6614
    _ZN2v88internal6Logger26HeapSampleJSRetainersEventEPKcS3_ @6615
    _ZN2v88internal6Logger28HeapSampleJSConstructorEventEPKcii @6616
    _ZN2v88internal6Logger5SetupEv @6617
    _ZN2v88internal6Logger7ticker_E @6618 DATA
    _ZN2v88internal6Logger8ApiEventEPKcz @6619
    _ZN2v88internal6Logger8DebugTagEPKc @6620
    _ZN2v88internal6Logger8IntEventEPKci @6621
    _ZN2v88internal6Logger8NewEventEPKcPvj @6622
    _ZN2v88internal6Logger8TearDownEv @6623
    _ZN2v88internal6Logger9TickEventEPNS0_10TickSampleEb @6624
    _ZN2v88internal6Logger9profiler_E @6625 DATA
    _ZN2v88internal6Object10ShortPrintEP9__sFILE64 @6626
    _ZN2v88internal6Object10ShortPrintEPNS0_12StringStreamE @6627
    _ZN2v88internal6Object11GetPropertyEPS1_PNS0_12LookupResultEPNS0_6StringEP18PropertyAttributes @6628
    _ZN2v88internal6Object12GetPrototypeEv @6629
    _ZN2v88internal6Object12ToArrayIndexEPj @6630
    _ZN2v88internal6Object22GetElementWithReceiverEPS1_j @6631
    _ZN2v88internal6Object23GetPropertyWithCallbackEPS1_S2_PNS0_6StringES2_ @6632
    _ZN2v88internal6Object23GetPropertyWithReceiverEPS1_PNS0_6StringEP18PropertyAttributes @6633
    _ZN2v88internal6Object28GetPropertyWithDefinedGetterEPS1_PNS0_10JSFunctionE @6634
    _ZN2v88internal6Object6LookupEPNS0_6StringEPNS0_12LookupResultE @6635
    _ZN2v88internal6Object8IsNumberEv @6636
    _ZN2v88internal6Object8ToObjectEPNS0_7ContextE @6637
    _ZN2v88internal6Object8ToObjectEv @6638
    _ZN2v88internal6Object9ToBooleanEv @6639
    _ZN2v88internal6OutSet3GetEj @6640
    _ZN2v88internal6OutSet3SetEj @6641
    _ZN2v88internal6OutSet6ExtendEj @6642
    _ZN2v88internal6Parser10ParseBlockEPNS0_8ZoneListINS0_6HandleINS0_6StringEEEEEPb @6643
    _ZN2v88internal6Parser10WithHelperEPNS0_10ExpressionEPNS0_8ZoneListINS0_6HandleINS0_6StringEEEEEbPb @6644
    _ZN2v88internal6Parser12LookupSymbolEi @6645
    _ZN2v88internal6Parser12ParseProgramENS0_6HandleINS0_6StringEEEbNS0_14StrictModeFlagE @6646
    _ZN2v88internal6Parser13NewThrowErrorENS0_6HandleINS0_6StringEEES4_NS0_6VectorINS2_INS0_6ObjectEEEEE @6647
    _ZN2v88internal6Parser13ReportMessageEPKcNS0_6VectorIS3_EE @6648
    _ZN2v88internal6Parser14DoParseProgramENS0_6HandleINS0_6StringEEEbNS0_14StrictModeFlagEPNS0_9ZoneScopeE @6649
    _ZN2v88internal6Parser14NewCompareNodeENS0_5Token5ValueEPNS0_10ExpressionES5_i @6650
    _ZN2v88internal6Parser14ParseArgumentsEPb @6651
    _ZN2v88internal6Parser14ParseNewPrefixEPNS0_13PositionStackEPb @6652
    _ZN2v88internal6Parser14ParseStatementEPNS0_8ZoneListINS0_6HandleINS0_6StringEEEEEPb @6653
    _ZN2v88internal6Parser15ExpectSemicolonEPb @6654
    _ZN2v88internal6Parser15ParseCaseClauseEPbS2_ @6655
    _ZN2v88internal6Parser15ParseExpressionEbPb @6656
    _ZN2v88internal6Parser15ParseIdentifierEPb @6657
    _ZN2v88internal6Parser15ReportMessageAtENS0_7Scanner8LocationEPKcNS0_6VectorINS0_6HandleINS0_6StringEEEEE @6658
    _ZN2v88internal6Parser15ReportMessageAtENS0_7Scanner8LocationEPKcNS0_6VectorIS5_EE @6659
    _ZN2v88internal6Parser16GetLiteralNumberEd @6660
    _ZN2v88internal6Parser16NewNumberLiteralEd @6661
    _ZN2v88internal6Parser16ParseIfStatementEPNS0_8ZoneListINS0_6HandleINS0_6StringEEEEEPb @6662
    _ZN2v88internal6Parser16ParseV8IntrinsicEPb @6663
    _ZN2v88internal6Parser17CheckOctalLiteralEiiPb @6664
    _ZN2v88internal6Parser17GetLiteralTheHoleEv @6665
    _ZN2v88internal6Parser17LookupBreakTargetENS0_6HandleINS0_6StringEEEPb @6666
    _ZN2v88internal6Parser17NewThrowTypeErrorENS0_6HandleINS0_6StringEEENS2_INS0_6ObjectEEES6_ @6667
    _ZN2v88internal6Parser17ParseArrayLiteralEPb @6668
    _ZN2v88internal6Parser17ParseForStatementEPNS0_8ZoneListINS0_6HandleINS0_6StringEEEEEPb @6669
    _ZN2v88internal6Parser17ParseTryStatementEPb @6670
    _ZN2v88internal6Parser17RegisterTargetUseEPNS0_11BreakTargetEPNS0_6TargetE @6671
    _ZN2v88internal6Parser18LookupCachedSymbolEi @6672
    _ZN2v88internal6Parser18ParseNewExpressionEPb @6673
    _ZN2v88internal6Parser18ParseObjectLiteralEPb @6674
    _ZN2v88internal6Parser18ParseRegExpLiteralEbPb @6675
    _ZN2v88internal6Parser18ParseWithStatementEPNS0_8ZoneListINS0_6HandleINS0_6StringEEEEEPb @6676
    _ZN2v88internal6Parser19GetBoilerplateValueEPNS0_10ExpressionE @6677
    _ZN2v88internal6Parser19GetLiteralUndefinedEv @6678
    _ZN2v88internal6Parser19NewThrowSyntaxErrorENS0_6HandleINS0_6StringEEENS2_INS0_6ObjectEEE @6679
    _ZN2v88internal6Parser19ParseBreakStatementEPNS0_8ZoneListINS0_6HandleINS0_6StringEEEEEPb @6680
    _ZN2v88internal6Parser19ParseIdentifierNameEPb @6681
    _ZN2v88internal6Parser19ParseSourceElementsEPNS0_8ZoneListIPNS0_9StatementEEEiPb @6682
    _ZN2v88internal6Parser19ParseThrowStatementEPb @6683
    _ZN2v88internal6Parser19ParseWhileStatementEPNS0_8ZoneListINS0_6HandleINS0_6StringEEEEEPb @6684
    _ZN2v88internal6Parser19peek_any_identifierEv @6685
    _ZN2v88internal6Parser20LookupContinueTargetENS0_6HandleINS0_6StringEEEPb @6686
    _ZN2v88internal6Parser20ParseFunctionLiteralENS0_6HandleINS0_6StringEEEbiNS1_19FunctionLiteralTypeEPb @6687
    _ZN2v88internal6Parser20ParseReturnStatementEPb @6688
    _ZN2v88internal6Parser20ParseSwitchStatementEPNS0_8ZoneListINS0_6HandleINS0_6StringEEEEEPb @6689
    _ZN2v88internal6Parser20ParseUnaryExpressionEPb @6690
    _ZN2v88internal6Parser21CheckStrictModeLValueEPNS0_10ExpressionEPKcPb @6691
    _ZN2v88internal6Parser21IsBoilerplatePropertyEPNS0_13ObjectLiteral8PropertyE @6692
    _ZN2v88internal6Parser21ParseBinaryExpressionEibPb @6693
    _ZN2v88internal6Parser21ParseDoWhileStatementEPNS0_8ZoneListINS0_6HandleINS0_6StringEEEEEPb @6694
    _ZN2v88internal6Parser21ParseMemberExpressionEPb @6695
    _ZN2v88internal6Parser21ReportUnexpectedTokenENS0_5Token5ValueE @6696
    _ZN2v88internal6Parser22NewThrowReferenceErrorENS0_6HandleINS0_6StringEEE @6697
    _ZN2v88internal6Parser22ParseContinueStatementEPb @6698
    _ZN2v88internal6Parser22ParseDebuggerStatementEPb @6699
    _ZN2v88internal6Parser22ParseNativeDeclarationEPb @6700
    _ZN2v88internal6Parser22ParsePostfixExpressionEPb @6701
    _ZN2v88internal6Parser22ParsePrimaryExpressionEPb @6702
    _ZN2v88internal6Parser22ParseVariableStatementEPb @6703
    _ZN2v88internal6Parser24ParseFunctionDeclarationEPb @6704
    _ZN2v88internal6Parser24ParseObjectLiteralGetSetEbPb @6705
    _ZN2v88internal6Parser24TargetStackContainsLabelENS0_6HandleINS0_6StringEEE @6706
    _ZN2v88internal6Parser25ParseAssignmentExpressionEbPb @6707
    _ZN2v88internal6Parser25ParseIdentifierOrGetOrSetEPbS2_S2_ @6708
    _ZN2v88internal6Parser25ParseVariableDeclarationsEbPPNS0_10ExpressionEPb @6709
    _ZN2v88internal6Parser25ReportInvalidPreparseDataENS0_6HandleINS0_6StringEEEPb @6710
    _ZN2v88internal6Parser26ParseConditionalExpressionEbPb @6711
    _ZN2v88internal6Parser27ParseLeftHandSideExpressionEPb @6712
    _ZN2v88internal6Parser29ParseIdentifierOrReservedWordEPbS2_ @6713
    _ZN2v88internal6Parser34ParseExpressionOrLabelledStatementEPNS0_8ZoneListINS0_6HandleINS0_6StringEEEEEPb @6714
    _ZN2v88internal6Parser36BuildArrayLiteralBoilerplateLiteralsEPNS0_8ZoneListIPNS0_10ExpressionEEENS0_6HandleINS0_10FixedArrayEEEPbPi @6715
    _ZN2v88internal6Parser36BuildObjectLiteralConstantPropertiesEPNS0_8ZoneListIPNS0_13ObjectLiteral8PropertyEEENS0_6HandleINS0_10FixedArrayEEEPbSB_Pi @6716
    _ZN2v88internal6Parser36ParseMemberWithNewPrefixesExpressionEPNS0_13PositionStackEPb @6717
    _ZN2v88internal6Parser5CheckENS0_5Token5ValueE @6718
    _ZN2v88internal6Parser6ExpectENS0_5Token5ValueEPb @6719
    _ZN2v88internal6Parser7DeclareENS0_6HandleINS0_6StringEEENS0_8Variable4ModeEPNS0_15FunctionLiteralEbPb @6720
    _ZN2v88internal6Parser8NewScopeEPNS0_5ScopeENS2_4TypeEb @6721
    _ZN2v88internal6Parser9GetSymbolEPb @6722
    _ZN2v88internal6Parser9ParseLazyEPNS0_15CompilationInfoE @6723
    _ZN2v88internal6Parser9ParseLazyEPNS0_15CompilationInfoEPNS0_19UC16CharacterStreamEPNS0_9ZoneScopeE @6724
    _ZN2v88internal6ParserC1ENS0_6HandleINS0_6ScriptEEEbPNS_9ExtensionEPNS0_14ScriptDataImplE @6725
    _ZN2v88internal6ParserC2ENS0_6HandleINS0_6ScriptEEEbPNS_9ExtensionEPNS0_14ScriptDataImplE @6726
    _ZN2v88internal6ParserD0Ev @6727
    _ZN2v88internal6ParserD1Ev @6728
    _ZN2v88internal6PrintFEP9__sFILE64PKcz @6729
    _ZN2v88internal6PrintFEPKcz @6730
    _ZN2v88internal6Result10ToRegisterENS0_8RegisterE @6731
    _ZN2v88internal6Result10ToRegisterEv @6732
    _ZN2v88internal6Result12ConstantListEv @6733
    _ZN2v88internal6ResultC1ENS0_6HandleINS0_6ObjectEEE @6734
    _ZN2v88internal6ResultC1ENS0_8RegisterENS0_8TypeInfoE @6735
    _ZN2v88internal6ResultC2ENS0_8RegisterENS0_8TypeInfoE @6736
    _ZN2v88internal6ResultD1Ev @6737
    _ZN2v88internal6ResultaSERKS1_ @6738
    _ZN2v88internal6Socket4HToNEj @6739
    _ZN2v88internal6Socket4HToNEt @6740
    _ZN2v88internal6Socket4NToHEj @6741
    _ZN2v88internal6Socket4NToHEt @6742
    _ZN2v88internal6Socket5SetupEv @6743
    _ZN2v88internal6Socket9LastErrorEv @6744
    _ZN2v88internal6SocketD0Ev @6745
    _ZN2v88internal6SocketD1Ev @6746
    _ZN2v88internal6StrDupEPKc @6747
    _ZN2v88internal6String10LooksValidEv @6748
    _ZN2v88internal6String10SlowEqualsEPS1_ @6749
    _ZN2v88internal6String10Utf8LengthEv @6750
    _ZN2v88internal6String11WriteToFlatIcEEvPS1_PT_ii @6751
    _ZN2v88internal6String11WriteToFlatItEEvPS1_PT_ii @6752
    _ZN2v88internal6String12MakeExternalEPNS_6String22ExternalStringResourceE @6753
    _ZN2v88internal6String12MakeExternalEPNS_6String27ExternalAsciiStringResourceE @6754
    _ZN2v88internal6String12ToUC16VectorEv @6755
    _ZN2v88internal6String13ToAsciiVectorEv @6756
    _ZN2v88internal6String13ToWideCStringENS0_14RobustnessFlagE @6757
    _ZN2v88internal6String14GetTwoByteDataEj @6758
    _ZN2v88internal6String14GetTwoByteDataEv @6759
    _ZN2v88internal6String14IsAsciiEqualToENS0_6VectorIKcEE @6760
    _ZN2v88internal6String14SlowTryFlattenENS0_13PretenureFlagE @6761
    _ZN2v88internal6String16ComputeHashFieldEPN7unibrow15CharacterStreamEi @6762
    _ZN2v88internal6String16IsTwoByteEqualToENS0_6VectorIKtEE @6763
    _ZN2v88internal6String16SlowAsArrayIndexEPj @6764
    _ZN2v88internal6String16StringShortPrintEPNS0_12StringStreamE @6765
    _ZN2v88internal6String17ComputeAndSetHashEv @6766
    _ZN2v88internal6String17ComputeArrayIndexEPN7unibrow15CharacterStreamEPji @6767
    _ZN2v88internal6String18MarkAsUndetectableEv @6768
    _ZN2v88internal6String19ReadBlockIntoBufferEPS1_PNS1_15ReadBlockBufferEPjj @6769
    _ZN2v88internal6String3GetEi @6770
    _ZN2v88internal6String6EqualsEPS1_ @6771
    _ZN2v88internal6String6IsFlatEv @6772
    _ZN2v88internal6String7PrintOnEP9__sFILE64 @6773
    _ZN2v88internal6String9IsEqualToENS0_6VectorIKcEE @6774
    _ZN2v88internal6String9ReadBlockEPPS1_PhjPjS5_ @6775
    _ZN2v88internal6String9ReadBlockEPS1_PNS1_15ReadBlockBufferEPjj @6776
    _ZN2v88internal6String9ReadBlockEPS1_PhjPjS4_ @6777
    _ZN2v88internal6String9SubStringEiiNS0_13PretenureFlagE @6778
    _ZN2v88internal6String9ToCStringENS0_14AllowNullsFlagENS0_14RobustnessFlagEPi @6779
    _ZN2v88internal6String9ToCStringENS0_14AllowNullsFlagENS0_14RobustnessFlagEiiPi @6780
    _ZN2v88internal6StrtodENS0_6VectorIKcEEi @6781
    _ZN2v88internal6Thread14GetThreadLocalENS1_15LocalStorageKeyE @6782
    _ZN2v88internal6Thread14SetThreadLocalENS1_15LocalStorageKeyEPv @6783
    _ZN2v88internal6Thread20CreateThreadLocalKeyEv @6784
    _ZN2v88internal6Thread20DeleteThreadLocalKeyENS1_15LocalStorageKeyE @6785
    _ZN2v88internal6Thread4JoinEv @6786
    _ZN2v88internal6Thread5StartEv @6787
    _ZN2v88internal6Thread8YieldCPUEv @6788
    _ZN2v88internal6Thread8set_nameEPKc @6789
    _ZN2v88internal6ThreadC1EPKc @6790
    _ZN2v88internal6ThreadC1Ev @6791
    _ZN2v88internal6ThreadC2EPKc @6792
    _ZN2v88internal6ThreadC2Ev @6793
    _ZN2v88internal6ThreadD0Ev @6794
    _ZN2v88internal6ThreadD1Ev @6795
    _ZN2v88internal6ThreadD2Ev @6796
    _ZN2v88internal6Ticker13DoSampleStackEPNS0_10TickSampleE @6797
    _ZN2v88internal6Ticker4TickEPNS0_10TickSampleE @6798
    _ZN2v88internal6TickerD0Ev @6799
    _ZN2v88internal6TickerD1Ev @6800
    _ZN2v88internal6moduloEdd @6801
    _ZN2v88internal7AstNode10AsPropertyEv @6802
    _ZN2v88internal7AstNode11AsStatementEv @6803
    _ZN2v88internal7AstNode11current_id_E @6804 DATA
    _ZN2v88internal7AstNode12AsAssignmentEv @6805
    _ZN2v88internal7AstNode12AsExpressionEv @6806
    _ZN2v88internal7AstNode13AsCallRuntimeEv @6807
    _ZN2v88internal7AstNode13AsConditionalEv @6808
    _ZN2v88internal7AstNode13AsDeclarationEv @6809
    _ZN2v88internal7AstNode13AsIfStatementEv @6810
    _ZN2v88internal7AstNode14AsArrayLiteralEv @6811
    _ZN2v88internal7AstNode14AsForStatementEv @6812
    _ZN2v88internal7AstNode14AsThisFunctionEv @6813
    _ZN2v88internal7AstNode15AsCompareToNullEv @6814
    _ZN2v88internal7AstNode15AsObjectLiteralEv @6815
    _ZN2v88internal7AstNode15AsRegExpLiteralEv @6816
    _ZN2v88internal7AstNode15AsVariableProxyEv @6817
    _ZN2v88internal7AstNode16AsBreakStatementEv @6818
    _ZN2v88internal7AstNode16AsCountOperationEv @6819
    _ZN2v88internal7AstNode16AsEmptyStatementEv @6820
    _ZN2v88internal7AstNode16AsForInStatementEv @6821
    _ZN2v88internal7AstNode16AsUnaryOperationEv @6822
    _ZN2v88internal7AstNode16AsWhileStatementEv @6823
    _ZN2v88internal7AstNode17AsBinaryOperationEv @6824
    _ZN2v88internal7AstNode17AsFunctionLiteralEv @6825
    _ZN2v88internal7AstNode17AsReturnStatementEv @6826
    _ZN2v88internal7AstNode17AsSwitchStatementEv @6827
    _ZN2v88internal7AstNode17AsTargetCollectorEv @6828
    _ZN2v88internal7AstNode18AsCompareOperationEv @6829
    _ZN2v88internal7AstNode18AsDoWhileStatementEv @6830
    _ZN2v88internal7AstNode19AsContinueStatementEv @6831
    _ZN2v88internal7AstNode19AsDebuggerStatementEv @6832
    _ZN2v88internal7AstNode19AsTryCatchStatementEv @6833
    _ZN2v88internal7AstNode19AsWithExitStatementEv @6834
    _ZN2v88internal7AstNode20AsBreakableStatementEv @6835
    _ZN2v88internal7AstNode20AsIncrementOperationEv @6836
    _ZN2v88internal7AstNode20AsIterationStatementEv @6837
    _ZN2v88internal7AstNode20AsWithEnterStatementEv @6838
    _ZN2v88internal7AstNode21AsExpressionStatementEv @6839
    _ZN2v88internal7AstNode21AsMaterializedLiteralEv @6840
    _ZN2v88internal7AstNode21AsTryFinallyStatementEv @6841
    _ZN2v88internal7AstNode22AsCatchExtensionObjectEv @6842
    _ZN2v88internal7AstNode27AsSharedFunctionInfoLiteralEv @6843
    _ZN2v88internal7AstNode6AsCallEv @6844
    _ZN2v88internal7AstNode6AsSlotEv @6845
    _ZN2v88internal7AstNode6count_E @6846 DATA
    _ZN2v88internal7AstNode7AsBlockEv @6847
    _ZN2v88internal7AstNode7AsThrowEv @6848
    _ZN2v88internal7AstNode9AsCallNewEv @6849
    _ZN2v88internal7AstNode9AsLiteralEv @6850
    _ZN2v88internal7AstNodeD0Ev @6851
    _ZN2v88internal7AstNodeD1Ev @6852
    _ZN2v88internal7CallNew6AcceptEPNS0_10AstVisitorE @6853
    _ZN2v88internal7CallNew9AsCallNewEv @6854
    _ZN2v88internal7CallNewD0Ev @6855
    _ZN2v88internal7CallNewD1Ev @6856
    _ZN2v88internal7CodeMap13kSfiCodeEntryE @6857 DATA
    _ZN2v88internal7CodeMap14CodeTreeConfig6kNoKeyE @6858 DATA
    _ZN2v88internal7CodeMap14CodeTreeConfig8kNoValueE @6859 DATA
    _ZN2v88internal7CodeMap15CodeTreePrinter4CallERKPhRKNS1_13CodeEntryInfoE @6860
    _ZN2v88internal7CodeMap5PrintEv @6861
    _ZN2v88internal7CodeMap9FindEntryEPh @6862
    _ZN2v88internal7CodeMap9GetSFITagEPh @6863
    _ZN2v88internal7Context12global_proxyEv @6864
    _ZN2v88internal7Context14global_contextEv @6865
    _ZN2v88internal7Context16set_global_proxyEPNS0_8JSObjectE @6866
    _ZN2v88internal7Context20AddOptimizedFunctionEPNS0_10JSFunctionE @6867
    _ZN2v88internal7Context23ClearOptimizedFunctionsEv @6868
    _ZN2v88internal7Context23RemoveOptimizedFunctionEPNS0_10JSFunctionE @6869
    _ZN2v88internal7Context25GlobalIfNotShadowedByEvalENS0_6HandleINS0_6StringEEE @6870
    _ZN2v88internal7Context26OptimizedFunctionsListHeadEv @6871
    _ZN2v88internal7Context6LookupENS0_6HandleINS0_6StringEEENS0_18ContextLookupFlagsEPiP18PropertyAttributes @6872
    _ZN2v88internal7Context8builtinsEv @6873
    _ZN2v88internal7EndNode11EatsAtLeastEiib @6874
    _ZN2v88internal7EndNode20GetQuickCheckDetailsEPNS0_17QuickCheckDetailsEPNS0_14RegExpCompilerEib @6875
    _ZN2v88internal7EndNode4EmitEPNS0_14RegExpCompilerEPNS0_5TraceE @6876
    _ZN2v88internal7EndNode5CloneEv @6877
    _ZN2v88internal7EndNode6AcceptEPNS0_11NodeVisitorE @6878
    _ZN2v88internal7EndNodeD0Ev @6879
    _ZN2v88internal7EndNodeD1Ev @6880
    _ZN2v88internal7Factory10NewJSArrayEiNS0_13PretenureFlagE @6881
    _ZN2v88internal7Factory11NewFunctionENS0_6HandleINS0_6StringEEENS0_12InstanceTypeEiNS2_INS0_4CodeEEEb @6882
    _ZN2v88internal7Factory11NewFunctionENS0_6HandleINS0_6StringEEENS2_INS0_6ObjectEEE @6883
    _ZN2v88internal7Factory11NewJSObjectENS0_6HandleINS0_10JSFunctionEEENS0_13PretenureFlagE @6884
    _ZN2v88internal7Factory11NewMapCacheEi @6885
    _ZN2v88internal7Factory12LookupSymbolENS0_6VectorIKcEE @6886
    _ZN2v88internal7Factory12NewByteArrayEiNS0_13PretenureFlagE @6887
    _ZN2v88internal7Factory12NewDebugInfoENS0_6HandleINS0_18SharedFunctionInfoEEE @6888
    _ZN2v88internal7Factory12NewEvalErrorEPKcNS0_6VectorINS0_6HandleINS0_6ObjectEEEEE @6889
    _ZN2v88internal7Factory12NewSubStringENS0_6HandleINS0_6StringEEEii @6890
    _ZN2v88internal7Factory12NewTypeErrorENS0_6HandleINS0_6StringEEE @6891
    _ZN2v88internal7Factory12NewTypeErrorEPKcNS0_6VectorINS0_6HandleINS0_6ObjectEEEEE @6892
    _ZN2v88internal7Factory13AddToMapCacheENS0_6HandleINS0_7ContextEEENS2_INS0_10FixedArrayEEENS2_INS0_3MapEEE @6893
    _ZN2v88internal7Factory13NewConsStringENS0_6HandleINS0_6StringEEES4_ @6894
    _ZN2v88internal7Factory13NewFixedArrayEiNS0_13PretenureFlagE @6895
    _ZN2v88internal7Factory13NewPixelArrayEiPhNS0_13PretenureFlagE @6896
    _ZN2v88internal7Factory13NewRangeErrorENS0_6HandleINS0_6StringEEE @6897
    _ZN2v88internal7Factory13NewRangeErrorEPKcNS0_6VectorINS0_6HandleINS0_6ObjectEEEEE @6898
    _ZN2v88internal7Factory14CopyFixedArrayENS0_6HandleINS0_10FixedArrayEEE @6899
    _ZN2v88internal7Factory14NewSyntaxErrorENS0_6HandleINS0_6StringEEE @6900
    _ZN2v88internal7Factory14NewSyntaxErrorEPKcNS0_6HandleINS0_7JSArrayEEE @6901
    _ZN2v88internal7Factory14NewWithContextENS0_6HandleINS0_7ContextEEENS2_INS0_8JSObjectEEEb @6902
    _ZN2v88internal7Factory14NumberToStringENS0_6HandleINS0_6ObjectEEE @6903
    _ZN2v88internal7Factory15NewAccessorInfoEv @6904
    _ZN2v88internal7Factory15NewGlobalObjectENS0_6HandleINS0_10JSFunctionEEE @6905
    _ZN2v88internal7Factory16NewExternalArrayEiNS_17ExternalArrayTypeEPvNS0_13PretenureFlagE @6906
    _ZN2v88internal7Factory16NewGlobalContextEv @6907
    _ZN2v88internal7Factory16NewNeanderObjectEv @6908
    _ZN2v88internal7Factory16NewNumberFromIntEi @6909
    _ZN2v88internal7Factory16SymbolFromStringENS0_6HandleINS0_6StringEEE @6910
    _ZN2v88internal7Factory17ConfigureInstanceENS0_6HandleINS0_20FunctionTemplateInfoEEENS2_INS0_8JSObjectEEEPb @6911
    _ZN2v88internal7Factory17CreateApiFunctionENS0_6HandleINS0_20FunctionTemplateInfoEEENS1_15ApiInstanceTypeE @6912
    _ZN2v88internal7Factory17LookupAsciiSymbolENS0_6VectorIKcEE @6913
    _ZN2v88internal7Factory17NewFunctionHelperENS0_6HandleINS0_6StringEEENS2_INS0_6ObjectEEE @6914
    _ZN2v88internal7Factory17NewNumberFromUintEj @6915
    _ZN2v88internal7Factory17NewRawAsciiStringEiNS0_13PretenureFlagE @6916
    _ZN2v88internal7Factory17NewReferenceErrorENS0_6HandleINS0_6StringEEE @6917
    _ZN2v88internal7Factory17NewReferenceErrorEPKcNS0_6VectorINS0_6HandleINS0_6ObjectEEEEE @6918
    _ZN2v88internal7Factory17NewStringFromUtf8ENS0_6VectorIKcEENS0_13PretenureFlagE @6919
    _ZN2v88internal7Factory17SetRegExpAtomDataENS0_6HandleINS0_8JSRegExpEEENS3_4TypeENS2_INS0_6StringEEENS3_5FlagsENS2_INS0_6ObjectEEE @6920
    _ZN2v88internal7Factory18GetFastElementsMapENS0_6HandleINS0_3MapEEE @6921
    _ZN2v88internal7Factory18GetSlowElementsMapENS0_6HandleINS0_3MapEEE @6922
    _ZN2v88internal7Factory18NewArgumentsObjectENS0_6HandleINS0_6ObjectEEEi @6923
    _ZN2v88internal7Factory18NewDescriptorArrayEi @6924
    _ZN2v88internal7Factory18NewFunctionContextEiNS0_6HandleINS0_10JSFunctionEEE @6925
    _ZN2v88internal7Factory18NewJSMessageObjectENS0_6HandleINS0_6StringEEENS2_INS0_7JSArrayEEEiiNS2_INS0_6ObjectEEES8_S8_ @6926
    _ZN2v88internal7Factory18NewJSObjectFromMapENS0_6HandleINS0_3MapEEE @6927
    _ZN2v88internal7Factory18NewStringFromAsciiENS0_6VectorIKcEENS0_13PretenureFlagE @6928
    _ZN2v88internal7Factory19LookupTwoByteSymbolENS0_6VectorIKtEE @6929
    _ZN2v88internal7Factory19NewNumberDictionaryEi @6930
    _ZN2v88internal7Factory19NewRawTwoByteStringEiNS0_13PretenureFlagE @6931
    _ZN2v88internal7Factory19NewStringDictionaryEi @6932
    _ZN2v88internal7Factory20NewFunctionPrototypeENS0_6HandleINS0_10JSFunctionEEE @6933
    _ZN2v88internal7Factory20NewStringFromTwoByteENS0_6VectorIKtEENS0_13PretenureFlagE @6934
    _ZN2v88internal7Factory21DictionaryAtNumberPutENS0_6HandleINS0_16NumberDictionaryEEEjNS2_INS0_6ObjectEEE @6935
    _ZN2v88internal7Factory21NewSharedFunctionInfoENS0_6HandleINS0_6StringEEE @6936
    _ZN2v88internal7Factory21NewSharedFunctionInfoENS0_6HandleINS0_6StringEEEiNS2_INS0_4CodeEEENS2_INS0_19SerializedScopeInfoEEE @6937
    _ZN2v88internal7Factory21SetRegExpIrregexpDataENS0_6HandleINS0_8JSRegExpEEENS3_4TypeENS2_INS0_6StringEEENS3_5FlagsEi @6938
    _ZN2v88internal7Factory22CopyMapDropDescriptorsENS0_6HandleINS0_3MapEEE @6939
    _ZN2v88internal7Factory22CopyMapDropTransitionsENS0_6HandleINS0_3MapEEE @6940
    _ZN2v88internal7Factory22NewFixedArrayWithHolesEiNS0_13PretenureFlagE @6941
    _ZN2v88internal7Factory22NewJSArrayWithElementsENS0_6HandleINS0_10FixedArrayEEENS0_13PretenureFlagE @6942
    _ZN2v88internal7Factory23NewJSGlobalPropertyCellENS0_6HandleINS0_6ObjectEEE @6943
    _ZN2v88internal7Factory24GetPixelArrayElementsMapENS0_6HandleINS0_3MapEEE @6944
    _ZN2v88internal7Factory24NewFunctionWithPrototypeENS0_6HandleINS0_6StringEEENS0_12InstanceTypeEiNS2_INS0_8JSObjectEEENS2_INS0_4CodeEEEb @6945
    _ZN2v88internal7Factory25CopyAppendProxyDescriptorENS0_6HandleINS0_15DescriptorArrayEEENS2_INS0_6StringEEENS2_INS0_6ObjectEEE18PropertyAttributes @6946
    _ZN2v88internal7Factory25ObjectLiteralMapFromCacheENS0_6HandleINS0_7ContextEEENS2_INS0_10FixedArrayEEE @6947
    _ZN2v88internal7Factory26NewDeoptimizationInputDataEiNS0_13PretenureFlagE @6948
    _ZN2v88internal7Factory26NewExternalStringFromAsciiEPNS_6String27ExternalAsciiStringResourceE @6949
    _ZN2v88internal7Factory27NewDeoptimizationOutputDataEiNS0_13PretenureFlagE @6950
    _ZN2v88internal7Factory27NewFunctionWithoutPrototypeENS0_6HandleINS0_6StringEEE @6951
    _ZN2v88internal7Factory27NewFunctionWithoutPrototypeENS0_6HandleINS0_6StringEEENS2_INS0_4CodeEEE @6952
    _ZN2v88internal7Factory28NewExternalStringFromTwoByteEPNS_6String22ExternalStringResourceE @6953
    _ZN2v88internal7Factory29CopyAppendCallbackDescriptorsENS0_6HandleINS0_15DescriptorArrayEEENS2_INS0_6ObjectEEE @6954
    _ZN2v88internal7Factory33NewFunctionFromSharedFunctionInfoENS0_6HandleINS0_18SharedFunctionInfoEEENS2_INS0_7ContextEEENS0_13PretenureFlagE @6955
    _ZN2v88internal7Factory33NewFunctionWithoutPrototypeHelperENS0_6HandleINS0_6StringEEE @6956
    _ZN2v88internal7Factory37BaseNewFunctionFromSharedFunctionInfoENS0_6HandleINS0_18SharedFunctionInfoEEENS2_INS0_3MapEEENS0_13PretenureFlagE @6957
    _ZN2v88internal7Factory6NewMapENS0_12InstanceTypeEi @6958
    _ZN2v88internal7Factory7CopyMapENS0_6HandleINS0_3MapEEEi @6959
    _ZN2v88internal7Factory7NewCodeERKNS0_8CodeDescENS0_4Code5FlagsENS0_6HandleINS0_6ObjectEEE @6960
    _ZN2v88internal7Factory8CopyCodeENS0_6HandleINS0_4CodeEEE @6961
    _ZN2v88internal7Factory8CopyCodeENS0_6HandleINS0_4CodeEEENS0_6VectorIhEE @6962
    _ZN2v88internal7Factory8NewErrorENS0_6HandleINS0_6StringEEE @6963
    _ZN2v88internal7Factory8NewErrorEPKcNS0_6HandleINS0_6StringEEE @6964
    _ZN2v88internal7Factory8NewErrorEPKcNS0_6VectorINS0_6HandleINS0_6ObjectEEEEE @6965
    _ZN2v88internal7Factory8NewErrorEPKcS3_NS0_6HandleINS0_7JSArrayEEE @6966
    _ZN2v88internal7Factory8NewErrorEPKcS3_NS0_6VectorINS0_6HandleINS0_6ObjectEEEEE @6967
    _ZN2v88internal7Factory8NewProxyEPKNS0_18AccessorDescriptorE @6968
    _ZN2v88internal7Factory8NewProxyEPhNS0_13PretenureFlagE @6969
    _ZN2v88internal7Factory8ToObjectENS0_6HandleINS0_6ObjectEEE @6970
    _ZN2v88internal7Factory8ToObjectENS0_6HandleINS0_6ObjectEEENS2_INS0_7ContextEEE @6971
    _ZN2v88internal7Factory9NewNumberEdNS0_13PretenureFlagE @6972
    _ZN2v88internal7Factory9NewScriptENS0_6HandleINS0_6StringEEE @6973
    _ZN2v88internal7Factory9NewStructENS0_12InstanceTypeE @6974
    _ZN2v88internal7Failure12FailurePrintEP9__sFILE64 @6975
    _ZN2v88internal7Failure12FailurePrintEPNS0_12StringStreamE @6976
    _ZN2v88internal7Genesis11CreateRootsEv @6977
    _ZN2v88internal7Genesis13CompileNativeENS0_6VectorIKcEENS0_6HandleINS0_6StringEEE @6978
    _ZN2v88internal7Genesis14CompileBuiltinEi @6979
    _ZN2v88internal7Genesis14InstallNativesEv @6980
    _ZN2v88internal7Genesis14TransferObjectENS0_6HandleINS0_8JSObjectEEES4_ @6981
    _ZN2v88internal7Genesis16CreateNewGlobalsENS_6HandleINS_14ObjectTemplateEEENS0_6HandleINS0_6ObjectEEEPNS5_INS0_12GlobalObjectEEE @6982
    _ZN2v88internal7Genesis16InitializeGlobalENS0_6HandleINS0_12GlobalObjectEEENS2_INS0_10JSFunctionEEE @6983
    _ZN2v88internal7Genesis16InstallExtensionEPKc @6984
    _ZN2v88internal7Genesis16InstallExtensionEPNS_19RegisteredExtensionE @6985
    _ZN2v88internal7Genesis17HookUpGlobalProxyENS0_6HandleINS0_12GlobalObjectEEENS2_INS0_13JSGlobalProxyEEE @6986
    _ZN2v88internal7Genesis17HookUpInnerGlobalENS0_6HandleINS0_12GlobalObjectEEE @6987
    _ZN2v88internal7Genesis17InstallExtensionsENS0_6HandleINS0_7ContextEEEPNS_22ExtensionConfigurationE @6988
    _ZN2v88internal7Genesis17InstallJSBuiltinsENS0_6HandleINS0_16JSBuiltinsObjectEEE @6989
    _ZN2v88internal7Genesis18ConfigureApiObjectENS0_6HandleINS0_8JSObjectEEENS2_INS0_18ObjectTemplateInfoEEE @6990
    _ZN2v88internal7Genesis19CompileScriptCachedENS0_6VectorIKcEENS0_6HandleINS0_6StringEEEPNS0_15SourceCodeCacheEPNS_9ExtensionENS5_INS0_7ContextEEEb @6991
    _ZN2v88internal7Genesis19CreateEmptyFunctionEv @6992
    _ZN2v88internal7Genesis21InstallSpecialObjectsENS0_6HandleINS0_7ContextEEE @6993
    _ZN2v88internal7Genesis22ConfigureGlobalObjectsENS_6HandleINS_14ObjectTemplateEEE @6994
    _ZN2v88internal7Genesis22InstallNativeFunctionsEv @6995
    _ZN2v88internal7Genesis23TransferNamedPropertiesENS0_6HandleINS0_8JSObjectEEES4_ @6996
    _ZN2v88internal7Genesis25InstallBuiltinFunctionIdsEv @6997
    _ZN2v88internal7Genesis25TransferIndexedPropertiesENS0_6HandleINS0_8JSObjectEEES4_ @6998
    _ZN2v88internal7Genesis29InitializeNormalizedMapCachesEv @6999
    _ZN2v88internal7Genesis29InstallJSFunctionResultCachesEv @7000
    _ZN2v88internal7Genesis33ComputeFunctionInstanceDescriptorENS1_21PrototypePropertyModeE @7001
    _ZN2v88internal7Genesis37MakeFunctionInstancePrototypeWritableEv @7002
    _ZN2v88internal7GenesisC1ENS0_6HandleINS0_6ObjectEEENS_6HandleINS_14ObjectTemplateEEEPNS_22ExtensionConfigurationE @7003
    _ZN2v88internal7GenesisC2ENS0_6HandleINS0_6ObjectEEENS_6HandleINS_14ObjectTemplateEEEPNS_22ExtensionConfigurationE @7004
    _ZN2v88internal7HBitAnd10DataEqualsEPNS0_6HValueE @7005
    _ZN2v88internal7HBitAnd10InferRangeEv @7006
    _ZN2v88internal7HBitAnd16CompileToLithiumEPNS0_13LChunkBuilderE @7007
    _ZN2v88internal7HBitAnd21CalculateInferredTypeEv @7008
    _ZN2v88internal7HBitAndD0Ev @7009
    _ZN2v88internal7HBitAndD1Ev @7010
    _ZN2v88internal7HBitNot10DataEqualsEPNS0_6HValueE @7011
    _ZN2v88internal7HBitNot16CompileToLithiumEPNS0_13LChunkBuilderE @7012
    _ZN2v88internal7HBitNot21CalculateInferredTypeEv @7013
    _ZN2v88internal7HBitNotD0Ev @7014
    _ZN2v88internal7HBitNotD1Ev @7015
    _ZN2v88internal7HBitXor10DataEqualsEPNS0_6HValueE @7016
    _ZN2v88internal7HBitXor16CompileToLithiumEPNS0_13LChunkBuilderE @7017
    _ZN2v88internal7HBitXor21CalculateInferredTypeEv @7018
    _ZN2v88internal7HBitXorD0Ev @7019
    _ZN2v88internal7HBitXorD1Ev @7020
    _ZN2v88internal7HChange10DataEqualsEPNS0_6HValueE @7021
    _ZN2v88internal7HChange11PrintDataToEPNS0_12StringStreamE @7022
    _ZN2v88internal7HChange16CompileToLithiumEPNS0_13LChunkBuilderE @7023
    _ZN2v88internal7HChange30EnsureAndPropagateNotMinusZeroEPNS0_9BitVectorE @7024
    _ZN2v88internal7HChangeD0Ev @7025
    _ZN2v88internal7HChangeD1Ev @7026
    _ZN2v88internal7HIsNull10DataEqualsEPNS0_6HValueE @7027
    _ZN2v88internal7HIsNull16CompileToLithiumEPNS0_13LChunkBuilderE @7028
    _ZN2v88internal7HIsNullD0Ev @7029
    _ZN2v88internal7HIsNullD1Ev @7030
    _ZN2v88internal7HReturn16CompileToLithiumEPNS0_13LChunkBuilderE @7031
    _ZN2v88internal7HReturnC1EPNS0_6HValueE @7032
    _ZN2v88internal7HReturnD0Ev @7033
    _ZN2v88internal7HReturnD1Ev @7034
    _ZN2v88internal7HTracer11FlushToFileEv @7035
    _ZN2v88internal7HTracer12TraceLithiumEPKcPNS0_6LChunkE @7036
    _ZN2v88internal7HTracer13TraceHydrogenEPKcPNS0_6HGraphE @7037
    _ZN2v88internal7HTracer14TraceLiveRangeEPNS0_9LiveRangeEPKc @7038
    _ZN2v88internal7HTracer15TraceLiveRangesEPKcPNS0_10LAllocatorE @7039
    _ZN2v88internal7HTracer16TraceCompilationEPNS0_15FunctionLiteralE @7040
    _ZN2v88internal7HTracer5TraceEPKcPNS0_6HGraphEPNS0_6LChunkE @7041
    _ZN2v88internal7HTypeof16CompileToLithiumEPNS0_13LChunkBuilderE @7042
    _ZN2v88internal7HTypeofD0Ev @7043
    _ZN2v88internal7HTypeofD1Ev @7044
    _ZN2v88internal7HashMap10InitializeEj @7045
    _ZN2v88internal7HashMap16DefaultAllocatorE @7046 DATA
    _ZN2v88internal7HashMap5ClearEv @7047
    _ZN2v88internal7HashMap5ProbeEPvj @7048
    _ZN2v88internal7HashMap6LookupEPvjb @7049
    _ZN2v88internal7HashMap6RemoveEPvj @7050
    _ZN2v88internal7HashMap6ResizeEv @7051
    _ZN2v88internal7HashMapC1EPFbPvS2_EPNS0_9AllocatorEj @7052
    _ZN2v88internal7HashMapC1Ev @7053
    _ZN2v88internal7HashMapC2EPFbPvS2_EPNS0_9AllocatorEj @7054
    _ZN2v88internal7HashMapC2Ev @7055
    _ZN2v88internal7HashMapD1Ev @7056
    _ZN2v88internal7HashMapD2Ev @7057
    _ZN2v88internal7JSArray10InitializeEi @7058
    _ZN2v88internal7JSArray10SetContentEPNS0_10FixedArrayE @7059
    _ZN2v88internal7JSArray28JSArrayUpdateLengthFromIndexEjPNS0_6ObjectE @7060
    _ZN2v88internal7JSArray6ExpandEi @7061
    _ZN2v88internal7LBranch11PrintDataToEPNS0_12StringStreamE @7062
    _ZN2v88internal7LBranch15CompileToNativeEPNS0_8LCodeGenE @7063
    _ZN2v88internal7LBranchD0Ev @7064
    _ZN2v88internal7LBranchD1Ev @7065
    _ZN2v88internal7LIsNull15CompileToNativeEPNS0_8LCodeGenE @7066
    _ZN2v88internal7LIsNullD0Ev @7067
